
FlightController.elf:     file format elf32-littlearm

Sections:
Idx Name          Size      VMA       LMA       File off  Algn
  0 .isr_vector   00000188  08000000  08000000  00010000  2**0
                  CONTENTS, ALLOC, LOAD, READONLY, DATA
  1 .text         000071f4  08000188  08000188  00010188  2**3
                  CONTENTS, ALLOC, LOAD, READONLY, CODE
  2 .rodata       00000260  08007380  08007380  00017380  2**3
                  CONTENTS, ALLOC, LOAD, READONLY, DATA
  3 .ARM.extab    00000000  080075e0  080075e0  0002007c  2**0
                  CONTENTS
  4 .ARM          00000008  080075e0  080075e0  000175e0  2**2
                  CONTENTS, ALLOC, LOAD, READONLY, DATA
  5 .preinit_array 00000000  080075e8  080075e8  0002007c  2**0
                  CONTENTS, ALLOC, LOAD, DATA
  6 .init_array   00000004  080075e8  080075e8  000175e8  2**2
                  CONTENTS, ALLOC, LOAD, DATA
  7 .fini_array   00000004  080075ec  080075ec  000175ec  2**2
                  CONTENTS, ALLOC, LOAD, DATA
  8 .data         0000007c  20000000  080075f0  00020000  2**2
                  CONTENTS, ALLOC, LOAD, DATA
  9 .bss          0000048c  2000007c  0800766c  0002007c  2**2
                  ALLOC
 10 ._user_heap_stack 00000600  20000508  0800766c  00020508  2**0
                  ALLOC
 11 .ARM.attributes 00000030  00000000  00000000  0002007c  2**0
                  CONTENTS, READONLY
 12 .comment      0000007b  00000000  00000000  000200ac  2**0
                  CONTENTS, READONLY
 13 .debug_frame  00000738  00000000  00000000  00020128  2**2
                  CONTENTS, READONLY, DEBUGGING

Disassembly of section .text:

08000188 <__do_global_dtors_aux>:
 8000188:	b510      	push	{r4, lr}
 800018a:	4c05      	ldr	r4, [pc, #20]	; (80001a0 <__do_global_dtors_aux+0x18>)
 800018c:	7823      	ldrb	r3, [r4, #0]
 800018e:	b933      	cbnz	r3, 800019e <__do_global_dtors_aux+0x16>
 8000190:	4b04      	ldr	r3, [pc, #16]	; (80001a4 <__do_global_dtors_aux+0x1c>)
 8000192:	b113      	cbz	r3, 800019a <__do_global_dtors_aux+0x12>
 8000194:	4804      	ldr	r0, [pc, #16]	; (80001a8 <__do_global_dtors_aux+0x20>)
 8000196:	f3af 8000 	nop.w
 800019a:	2301      	movs	r3, #1
 800019c:	7023      	strb	r3, [r4, #0]
 800019e:	bd10      	pop	{r4, pc}
 80001a0:	2000007c 	.word	0x2000007c
 80001a4:	00000000 	.word	0x00000000
 80001a8:	08007364 	.word	0x08007364

080001ac <frame_dummy>:
 80001ac:	b508      	push	{r3, lr}
 80001ae:	4b03      	ldr	r3, [pc, #12]	; (80001bc <frame_dummy+0x10>)
 80001b0:	b11b      	cbz	r3, 80001ba <frame_dummy+0xe>
 80001b2:	4903      	ldr	r1, [pc, #12]	; (80001c0 <frame_dummy+0x14>)
 80001b4:	4803      	ldr	r0, [pc, #12]	; (80001c4 <frame_dummy+0x18>)
 80001b6:	f3af 8000 	nop.w
 80001ba:	bd08      	pop	{r3, pc}
 80001bc:	00000000 	.word	0x00000000
 80001c0:	20000080 	.word	0x20000080
 80001c4:	08007364 	.word	0x08007364

080001c8 <__aeabi_drsub>:
 80001c8:	f081 4100 	eor.w	r1, r1, #2147483648	; 0x80000000
 80001cc:	e002      	b.n	80001d4 <__adddf3>
 80001ce:	bf00      	nop

080001d0 <__aeabi_dsub>:
 80001d0:	f083 4300 	eor.w	r3, r3, #2147483648	; 0x80000000

080001d4 <__adddf3>:
 80001d4:	b530      	push	{r4, r5, lr}
 80001d6:	ea4f 0441 	mov.w	r4, r1, lsl #1
 80001da:	ea4f 0543 	mov.w	r5, r3, lsl #1
 80001de:	ea94 0f05 	teq	r4, r5
 80001e2:	bf08      	it	eq
 80001e4:	ea90 0f02 	teqeq	r0, r2
 80001e8:	bf1f      	itttt	ne
 80001ea:	ea54 0c00 	orrsne.w	ip, r4, r0
 80001ee:	ea55 0c02 	orrsne.w	ip, r5, r2
 80001f2:	ea7f 5c64 	mvnsne.w	ip, r4, asr #21
 80001f6:	ea7f 5c65 	mvnsne.w	ip, r5, asr #21
 80001fa:	f000 80e2 	beq.w	80003c2 <__adddf3+0x1ee>
 80001fe:	ea4f 5454 	mov.w	r4, r4, lsr #21
 8000202:	ebd4 5555 	rsbs	r5, r4, r5, lsr #21
 8000206:	bfb8      	it	lt
 8000208:	426d      	neglt	r5, r5
 800020a:	dd0c      	ble.n	8000226 <__adddf3+0x52>
 800020c:	442c      	add	r4, r5
 800020e:	ea80 0202 	eor.w	r2, r0, r2
 8000212:	ea81 0303 	eor.w	r3, r1, r3
 8000216:	ea82 0000 	eor.w	r0, r2, r0
 800021a:	ea83 0101 	eor.w	r1, r3, r1
 800021e:	ea80 0202 	eor.w	r2, r0, r2
 8000222:	ea81 0303 	eor.w	r3, r1, r3
 8000226:	2d36      	cmp	r5, #54	; 0x36
 8000228:	bf88      	it	hi
 800022a:	bd30      	pophi	{r4, r5, pc}
 800022c:	f011 4f00 	tst.w	r1, #2147483648	; 0x80000000
 8000230:	ea4f 3101 	mov.w	r1, r1, lsl #12
 8000234:	f44f 1c80 	mov.w	ip, #1048576	; 0x100000
 8000238:	ea4c 3111 	orr.w	r1, ip, r1, lsr #12
 800023c:	d002      	beq.n	8000244 <__adddf3+0x70>
 800023e:	4240      	negs	r0, r0
 8000240:	eb61 0141 	sbc.w	r1, r1, r1, lsl #1
 8000244:	f013 4f00 	tst.w	r3, #2147483648	; 0x80000000
 8000248:	ea4f 3303 	mov.w	r3, r3, lsl #12
 800024c:	ea4c 3313 	orr.w	r3, ip, r3, lsr #12
 8000250:	d002      	beq.n	8000258 <__adddf3+0x84>
 8000252:	4252      	negs	r2, r2
 8000254:	eb63 0343 	sbc.w	r3, r3, r3, lsl #1
 8000258:	ea94 0f05 	teq	r4, r5
 800025c:	f000 80a7 	beq.w	80003ae <__adddf3+0x1da>
 8000260:	f1a4 0401 	sub.w	r4, r4, #1
 8000264:	f1d5 0e20 	rsbs	lr, r5, #32
 8000268:	db0d      	blt.n	8000286 <__adddf3+0xb2>
 800026a:	fa02 fc0e 	lsl.w	ip, r2, lr
 800026e:	fa22 f205 	lsr.w	r2, r2, r5
 8000272:	1880      	adds	r0, r0, r2
 8000274:	f141 0100 	adc.w	r1, r1, #0
 8000278:	fa03 f20e 	lsl.w	r2, r3, lr
 800027c:	1880      	adds	r0, r0, r2
 800027e:	fa43 f305 	asr.w	r3, r3, r5
 8000282:	4159      	adcs	r1, r3
 8000284:	e00e      	b.n	80002a4 <__adddf3+0xd0>
 8000286:	f1a5 0520 	sub.w	r5, r5, #32
 800028a:	f10e 0e20 	add.w	lr, lr, #32
 800028e:	2a01      	cmp	r2, #1
 8000290:	fa03 fc0e 	lsl.w	ip, r3, lr
 8000294:	bf28      	it	cs
 8000296:	f04c 0c02 	orrcs.w	ip, ip, #2
 800029a:	fa43 f305 	asr.w	r3, r3, r5
 800029e:	18c0      	adds	r0, r0, r3
 80002a0:	eb51 71e3 	adcs.w	r1, r1, r3, asr #31
 80002a4:	f001 4500 	and.w	r5, r1, #2147483648	; 0x80000000
 80002a8:	d507      	bpl.n	80002ba <__adddf3+0xe6>
 80002aa:	f04f 0e00 	mov.w	lr, #0
 80002ae:	f1dc 0c00 	rsbs	ip, ip, #0
 80002b2:	eb7e 0000 	sbcs.w	r0, lr, r0
 80002b6:	eb6e 0101 	sbc.w	r1, lr, r1
 80002ba:	f5b1 1f80 	cmp.w	r1, #1048576	; 0x100000
 80002be:	d31b      	bcc.n	80002f8 <__adddf3+0x124>
 80002c0:	f5b1 1f00 	cmp.w	r1, #2097152	; 0x200000
 80002c4:	d30c      	bcc.n	80002e0 <__adddf3+0x10c>
 80002c6:	0849      	lsrs	r1, r1, #1
 80002c8:	ea5f 0030 	movs.w	r0, r0, rrx
 80002cc:	ea4f 0c3c 	mov.w	ip, ip, rrx
 80002d0:	f104 0401 	add.w	r4, r4, #1
 80002d4:	ea4f 5244 	mov.w	r2, r4, lsl #21
 80002d8:	f512 0f80 	cmn.w	r2, #4194304	; 0x400000
 80002dc:	f080 809a 	bcs.w	8000414 <__adddf3+0x240>
 80002e0:	f1bc 4f00 	cmp.w	ip, #2147483648	; 0x80000000
 80002e4:	bf08      	it	eq
 80002e6:	ea5f 0c50 	movseq.w	ip, r0, lsr #1
 80002ea:	f150 0000 	adcs.w	r0, r0, #0
 80002ee:	eb41 5104 	adc.w	r1, r1, r4, lsl #20
 80002f2:	ea41 0105 	orr.w	r1, r1, r5
 80002f6:	bd30      	pop	{r4, r5, pc}
 80002f8:	ea5f 0c4c 	movs.w	ip, ip, lsl #1
 80002fc:	4140      	adcs	r0, r0
 80002fe:	eb41 0101 	adc.w	r1, r1, r1
 8000302:	f411 1f80 	tst.w	r1, #1048576	; 0x100000
 8000306:	f1a4 0401 	sub.w	r4, r4, #1
 800030a:	d1e9      	bne.n	80002e0 <__adddf3+0x10c>
 800030c:	f091 0f00 	teq	r1, #0
 8000310:	bf04      	itt	eq
 8000312:	4601      	moveq	r1, r0
 8000314:	2000      	moveq	r0, #0
 8000316:	fab1 f381 	clz	r3, r1
 800031a:	bf08      	it	eq
 800031c:	3320      	addeq	r3, #32
 800031e:	f1a3 030b 	sub.w	r3, r3, #11
 8000322:	f1b3 0220 	subs.w	r2, r3, #32
 8000326:	da0c      	bge.n	8000342 <__adddf3+0x16e>
 8000328:	320c      	adds	r2, #12
 800032a:	dd08      	ble.n	800033e <__adddf3+0x16a>
 800032c:	f102 0c14 	add.w	ip, r2, #20
 8000330:	f1c2 020c 	rsb	r2, r2, #12
 8000334:	fa01 f00c 	lsl.w	r0, r1, ip
 8000338:	fa21 f102 	lsr.w	r1, r1, r2
 800033c:	e00c      	b.n	8000358 <__adddf3+0x184>
 800033e:	f102 0214 	add.w	r2, r2, #20
 8000342:	bfd8      	it	le
 8000344:	f1c2 0c20 	rsble	ip, r2, #32
 8000348:	fa01 f102 	lsl.w	r1, r1, r2
 800034c:	fa20 fc0c 	lsr.w	ip, r0, ip
 8000350:	bfdc      	itt	le
 8000352:	ea41 010c 	orrle.w	r1, r1, ip
 8000356:	4090      	lslle	r0, r2
 8000358:	1ae4      	subs	r4, r4, r3
 800035a:	bfa2      	ittt	ge
 800035c:	eb01 5104 	addge.w	r1, r1, r4, lsl #20
 8000360:	4329      	orrge	r1, r5
 8000362:	bd30      	popge	{r4, r5, pc}
 8000364:	ea6f 0404 	mvn.w	r4, r4
 8000368:	3c1f      	subs	r4, #31
 800036a:	da1c      	bge.n	80003a6 <__adddf3+0x1d2>
 800036c:	340c      	adds	r4, #12
 800036e:	dc0e      	bgt.n	800038e <__adddf3+0x1ba>
 8000370:	f104 0414 	add.w	r4, r4, #20
 8000374:	f1c4 0220 	rsb	r2, r4, #32
 8000378:	fa20 f004 	lsr.w	r0, r0, r4
 800037c:	fa01 f302 	lsl.w	r3, r1, r2
 8000380:	ea40 0003 	orr.w	r0, r0, r3
 8000384:	fa21 f304 	lsr.w	r3, r1, r4
 8000388:	ea45 0103 	orr.w	r1, r5, r3
 800038c:	bd30      	pop	{r4, r5, pc}
 800038e:	f1c4 040c 	rsb	r4, r4, #12
 8000392:	f1c4 0220 	rsb	r2, r4, #32
 8000396:	fa20 f002 	lsr.w	r0, r0, r2
 800039a:	fa01 f304 	lsl.w	r3, r1, r4
 800039e:	ea40 0003 	orr.w	r0, r0, r3
 80003a2:	4629      	mov	r1, r5
 80003a4:	bd30      	pop	{r4, r5, pc}
 80003a6:	fa21 f004 	lsr.w	r0, r1, r4
 80003aa:	4629      	mov	r1, r5
 80003ac:	bd30      	pop	{r4, r5, pc}
 80003ae:	f094 0f00 	teq	r4, #0
 80003b2:	f483 1380 	eor.w	r3, r3, #1048576	; 0x100000
 80003b6:	bf06      	itte	eq
 80003b8:	f481 1180 	eoreq.w	r1, r1, #1048576	; 0x100000
 80003bc:	3401      	addeq	r4, #1
 80003be:	3d01      	subne	r5, #1
 80003c0:	e74e      	b.n	8000260 <__adddf3+0x8c>
 80003c2:	ea7f 5c64 	mvns.w	ip, r4, asr #21
 80003c6:	bf18      	it	ne
 80003c8:	ea7f 5c65 	mvnsne.w	ip, r5, asr #21
 80003cc:	d029      	beq.n	8000422 <__adddf3+0x24e>
 80003ce:	ea94 0f05 	teq	r4, r5
 80003d2:	bf08      	it	eq
 80003d4:	ea90 0f02 	teqeq	r0, r2
 80003d8:	d005      	beq.n	80003e6 <__adddf3+0x212>
 80003da:	ea54 0c00 	orrs.w	ip, r4, r0
 80003de:	bf04      	itt	eq
 80003e0:	4619      	moveq	r1, r3
 80003e2:	4610      	moveq	r0, r2
 80003e4:	bd30      	pop	{r4, r5, pc}
 80003e6:	ea91 0f03 	teq	r1, r3
 80003ea:	bf1e      	ittt	ne
 80003ec:	2100      	movne	r1, #0
 80003ee:	2000      	movne	r0, #0
 80003f0:	bd30      	popne	{r4, r5, pc}
 80003f2:	ea5f 5c54 	movs.w	ip, r4, lsr #21
 80003f6:	d105      	bne.n	8000404 <__adddf3+0x230>
 80003f8:	0040      	lsls	r0, r0, #1
 80003fa:	4149      	adcs	r1, r1
 80003fc:	bf28      	it	cs
 80003fe:	f041 4100 	orrcs.w	r1, r1, #2147483648	; 0x80000000
 8000402:	bd30      	pop	{r4, r5, pc}
 8000404:	f514 0480 	adds.w	r4, r4, #4194304	; 0x400000
 8000408:	bf3c      	itt	cc
 800040a:	f501 1180 	addcc.w	r1, r1, #1048576	; 0x100000
 800040e:	bd30      	popcc	{r4, r5, pc}
 8000410:	f001 4500 	and.w	r5, r1, #2147483648	; 0x80000000
 8000414:	f045 41fe 	orr.w	r1, r5, #2130706432	; 0x7f000000
 8000418:	f441 0170 	orr.w	r1, r1, #15728640	; 0xf00000
 800041c:	f04f 0000 	mov.w	r0, #0
 8000420:	bd30      	pop	{r4, r5, pc}
 8000422:	ea7f 5c64 	mvns.w	ip, r4, asr #21
 8000426:	bf1a      	itte	ne
 8000428:	4619      	movne	r1, r3
 800042a:	4610      	movne	r0, r2
 800042c:	ea7f 5c65 	mvnseq.w	ip, r5, asr #21
 8000430:	bf1c      	itt	ne
 8000432:	460b      	movne	r3, r1
 8000434:	4602      	movne	r2, r0
 8000436:	ea50 3401 	orrs.w	r4, r0, r1, lsl #12
 800043a:	bf06      	itte	eq
 800043c:	ea52 3503 	orrseq.w	r5, r2, r3, lsl #12
 8000440:	ea91 0f03 	teqeq	r1, r3
 8000444:	f441 2100 	orrne.w	r1, r1, #524288	; 0x80000
 8000448:	bd30      	pop	{r4, r5, pc}
 800044a:	bf00      	nop

0800044c <__aeabi_ui2d>:
 800044c:	f090 0f00 	teq	r0, #0
 8000450:	bf04      	itt	eq
 8000452:	2100      	moveq	r1, #0
 8000454:	4770      	bxeq	lr
 8000456:	b530      	push	{r4, r5, lr}
 8000458:	f44f 6480 	mov.w	r4, #1024	; 0x400
 800045c:	f104 0432 	add.w	r4, r4, #50	; 0x32
 8000460:	f04f 0500 	mov.w	r5, #0
 8000464:	f04f 0100 	mov.w	r1, #0
 8000468:	e750      	b.n	800030c <__adddf3+0x138>
 800046a:	bf00      	nop

0800046c <__aeabi_i2d>:
 800046c:	f090 0f00 	teq	r0, #0
 8000470:	bf04      	itt	eq
 8000472:	2100      	moveq	r1, #0
 8000474:	4770      	bxeq	lr
 8000476:	b530      	push	{r4, r5, lr}
 8000478:	f44f 6480 	mov.w	r4, #1024	; 0x400
 800047c:	f104 0432 	add.w	r4, r4, #50	; 0x32
 8000480:	f010 4500 	ands.w	r5, r0, #2147483648	; 0x80000000
 8000484:	bf48      	it	mi
 8000486:	4240      	negmi	r0, r0
 8000488:	f04f 0100 	mov.w	r1, #0
 800048c:	e73e      	b.n	800030c <__adddf3+0x138>
 800048e:	bf00      	nop

08000490 <__aeabi_f2d>:
 8000490:	0042      	lsls	r2, r0, #1
 8000492:	ea4f 01e2 	mov.w	r1, r2, asr #3
 8000496:	ea4f 0131 	mov.w	r1, r1, rrx
 800049a:	ea4f 7002 	mov.w	r0, r2, lsl #28
 800049e:	bf1f      	itttt	ne
 80004a0:	f012 437f 	andsne.w	r3, r2, #4278190080	; 0xff000000
 80004a4:	f093 4f7f 	teqne	r3, #4278190080	; 0xff000000
 80004a8:	f081 5160 	eorne.w	r1, r1, #939524096	; 0x38000000
 80004ac:	4770      	bxne	lr
 80004ae:	f032 427f 	bics.w	r2, r2, #4278190080	; 0xff000000
 80004b2:	bf08      	it	eq
 80004b4:	4770      	bxeq	lr
 80004b6:	f093 4f7f 	teq	r3, #4278190080	; 0xff000000
 80004ba:	bf04      	itt	eq
 80004bc:	f441 2100 	orreq.w	r1, r1, #524288	; 0x80000
 80004c0:	4770      	bxeq	lr
 80004c2:	b530      	push	{r4, r5, lr}
 80004c4:	f44f 7460 	mov.w	r4, #896	; 0x380
 80004c8:	f001 4500 	and.w	r5, r1, #2147483648	; 0x80000000
 80004cc:	f021 4100 	bic.w	r1, r1, #2147483648	; 0x80000000
 80004d0:	e71c      	b.n	800030c <__adddf3+0x138>
 80004d2:	bf00      	nop

080004d4 <__aeabi_ul2d>:
 80004d4:	ea50 0201 	orrs.w	r2, r0, r1
 80004d8:	bf08      	it	eq
 80004da:	4770      	bxeq	lr
 80004dc:	b530      	push	{r4, r5, lr}
 80004de:	f04f 0500 	mov.w	r5, #0
 80004e2:	e00a      	b.n	80004fa <__aeabi_l2d+0x16>

080004e4 <__aeabi_l2d>:
 80004e4:	ea50 0201 	orrs.w	r2, r0, r1
 80004e8:	bf08      	it	eq
 80004ea:	4770      	bxeq	lr
 80004ec:	b530      	push	{r4, r5, lr}
 80004ee:	f011 4500 	ands.w	r5, r1, #2147483648	; 0x80000000
 80004f2:	d502      	bpl.n	80004fa <__aeabi_l2d+0x16>
 80004f4:	4240      	negs	r0, r0
 80004f6:	eb61 0141 	sbc.w	r1, r1, r1, lsl #1
 80004fa:	f44f 6480 	mov.w	r4, #1024	; 0x400
 80004fe:	f104 0432 	add.w	r4, r4, #50	; 0x32
 8000502:	ea5f 5c91 	movs.w	ip, r1, lsr #22
 8000506:	f43f aed8 	beq.w	80002ba <__adddf3+0xe6>
 800050a:	f04f 0203 	mov.w	r2, #3
 800050e:	ea5f 0cdc 	movs.w	ip, ip, lsr #3
 8000512:	bf18      	it	ne
 8000514:	3203      	addne	r2, #3
 8000516:	ea5f 0cdc 	movs.w	ip, ip, lsr #3
 800051a:	bf18      	it	ne
 800051c:	3203      	addne	r2, #3
 800051e:	eb02 02dc 	add.w	r2, r2, ip, lsr #3
 8000522:	f1c2 0320 	rsb	r3, r2, #32
 8000526:	fa00 fc03 	lsl.w	ip, r0, r3
 800052a:	fa20 f002 	lsr.w	r0, r0, r2
 800052e:	fa01 fe03 	lsl.w	lr, r1, r3
 8000532:	ea40 000e 	orr.w	r0, r0, lr
 8000536:	fa21 f102 	lsr.w	r1, r1, r2
 800053a:	4414      	add	r4, r2
 800053c:	e6bd      	b.n	80002ba <__adddf3+0xe6>
 800053e:	bf00      	nop

08000540 <__aeabi_dmul>:
 8000540:	b570      	push	{r4, r5, r6, lr}
 8000542:	f04f 0cff 	mov.w	ip, #255	; 0xff
 8000546:	f44c 6ce0 	orr.w	ip, ip, #1792	; 0x700
 800054a:	ea1c 5411 	ands.w	r4, ip, r1, lsr #20
 800054e:	bf1d      	ittte	ne
 8000550:	ea1c 5513 	andsne.w	r5, ip, r3, lsr #20
 8000554:	ea94 0f0c 	teqne	r4, ip
 8000558:	ea95 0f0c 	teqne	r5, ip
 800055c:	f000 f8de 	bleq	800071c <__aeabi_dmul+0x1dc>
 8000560:	442c      	add	r4, r5
 8000562:	ea81 0603 	eor.w	r6, r1, r3
 8000566:	ea21 514c 	bic.w	r1, r1, ip, lsl #21
 800056a:	ea23 534c 	bic.w	r3, r3, ip, lsl #21
 800056e:	ea50 3501 	orrs.w	r5, r0, r1, lsl #12
 8000572:	bf18      	it	ne
 8000574:	ea52 3503 	orrsne.w	r5, r2, r3, lsl #12
 8000578:	f441 1180 	orr.w	r1, r1, #1048576	; 0x100000
 800057c:	f443 1380 	orr.w	r3, r3, #1048576	; 0x100000
 8000580:	d038      	beq.n	80005f4 <__aeabi_dmul+0xb4>
 8000582:	fba0 ce02 	umull	ip, lr, r0, r2
 8000586:	f04f 0500 	mov.w	r5, #0
 800058a:	fbe1 e502 	umlal	lr, r5, r1, r2
 800058e:	f006 4200 	and.w	r2, r6, #2147483648	; 0x80000000
 8000592:	fbe0 e503 	umlal	lr, r5, r0, r3
 8000596:	f04f 0600 	mov.w	r6, #0
 800059a:	fbe1 5603 	umlal	r5, r6, r1, r3
 800059e:	f09c 0f00 	teq	ip, #0
 80005a2:	bf18      	it	ne
 80005a4:	f04e 0e01 	orrne.w	lr, lr, #1
 80005a8:	f1a4 04ff 	sub.w	r4, r4, #255	; 0xff
 80005ac:	f5b6 7f00 	cmp.w	r6, #512	; 0x200
 80005b0:	f564 7440 	sbc.w	r4, r4, #768	; 0x300
 80005b4:	d204      	bcs.n	80005c0 <__aeabi_dmul+0x80>
 80005b6:	ea5f 0e4e 	movs.w	lr, lr, lsl #1
 80005ba:	416d      	adcs	r5, r5
 80005bc:	eb46 0606 	adc.w	r6, r6, r6
 80005c0:	ea42 21c6 	orr.w	r1, r2, r6, lsl #11
 80005c4:	ea41 5155 	orr.w	r1, r1, r5, lsr #21
 80005c8:	ea4f 20c5 	mov.w	r0, r5, lsl #11
 80005cc:	ea40 505e 	orr.w	r0, r0, lr, lsr #21
 80005d0:	ea4f 2ece 	mov.w	lr, lr, lsl #11
 80005d4:	f1b4 0cfd 	subs.w	ip, r4, #253	; 0xfd
 80005d8:	bf88      	it	hi
 80005da:	f5bc 6fe0 	cmphi.w	ip, #1792	; 0x700
 80005de:	d81e      	bhi.n	800061e <__aeabi_dmul+0xde>
 80005e0:	f1be 4f00 	cmp.w	lr, #2147483648	; 0x80000000
 80005e4:	bf08      	it	eq
 80005e6:	ea5f 0e50 	movseq.w	lr, r0, lsr #1
 80005ea:	f150 0000 	adcs.w	r0, r0, #0
 80005ee:	eb41 5104 	adc.w	r1, r1, r4, lsl #20
 80005f2:	bd70      	pop	{r4, r5, r6, pc}
 80005f4:	f006 4600 	and.w	r6, r6, #2147483648	; 0x80000000
 80005f8:	ea46 0101 	orr.w	r1, r6, r1
 80005fc:	ea40 0002 	orr.w	r0, r0, r2
 8000600:	ea81 0103 	eor.w	r1, r1, r3
 8000604:	ebb4 045c 	subs.w	r4, r4, ip, lsr #1
 8000608:	bfc2      	ittt	gt
 800060a:	ebd4 050c 	rsbsgt	r5, r4, ip
 800060e:	ea41 5104 	orrgt.w	r1, r1, r4, lsl #20
 8000612:	bd70      	popgt	{r4, r5, r6, pc}
 8000614:	f441 1180 	orr.w	r1, r1, #1048576	; 0x100000
 8000618:	f04f 0e00 	mov.w	lr, #0
 800061c:	3c01      	subs	r4, #1
 800061e:	f300 80ab 	bgt.w	8000778 <__aeabi_dmul+0x238>
 8000622:	f114 0f36 	cmn.w	r4, #54	; 0x36
 8000626:	bfde      	ittt	le
 8000628:	2000      	movle	r0, #0
 800062a:	f001 4100 	andle.w	r1, r1, #2147483648	; 0x80000000
 800062e:	bd70      	pople	{r4, r5, r6, pc}
 8000630:	f1c4 0400 	rsb	r4, r4, #0
 8000634:	3c20      	subs	r4, #32
 8000636:	da35      	bge.n	80006a4 <__aeabi_dmul+0x164>
 8000638:	340c      	adds	r4, #12
 800063a:	dc1b      	bgt.n	8000674 <__aeabi_dmul+0x134>
 800063c:	f104 0414 	add.w	r4, r4, #20
 8000640:	f1c4 0520 	rsb	r5, r4, #32
 8000644:	fa00 f305 	lsl.w	r3, r0, r5
 8000648:	fa20 f004 	lsr.w	r0, r0, r4
 800064c:	fa01 f205 	lsl.w	r2, r1, r5
 8000650:	ea40 0002 	orr.w	r0, r0, r2
 8000654:	f001 4200 	and.w	r2, r1, #2147483648	; 0x80000000
 8000658:	f021 4100 	bic.w	r1, r1, #2147483648	; 0x80000000
 800065c:	eb10 70d3 	adds.w	r0, r0, r3, lsr #31
 8000660:	fa21 f604 	lsr.w	r6, r1, r4
 8000664:	eb42 0106 	adc.w	r1, r2, r6
 8000668:	ea5e 0e43 	orrs.w	lr, lr, r3, lsl #1
 800066c:	bf08      	it	eq
 800066e:	ea20 70d3 	biceq.w	r0, r0, r3, lsr #31
 8000672:	bd70      	pop	{r4, r5, r6, pc}
 8000674:	f1c4 040c 	rsb	r4, r4, #12
 8000678:	f1c4 0520 	rsb	r5, r4, #32
 800067c:	fa00 f304 	lsl.w	r3, r0, r4
 8000680:	fa20 f005 	lsr.w	r0, r0, r5
 8000684:	fa01 f204 	lsl.w	r2, r1, r4
 8000688:	ea40 0002 	orr.w	r0, r0, r2
 800068c:	f001 4100 	and.w	r1, r1, #2147483648	; 0x80000000
 8000690:	eb10 70d3 	adds.w	r0, r0, r3, lsr #31
 8000694:	f141 0100 	adc.w	r1, r1, #0
 8000698:	ea5e 0e43 	orrs.w	lr, lr, r3, lsl #1
 800069c:	bf08      	it	eq
 800069e:	ea20 70d3 	biceq.w	r0, r0, r3, lsr #31
 80006a2:	bd70      	pop	{r4, r5, r6, pc}
 80006a4:	f1c4 0520 	rsb	r5, r4, #32
 80006a8:	fa00 f205 	lsl.w	r2, r0, r5
 80006ac:	ea4e 0e02 	orr.w	lr, lr, r2
 80006b0:	fa20 f304 	lsr.w	r3, r0, r4
 80006b4:	fa01 f205 	lsl.w	r2, r1, r5
 80006b8:	ea43 0302 	orr.w	r3, r3, r2
 80006bc:	fa21 f004 	lsr.w	r0, r1, r4
 80006c0:	f001 4100 	and.w	r1, r1, #2147483648	; 0x80000000
 80006c4:	fa21 f204 	lsr.w	r2, r1, r4
 80006c8:	ea20 0002 	bic.w	r0, r0, r2
 80006cc:	eb00 70d3 	add.w	r0, r0, r3, lsr #31
 80006d0:	ea5e 0e43 	orrs.w	lr, lr, r3, lsl #1
 80006d4:	bf08      	it	eq
 80006d6:	ea20 70d3 	biceq.w	r0, r0, r3, lsr #31
 80006da:	bd70      	pop	{r4, r5, r6, pc}
 80006dc:	f094 0f00 	teq	r4, #0
 80006e0:	d10f      	bne.n	8000702 <__aeabi_dmul+0x1c2>
 80006e2:	f001 4600 	and.w	r6, r1, #2147483648	; 0x80000000
 80006e6:	0040      	lsls	r0, r0, #1
 80006e8:	eb41 0101 	adc.w	r1, r1, r1
 80006ec:	f411 1f80 	tst.w	r1, #1048576	; 0x100000
 80006f0:	bf08      	it	eq
 80006f2:	3c01      	subeq	r4, #1
 80006f4:	d0f7      	beq.n	80006e6 <__aeabi_dmul+0x1a6>
 80006f6:	ea41 0106 	orr.w	r1, r1, r6
 80006fa:	f095 0f00 	teq	r5, #0
 80006fe:	bf18      	it	ne
 8000700:	4770      	bxne	lr
 8000702:	f003 4600 	and.w	r6, r3, #2147483648	; 0x80000000
 8000706:	0052      	lsls	r2, r2, #1
 8000708:	eb43 0303 	adc.w	r3, r3, r3
 800070c:	f413 1f80 	tst.w	r3, #1048576	; 0x100000
 8000710:	bf08      	it	eq
 8000712:	3d01      	subeq	r5, #1
 8000714:	d0f7      	beq.n	8000706 <__aeabi_dmul+0x1c6>
 8000716:	ea43 0306 	orr.w	r3, r3, r6
 800071a:	4770      	bx	lr
 800071c:	ea94 0f0c 	teq	r4, ip
 8000720:	ea0c 5513 	and.w	r5, ip, r3, lsr #20
 8000724:	bf18      	it	ne
 8000726:	ea95 0f0c 	teqne	r5, ip
 800072a:	d00c      	beq.n	8000746 <__aeabi_dmul+0x206>
 800072c:	ea50 0641 	orrs.w	r6, r0, r1, lsl #1
 8000730:	bf18      	it	ne
 8000732:	ea52 0643 	orrsne.w	r6, r2, r3, lsl #1
 8000736:	d1d1      	bne.n	80006dc <__aeabi_dmul+0x19c>
 8000738:	ea81 0103 	eor.w	r1, r1, r3
 800073c:	f001 4100 	and.w	r1, r1, #2147483648	; 0x80000000
 8000740:	f04f 0000 	mov.w	r0, #0
 8000744:	bd70      	pop	{r4, r5, r6, pc}
 8000746:	ea50 0641 	orrs.w	r6, r0, r1, lsl #1
 800074a:	bf06      	itte	eq
 800074c:	4610      	moveq	r0, r2
 800074e:	4619      	moveq	r1, r3
 8000750:	ea52 0643 	orrsne.w	r6, r2, r3, lsl #1
 8000754:	d019      	beq.n	800078a <__aeabi_dmul+0x24a>
 8000756:	ea94 0f0c 	teq	r4, ip
 800075a:	d102      	bne.n	8000762 <__aeabi_dmul+0x222>
 800075c:	ea50 3601 	orrs.w	r6, r0, r1, lsl #12
 8000760:	d113      	bne.n	800078a <__aeabi_dmul+0x24a>
 8000762:	ea95 0f0c 	teq	r5, ip
 8000766:	d105      	bne.n	8000774 <__aeabi_dmul+0x234>
 8000768:	ea52 3603 	orrs.w	r6, r2, r3, lsl #12
 800076c:	bf1c      	itt	ne
 800076e:	4610      	movne	r0, r2
 8000770:	4619      	movne	r1, r3
 8000772:	d10a      	bne.n	800078a <__aeabi_dmul+0x24a>
 8000774:	ea81 0103 	eor.w	r1, r1, r3
 8000778:	f001 4100 	and.w	r1, r1, #2147483648	; 0x80000000
 800077c:	f041 41fe 	orr.w	r1, r1, #2130706432	; 0x7f000000
 8000780:	f441 0170 	orr.w	r1, r1, #15728640	; 0xf00000
 8000784:	f04f 0000 	mov.w	r0, #0
 8000788:	bd70      	pop	{r4, r5, r6, pc}
 800078a:	f041 41fe 	orr.w	r1, r1, #2130706432	; 0x7f000000
 800078e:	f441 0178 	orr.w	r1, r1, #16252928	; 0xf80000
 8000792:	bd70      	pop	{r4, r5, r6, pc}

08000794 <__aeabi_ddiv>:
 8000794:	b570      	push	{r4, r5, r6, lr}
 8000796:	f04f 0cff 	mov.w	ip, #255	; 0xff
 800079a:	f44c 6ce0 	orr.w	ip, ip, #1792	; 0x700
 800079e:	ea1c 5411 	ands.w	r4, ip, r1, lsr #20
 80007a2:	bf1d      	ittte	ne
 80007a4:	ea1c 5513 	andsne.w	r5, ip, r3, lsr #20
 80007a8:	ea94 0f0c 	teqne	r4, ip
 80007ac:	ea95 0f0c 	teqne	r5, ip
 80007b0:	f000 f8a7 	bleq	8000902 <__aeabi_ddiv+0x16e>
 80007b4:	eba4 0405 	sub.w	r4, r4, r5
 80007b8:	ea81 0e03 	eor.w	lr, r1, r3
 80007bc:	ea52 3503 	orrs.w	r5, r2, r3, lsl #12
 80007c0:	ea4f 3101 	mov.w	r1, r1, lsl #12
 80007c4:	f000 8088 	beq.w	80008d8 <__aeabi_ddiv+0x144>
 80007c8:	ea4f 3303 	mov.w	r3, r3, lsl #12
 80007cc:	f04f 5580 	mov.w	r5, #268435456	; 0x10000000
 80007d0:	ea45 1313 	orr.w	r3, r5, r3, lsr #4
 80007d4:	ea43 6312 	orr.w	r3, r3, r2, lsr #24
 80007d8:	ea4f 2202 	mov.w	r2, r2, lsl #8
 80007dc:	ea45 1511 	orr.w	r5, r5, r1, lsr #4
 80007e0:	ea45 6510 	orr.w	r5, r5, r0, lsr #24
 80007e4:	ea4f 2600 	mov.w	r6, r0, lsl #8
 80007e8:	f00e 4100 	and.w	r1, lr, #2147483648	; 0x80000000
 80007ec:	429d      	cmp	r5, r3
 80007ee:	bf08      	it	eq
 80007f0:	4296      	cmpeq	r6, r2
 80007f2:	f144 04fd 	adc.w	r4, r4, #253	; 0xfd
 80007f6:	f504 7440 	add.w	r4, r4, #768	; 0x300
 80007fa:	d202      	bcs.n	8000802 <__aeabi_ddiv+0x6e>
 80007fc:	085b      	lsrs	r3, r3, #1
 80007fe:	ea4f 0232 	mov.w	r2, r2, rrx
 8000802:	1ab6      	subs	r6, r6, r2
 8000804:	eb65 0503 	sbc.w	r5, r5, r3
 8000808:	085b      	lsrs	r3, r3, #1
 800080a:	ea4f 0232 	mov.w	r2, r2, rrx
 800080e:	f44f 1080 	mov.w	r0, #1048576	; 0x100000
 8000812:	f44f 2c00 	mov.w	ip, #524288	; 0x80000
 8000816:	ebb6 0e02 	subs.w	lr, r6, r2
 800081a:	eb75 0e03 	sbcs.w	lr, r5, r3
 800081e:	bf22      	ittt	cs
 8000820:	1ab6      	subcs	r6, r6, r2
 8000822:	4675      	movcs	r5, lr
 8000824:	ea40 000c 	orrcs.w	r0, r0, ip
 8000828:	085b      	lsrs	r3, r3, #1
 800082a:	ea4f 0232 	mov.w	r2, r2, rrx
 800082e:	ebb6 0e02 	subs.w	lr, r6, r2
 8000832:	eb75 0e03 	sbcs.w	lr, r5, r3
 8000836:	bf22      	ittt	cs
 8000838:	1ab6      	subcs	r6, r6, r2
 800083a:	4675      	movcs	r5, lr
 800083c:	ea40 005c 	orrcs.w	r0, r0, ip, lsr #1
 8000840:	085b      	lsrs	r3, r3, #1
 8000842:	ea4f 0232 	mov.w	r2, r2, rrx
 8000846:	ebb6 0e02 	subs.w	lr, r6, r2
 800084a:	eb75 0e03 	sbcs.w	lr, r5, r3
 800084e:	bf22      	ittt	cs
 8000850:	1ab6      	subcs	r6, r6, r2
 8000852:	4675      	movcs	r5, lr
 8000854:	ea40 009c 	orrcs.w	r0, r0, ip, lsr #2
 8000858:	085b      	lsrs	r3, r3, #1
 800085a:	ea4f 0232 	mov.w	r2, r2, rrx
 800085e:	ebb6 0e02 	subs.w	lr, r6, r2
 8000862:	eb75 0e03 	sbcs.w	lr, r5, r3
 8000866:	bf22      	ittt	cs
 8000868:	1ab6      	subcs	r6, r6, r2
 800086a:	4675      	movcs	r5, lr
 800086c:	ea40 00dc 	orrcs.w	r0, r0, ip, lsr #3
 8000870:	ea55 0e06 	orrs.w	lr, r5, r6
 8000874:	d018      	beq.n	80008a8 <__aeabi_ddiv+0x114>
 8000876:	ea4f 1505 	mov.w	r5, r5, lsl #4
 800087a:	ea45 7516 	orr.w	r5, r5, r6, lsr #28
 800087e:	ea4f 1606 	mov.w	r6, r6, lsl #4
 8000882:	ea4f 03c3 	mov.w	r3, r3, lsl #3
 8000886:	ea43 7352 	orr.w	r3, r3, r2, lsr #29
 800088a:	ea4f 02c2 	mov.w	r2, r2, lsl #3
 800088e:	ea5f 1c1c 	movs.w	ip, ip, lsr #4
 8000892:	d1c0      	bne.n	8000816 <__aeabi_ddiv+0x82>
 8000894:	f411 1f80 	tst.w	r1, #1048576	; 0x100000
 8000898:	d10b      	bne.n	80008b2 <__aeabi_ddiv+0x11e>
 800089a:	ea41 0100 	orr.w	r1, r1, r0
 800089e:	f04f 0000 	mov.w	r0, #0
 80008a2:	f04f 4c00 	mov.w	ip, #2147483648	; 0x80000000
 80008a6:	e7b6      	b.n	8000816 <__aeabi_ddiv+0x82>
 80008a8:	f411 1f80 	tst.w	r1, #1048576	; 0x100000
 80008ac:	bf04      	itt	eq
 80008ae:	4301      	orreq	r1, r0
 80008b0:	2000      	moveq	r0, #0
 80008b2:	f1b4 0cfd 	subs.w	ip, r4, #253	; 0xfd
 80008b6:	bf88      	it	hi
 80008b8:	f5bc 6fe0 	cmphi.w	ip, #1792	; 0x700
 80008bc:	f63f aeaf 	bhi.w	800061e <__aeabi_dmul+0xde>
 80008c0:	ebb5 0c03 	subs.w	ip, r5, r3
 80008c4:	bf04      	itt	eq
 80008c6:	ebb6 0c02 	subseq.w	ip, r6, r2
 80008ca:	ea5f 0c50 	movseq.w	ip, r0, lsr #1
 80008ce:	f150 0000 	adcs.w	r0, r0, #0
 80008d2:	eb41 5104 	adc.w	r1, r1, r4, lsl #20
 80008d6:	bd70      	pop	{r4, r5, r6, pc}
 80008d8:	f00e 4e00 	and.w	lr, lr, #2147483648	; 0x80000000
 80008dc:	ea4e 3111 	orr.w	r1, lr, r1, lsr #12
 80008e0:	eb14 045c 	adds.w	r4, r4, ip, lsr #1
 80008e4:	bfc2      	ittt	gt
 80008e6:	ebd4 050c 	rsbsgt	r5, r4, ip
 80008ea:	ea41 5104 	orrgt.w	r1, r1, r4, lsl #20
 80008ee:	bd70      	popgt	{r4, r5, r6, pc}
 80008f0:	f441 1180 	orr.w	r1, r1, #1048576	; 0x100000
 80008f4:	f04f 0e00 	mov.w	lr, #0
 80008f8:	3c01      	subs	r4, #1
 80008fa:	e690      	b.n	800061e <__aeabi_dmul+0xde>
 80008fc:	ea45 0e06 	orr.w	lr, r5, r6
 8000900:	e68d      	b.n	800061e <__aeabi_dmul+0xde>
 8000902:	ea0c 5513 	and.w	r5, ip, r3, lsr #20
 8000906:	ea94 0f0c 	teq	r4, ip
 800090a:	bf08      	it	eq
 800090c:	ea95 0f0c 	teqeq	r5, ip
 8000910:	f43f af3b 	beq.w	800078a <__aeabi_dmul+0x24a>
 8000914:	ea94 0f0c 	teq	r4, ip
 8000918:	d10a      	bne.n	8000930 <__aeabi_ddiv+0x19c>
 800091a:	ea50 3401 	orrs.w	r4, r0, r1, lsl #12
 800091e:	f47f af34 	bne.w	800078a <__aeabi_dmul+0x24a>
 8000922:	ea95 0f0c 	teq	r5, ip
 8000926:	f47f af25 	bne.w	8000774 <__aeabi_dmul+0x234>
 800092a:	4610      	mov	r0, r2
 800092c:	4619      	mov	r1, r3
 800092e:	e72c      	b.n	800078a <__aeabi_dmul+0x24a>
 8000930:	ea95 0f0c 	teq	r5, ip
 8000934:	d106      	bne.n	8000944 <__aeabi_ddiv+0x1b0>
 8000936:	ea52 3503 	orrs.w	r5, r2, r3, lsl #12
 800093a:	f43f aefd 	beq.w	8000738 <__aeabi_dmul+0x1f8>
 800093e:	4610      	mov	r0, r2
 8000940:	4619      	mov	r1, r3
 8000942:	e722      	b.n	800078a <__aeabi_dmul+0x24a>
 8000944:	ea50 0641 	orrs.w	r6, r0, r1, lsl #1
 8000948:	bf18      	it	ne
 800094a:	ea52 0643 	orrsne.w	r6, r2, r3, lsl #1
 800094e:	f47f aec5 	bne.w	80006dc <__aeabi_dmul+0x19c>
 8000952:	ea50 0441 	orrs.w	r4, r0, r1, lsl #1
 8000956:	f47f af0d 	bne.w	8000774 <__aeabi_dmul+0x234>
 800095a:	ea52 0543 	orrs.w	r5, r2, r3, lsl #1
 800095e:	f47f aeeb 	bne.w	8000738 <__aeabi_dmul+0x1f8>
 8000962:	e712      	b.n	800078a <__aeabi_dmul+0x24a>

08000964 <__gedf2>:
 8000964:	f04f 3cff 	mov.w	ip, #4294967295
 8000968:	e006      	b.n	8000978 <__cmpdf2+0x4>
 800096a:	bf00      	nop

0800096c <__ledf2>:
 800096c:	f04f 0c01 	mov.w	ip, #1
 8000970:	e002      	b.n	8000978 <__cmpdf2+0x4>
 8000972:	bf00      	nop

08000974 <__cmpdf2>:
 8000974:	f04f 0c01 	mov.w	ip, #1
 8000978:	f84d cd04 	str.w	ip, [sp, #-4]!
 800097c:	ea4f 0c41 	mov.w	ip, r1, lsl #1
 8000980:	ea7f 5c6c 	mvns.w	ip, ip, asr #21
 8000984:	ea4f 0c43 	mov.w	ip, r3, lsl #1
 8000988:	bf18      	it	ne
 800098a:	ea7f 5c6c 	mvnsne.w	ip, ip, asr #21
 800098e:	d01b      	beq.n	80009c8 <__cmpdf2+0x54>
 8000990:	b001      	add	sp, #4
 8000992:	ea50 0c41 	orrs.w	ip, r0, r1, lsl #1
 8000996:	bf0c      	ite	eq
 8000998:	ea52 0c43 	orrseq.w	ip, r2, r3, lsl #1
 800099c:	ea91 0f03 	teqne	r1, r3
 80009a0:	bf02      	ittt	eq
 80009a2:	ea90 0f02 	teqeq	r0, r2
 80009a6:	2000      	moveq	r0, #0
 80009a8:	4770      	bxeq	lr
 80009aa:	f110 0f00 	cmn.w	r0, #0
 80009ae:	ea91 0f03 	teq	r1, r3
 80009b2:	bf58      	it	pl
 80009b4:	4299      	cmppl	r1, r3
 80009b6:	bf08      	it	eq
 80009b8:	4290      	cmpeq	r0, r2
 80009ba:	bf2c      	ite	cs
 80009bc:	17d8      	asrcs	r0, r3, #31
 80009be:	ea6f 70e3 	mvncc.w	r0, r3, asr #31
 80009c2:	f040 0001 	orr.w	r0, r0, #1
 80009c6:	4770      	bx	lr
 80009c8:	ea4f 0c41 	mov.w	ip, r1, lsl #1
 80009cc:	ea7f 5c6c 	mvns.w	ip, ip, asr #21
 80009d0:	d102      	bne.n	80009d8 <__cmpdf2+0x64>
 80009d2:	ea50 3c01 	orrs.w	ip, r0, r1, lsl #12
 80009d6:	d107      	bne.n	80009e8 <__cmpdf2+0x74>
 80009d8:	ea4f 0c43 	mov.w	ip, r3, lsl #1
 80009dc:	ea7f 5c6c 	mvns.w	ip, ip, asr #21
 80009e0:	d1d6      	bne.n	8000990 <__cmpdf2+0x1c>
 80009e2:	ea52 3c03 	orrs.w	ip, r2, r3, lsl #12
 80009e6:	d0d3      	beq.n	8000990 <__cmpdf2+0x1c>
 80009e8:	f85d 0b04 	ldr.w	r0, [sp], #4
 80009ec:	4770      	bx	lr
 80009ee:	bf00      	nop

080009f0 <__aeabi_cdrcmple>:
 80009f0:	4684      	mov	ip, r0
 80009f2:	4610      	mov	r0, r2
 80009f4:	4662      	mov	r2, ip
 80009f6:	468c      	mov	ip, r1
 80009f8:	4619      	mov	r1, r3
 80009fa:	4663      	mov	r3, ip
 80009fc:	e000      	b.n	8000a00 <__aeabi_cdcmpeq>
 80009fe:	bf00      	nop

08000a00 <__aeabi_cdcmpeq>:
 8000a00:	b501      	push	{r0, lr}
 8000a02:	f7ff ffb7 	bl	8000974 <__cmpdf2>
 8000a06:	2800      	cmp	r0, #0
 8000a08:	bf48      	it	mi
 8000a0a:	f110 0f00 	cmnmi.w	r0, #0
 8000a0e:	bd01      	pop	{r0, pc}

08000a10 <__aeabi_dcmpeq>:
 8000a10:	f84d ed08 	str.w	lr, [sp, #-8]!
 8000a14:	f7ff fff4 	bl	8000a00 <__aeabi_cdcmpeq>
 8000a18:	bf0c      	ite	eq
 8000a1a:	2001      	moveq	r0, #1
 8000a1c:	2000      	movne	r0, #0
 8000a1e:	f85d fb08 	ldr.w	pc, [sp], #8
 8000a22:	bf00      	nop

08000a24 <__aeabi_dcmplt>:
 8000a24:	f84d ed08 	str.w	lr, [sp, #-8]!
 8000a28:	f7ff ffea 	bl	8000a00 <__aeabi_cdcmpeq>
 8000a2c:	bf34      	ite	cc
 8000a2e:	2001      	movcc	r0, #1
 8000a30:	2000      	movcs	r0, #0
 8000a32:	f85d fb08 	ldr.w	pc, [sp], #8
 8000a36:	bf00      	nop

08000a38 <__aeabi_dcmple>:
 8000a38:	f84d ed08 	str.w	lr, [sp, #-8]!
 8000a3c:	f7ff ffe0 	bl	8000a00 <__aeabi_cdcmpeq>
 8000a40:	bf94      	ite	ls
 8000a42:	2001      	movls	r0, #1
 8000a44:	2000      	movhi	r0, #0
 8000a46:	f85d fb08 	ldr.w	pc, [sp], #8
 8000a4a:	bf00      	nop

08000a4c <__aeabi_dcmpge>:
 8000a4c:	f84d ed08 	str.w	lr, [sp, #-8]!
 8000a50:	f7ff ffce 	bl	80009f0 <__aeabi_cdrcmple>
 8000a54:	bf94      	ite	ls
 8000a56:	2001      	movls	r0, #1
 8000a58:	2000      	movhi	r0, #0
 8000a5a:	f85d fb08 	ldr.w	pc, [sp], #8
 8000a5e:	bf00      	nop

08000a60 <__aeabi_dcmpgt>:
 8000a60:	f84d ed08 	str.w	lr, [sp, #-8]!
 8000a64:	f7ff ffc4 	bl	80009f0 <__aeabi_cdrcmple>
 8000a68:	bf34      	ite	cc
 8000a6a:	2001      	movcc	r0, #1
 8000a6c:	2000      	movcs	r0, #0
 8000a6e:	f85d fb08 	ldr.w	pc, [sp], #8
 8000a72:	bf00      	nop

08000a74 <__aeabi_dcmpun>:
 8000a74:	ea4f 0c41 	mov.w	ip, r1, lsl #1
 8000a78:	ea7f 5c6c 	mvns.w	ip, ip, asr #21
 8000a7c:	d102      	bne.n	8000a84 <__aeabi_dcmpun+0x10>
 8000a7e:	ea50 3c01 	orrs.w	ip, r0, r1, lsl #12
 8000a82:	d10a      	bne.n	8000a9a <__aeabi_dcmpun+0x26>
 8000a84:	ea4f 0c43 	mov.w	ip, r3, lsl #1
 8000a88:	ea7f 5c6c 	mvns.w	ip, ip, asr #21
 8000a8c:	d102      	bne.n	8000a94 <__aeabi_dcmpun+0x20>
 8000a8e:	ea52 3c03 	orrs.w	ip, r2, r3, lsl #12
 8000a92:	d102      	bne.n	8000a9a <__aeabi_dcmpun+0x26>
 8000a94:	f04f 0000 	mov.w	r0, #0
 8000a98:	4770      	bx	lr
 8000a9a:	f04f 0001 	mov.w	r0, #1
 8000a9e:	4770      	bx	lr

08000aa0 <__aeabi_d2iz>:
 8000aa0:	ea4f 0241 	mov.w	r2, r1, lsl #1
 8000aa4:	f512 1200 	adds.w	r2, r2, #2097152	; 0x200000
 8000aa8:	d215      	bcs.n	8000ad6 <__aeabi_d2iz+0x36>
 8000aaa:	d511      	bpl.n	8000ad0 <__aeabi_d2iz+0x30>
 8000aac:	f46f 7378 	mvn.w	r3, #992	; 0x3e0
 8000ab0:	ebb3 5262 	subs.w	r2, r3, r2, asr #21
 8000ab4:	d912      	bls.n	8000adc <__aeabi_d2iz+0x3c>
 8000ab6:	ea4f 23c1 	mov.w	r3, r1, lsl #11
 8000aba:	f043 4300 	orr.w	r3, r3, #2147483648	; 0x80000000
 8000abe:	ea43 5350 	orr.w	r3, r3, r0, lsr #21
 8000ac2:	f011 4f00 	tst.w	r1, #2147483648	; 0x80000000
 8000ac6:	fa23 f002 	lsr.w	r0, r3, r2
 8000aca:	bf18      	it	ne
 8000acc:	4240      	negne	r0, r0
 8000ace:	4770      	bx	lr
 8000ad0:	f04f 0000 	mov.w	r0, #0
 8000ad4:	4770      	bx	lr
 8000ad6:	ea50 3001 	orrs.w	r0, r0, r1, lsl #12
 8000ada:	d105      	bne.n	8000ae8 <__aeabi_d2iz+0x48>
 8000adc:	f011 4000 	ands.w	r0, r1, #2147483648	; 0x80000000
 8000ae0:	bf08      	it	eq
 8000ae2:	f06f 4000 	mvneq.w	r0, #2147483648	; 0x80000000
 8000ae6:	4770      	bx	lr
 8000ae8:	f04f 0000 	mov.w	r0, #0
 8000aec:	4770      	bx	lr
 8000aee:	bf00      	nop

08000af0 <__aeabi_d2f>:
 8000af0:	ea4f 0241 	mov.w	r2, r1, lsl #1
 8000af4:	f1b2 43e0 	subs.w	r3, r2, #1879048192	; 0x70000000
 8000af8:	bf24      	itt	cs
 8000afa:	f5b3 1c00 	subscs.w	ip, r3, #2097152	; 0x200000
 8000afe:	f1dc 5cfe 	rsbscs	ip, ip, #532676608	; 0x1fc00000
 8000b02:	d90d      	bls.n	8000b20 <__aeabi_d2f+0x30>
 8000b04:	f001 4c00 	and.w	ip, r1, #2147483648	; 0x80000000
 8000b08:	ea4f 02c0 	mov.w	r2, r0, lsl #3
 8000b0c:	ea4c 7050 	orr.w	r0, ip, r0, lsr #29
 8000b10:	f1b2 4f00 	cmp.w	r2, #2147483648	; 0x80000000
 8000b14:	eb40 0083 	adc.w	r0, r0, r3, lsl #2
 8000b18:	bf08      	it	eq
 8000b1a:	f020 0001 	biceq.w	r0, r0, #1
 8000b1e:	4770      	bx	lr
 8000b20:	f011 4f80 	tst.w	r1, #1073741824	; 0x40000000
 8000b24:	d121      	bne.n	8000b6a <__aeabi_d2f+0x7a>
 8000b26:	f113 7238 	adds.w	r2, r3, #48234496	; 0x2e00000
 8000b2a:	bfbc      	itt	lt
 8000b2c:	f001 4000 	andlt.w	r0, r1, #2147483648	; 0x80000000
 8000b30:	4770      	bxlt	lr
 8000b32:	f441 1180 	orr.w	r1, r1, #1048576	; 0x100000
 8000b36:	ea4f 5252 	mov.w	r2, r2, lsr #21
 8000b3a:	f1c2 0218 	rsb	r2, r2, #24
 8000b3e:	f1c2 0c20 	rsb	ip, r2, #32
 8000b42:	fa10 f30c 	lsls.w	r3, r0, ip
 8000b46:	fa20 f002 	lsr.w	r0, r0, r2
 8000b4a:	bf18      	it	ne
 8000b4c:	f040 0001 	orrne.w	r0, r0, #1
 8000b50:	ea4f 23c1 	mov.w	r3, r1, lsl #11
 8000b54:	ea4f 23d3 	mov.w	r3, r3, lsr #11
 8000b58:	fa03 fc0c 	lsl.w	ip, r3, ip
 8000b5c:	ea40 000c 	orr.w	r0, r0, ip
 8000b60:	fa23 f302 	lsr.w	r3, r3, r2
 8000b64:	ea4f 0343 	mov.w	r3, r3, lsl #1
 8000b68:	e7cc      	b.n	8000b04 <__aeabi_d2f+0x14>
 8000b6a:	ea7f 5362 	mvns.w	r3, r2, asr #21
 8000b6e:	d107      	bne.n	8000b80 <__aeabi_d2f+0x90>
 8000b70:	ea50 3301 	orrs.w	r3, r0, r1, lsl #12
 8000b74:	bf1e      	ittt	ne
 8000b76:	f04f 40fe 	movne.w	r0, #2130706432	; 0x7f000000
 8000b7a:	f440 0040 	orrne.w	r0, r0, #12582912	; 0xc00000
 8000b7e:	4770      	bxne	lr
 8000b80:	f001 4000 	and.w	r0, r1, #2147483648	; 0x80000000
 8000b84:	f040 40fe 	orr.w	r0, r0, #2130706432	; 0x7f000000
 8000b88:	f440 0000 	orr.w	r0, r0, #8388608	; 0x800000
 8000b8c:	4770      	bx	lr
 8000b8e:	bf00      	nop

08000b90 <__aeabi_uldivmod>:
 8000b90:	b953      	cbnz	r3, 8000ba8 <__aeabi_uldivmod+0x18>
 8000b92:	b94a      	cbnz	r2, 8000ba8 <__aeabi_uldivmod+0x18>
 8000b94:	2900      	cmp	r1, #0
 8000b96:	bf08      	it	eq
 8000b98:	2800      	cmpeq	r0, #0
 8000b9a:	bf1c      	itt	ne
 8000b9c:	f04f 31ff 	movne.w	r1, #4294967295
 8000ba0:	f04f 30ff 	movne.w	r0, #4294967295
 8000ba4:	f000 b972 	b.w	8000e8c <__aeabi_idiv0>
 8000ba8:	f1ad 0c08 	sub.w	ip, sp, #8
 8000bac:	e96d ce04 	strd	ip, lr, [sp, #-16]!
 8000bb0:	f000 f806 	bl	8000bc0 <__udivmoddi4>
 8000bb4:	f8dd e004 	ldr.w	lr, [sp, #4]
 8000bb8:	e9dd 2302 	ldrd	r2, r3, [sp, #8]
 8000bbc:	b004      	add	sp, #16
 8000bbe:	4770      	bx	lr

08000bc0 <__udivmoddi4>:
 8000bc0:	e92d 47f0 	stmdb	sp!, {r4, r5, r6, r7, r8, r9, sl, lr}
 8000bc4:	9e08      	ldr	r6, [sp, #32]
 8000bc6:	4604      	mov	r4, r0
 8000bc8:	4688      	mov	r8, r1
 8000bca:	2b00      	cmp	r3, #0
 8000bcc:	d14b      	bne.n	8000c66 <__udivmoddi4+0xa6>
 8000bce:	428a      	cmp	r2, r1
 8000bd0:	4615      	mov	r5, r2
 8000bd2:	d967      	bls.n	8000ca4 <__udivmoddi4+0xe4>
 8000bd4:	fab2 f282 	clz	r2, r2
 8000bd8:	b14a      	cbz	r2, 8000bee <__udivmoddi4+0x2e>
 8000bda:	f1c2 0720 	rsb	r7, r2, #32
 8000bde:	fa01 f302 	lsl.w	r3, r1, r2
 8000be2:	fa20 f707 	lsr.w	r7, r0, r7
 8000be6:	4095      	lsls	r5, r2
 8000be8:	ea47 0803 	orr.w	r8, r7, r3
 8000bec:	4094      	lsls	r4, r2
 8000bee:	ea4f 4e15 	mov.w	lr, r5, lsr #16
 8000bf2:	0c23      	lsrs	r3, r4, #16
 8000bf4:	fbb8 f7fe 	udiv	r7, r8, lr
 8000bf8:	fa1f fc85 	uxth.w	ip, r5
 8000bfc:	fb0e 8817 	mls	r8, lr, r7, r8
 8000c00:	ea43 4308 	orr.w	r3, r3, r8, lsl #16
 8000c04:	fb07 f10c 	mul.w	r1, r7, ip
 8000c08:	4299      	cmp	r1, r3
 8000c0a:	d909      	bls.n	8000c20 <__udivmoddi4+0x60>
 8000c0c:	18eb      	adds	r3, r5, r3
 8000c0e:	f107 30ff 	add.w	r0, r7, #4294967295
 8000c12:	f080 811b 	bcs.w	8000e4c <__udivmoddi4+0x28c>
 8000c16:	4299      	cmp	r1, r3
 8000c18:	f240 8118 	bls.w	8000e4c <__udivmoddi4+0x28c>
 8000c1c:	3f02      	subs	r7, #2
 8000c1e:	442b      	add	r3, r5
 8000c20:	1a5b      	subs	r3, r3, r1
 8000c22:	b2a4      	uxth	r4, r4
 8000c24:	fbb3 f0fe 	udiv	r0, r3, lr
 8000c28:	fb0e 3310 	mls	r3, lr, r0, r3
 8000c2c:	ea44 4403 	orr.w	r4, r4, r3, lsl #16
 8000c30:	fb00 fc0c 	mul.w	ip, r0, ip
 8000c34:	45a4      	cmp	ip, r4
 8000c36:	d909      	bls.n	8000c4c <__udivmoddi4+0x8c>
 8000c38:	192c      	adds	r4, r5, r4
 8000c3a:	f100 33ff 	add.w	r3, r0, #4294967295
 8000c3e:	f080 8107 	bcs.w	8000e50 <__udivmoddi4+0x290>
 8000c42:	45a4      	cmp	ip, r4
 8000c44:	f240 8104 	bls.w	8000e50 <__udivmoddi4+0x290>
 8000c48:	3802      	subs	r0, #2
 8000c4a:	442c      	add	r4, r5
 8000c4c:	ea40 4007 	orr.w	r0, r0, r7, lsl #16
 8000c50:	eba4 040c 	sub.w	r4, r4, ip
 8000c54:	2700      	movs	r7, #0
 8000c56:	b11e      	cbz	r6, 8000c60 <__udivmoddi4+0xa0>
 8000c58:	40d4      	lsrs	r4, r2
 8000c5a:	2300      	movs	r3, #0
 8000c5c:	e9c6 4300 	strd	r4, r3, [r6]
 8000c60:	4639      	mov	r1, r7
 8000c62:	e8bd 87f0 	ldmia.w	sp!, {r4, r5, r6, r7, r8, r9, sl, pc}
 8000c66:	428b      	cmp	r3, r1
 8000c68:	d909      	bls.n	8000c7e <__udivmoddi4+0xbe>
 8000c6a:	2e00      	cmp	r6, #0
 8000c6c:	f000 80eb 	beq.w	8000e46 <__udivmoddi4+0x286>
 8000c70:	2700      	movs	r7, #0
 8000c72:	e9c6 0100 	strd	r0, r1, [r6]
 8000c76:	4638      	mov	r0, r7
 8000c78:	4639      	mov	r1, r7
 8000c7a:	e8bd 87f0 	ldmia.w	sp!, {r4, r5, r6, r7, r8, r9, sl, pc}
 8000c7e:	fab3 f783 	clz	r7, r3
 8000c82:	2f00      	cmp	r7, #0
 8000c84:	d147      	bne.n	8000d16 <__udivmoddi4+0x156>
 8000c86:	428b      	cmp	r3, r1
 8000c88:	d302      	bcc.n	8000c90 <__udivmoddi4+0xd0>
 8000c8a:	4282      	cmp	r2, r0
 8000c8c:	f200 80fa 	bhi.w	8000e84 <__udivmoddi4+0x2c4>
 8000c90:	1a84      	subs	r4, r0, r2
 8000c92:	eb61 0303 	sbc.w	r3, r1, r3
 8000c96:	2001      	movs	r0, #1
 8000c98:	4698      	mov	r8, r3
 8000c9a:	2e00      	cmp	r6, #0
 8000c9c:	d0e0      	beq.n	8000c60 <__udivmoddi4+0xa0>
 8000c9e:	e9c6 4800 	strd	r4, r8, [r6]
 8000ca2:	e7dd      	b.n	8000c60 <__udivmoddi4+0xa0>
 8000ca4:	b902      	cbnz	r2, 8000ca8 <__udivmoddi4+0xe8>
 8000ca6:	deff      	udf	#255	; 0xff
 8000ca8:	fab2 f282 	clz	r2, r2
 8000cac:	2a00      	cmp	r2, #0
 8000cae:	f040 808f 	bne.w	8000dd0 <__udivmoddi4+0x210>
 8000cb2:	1b49      	subs	r1, r1, r5
 8000cb4:	ea4f 4e15 	mov.w	lr, r5, lsr #16
 8000cb8:	fa1f f885 	uxth.w	r8, r5
 8000cbc:	2701      	movs	r7, #1
 8000cbe:	fbb1 fcfe 	udiv	ip, r1, lr
 8000cc2:	0c23      	lsrs	r3, r4, #16
 8000cc4:	fb0e 111c 	mls	r1, lr, ip, r1
 8000cc8:	ea43 4301 	orr.w	r3, r3, r1, lsl #16
 8000ccc:	fb08 f10c 	mul.w	r1, r8, ip
 8000cd0:	4299      	cmp	r1, r3
 8000cd2:	d907      	bls.n	8000ce4 <__udivmoddi4+0x124>
 8000cd4:	18eb      	adds	r3, r5, r3
 8000cd6:	f10c 30ff 	add.w	r0, ip, #4294967295
 8000cda:	d202      	bcs.n	8000ce2 <__udivmoddi4+0x122>
 8000cdc:	4299      	cmp	r1, r3
 8000cde:	f200 80cd 	bhi.w	8000e7c <__udivmoddi4+0x2bc>
 8000ce2:	4684      	mov	ip, r0
 8000ce4:	1a59      	subs	r1, r3, r1
 8000ce6:	b2a3      	uxth	r3, r4
 8000ce8:	fbb1 f0fe 	udiv	r0, r1, lr
 8000cec:	fb0e 1410 	mls	r4, lr, r0, r1
 8000cf0:	ea43 4404 	orr.w	r4, r3, r4, lsl #16
 8000cf4:	fb08 f800 	mul.w	r8, r8, r0
 8000cf8:	45a0      	cmp	r8, r4
 8000cfa:	d907      	bls.n	8000d0c <__udivmoddi4+0x14c>
 8000cfc:	192c      	adds	r4, r5, r4
 8000cfe:	f100 33ff 	add.w	r3, r0, #4294967295
 8000d02:	d202      	bcs.n	8000d0a <__udivmoddi4+0x14a>
 8000d04:	45a0      	cmp	r8, r4
 8000d06:	f200 80b6 	bhi.w	8000e76 <__udivmoddi4+0x2b6>
 8000d0a:	4618      	mov	r0, r3
 8000d0c:	eba4 0408 	sub.w	r4, r4, r8
 8000d10:	ea40 400c 	orr.w	r0, r0, ip, lsl #16
 8000d14:	e79f      	b.n	8000c56 <__udivmoddi4+0x96>
 8000d16:	f1c7 0c20 	rsb	ip, r7, #32
 8000d1a:	40bb      	lsls	r3, r7
 8000d1c:	fa22 fe0c 	lsr.w	lr, r2, ip
 8000d20:	ea4e 0e03 	orr.w	lr, lr, r3
 8000d24:	fa01 f407 	lsl.w	r4, r1, r7
 8000d28:	fa20 f50c 	lsr.w	r5, r0, ip
 8000d2c:	fa21 f30c 	lsr.w	r3, r1, ip
 8000d30:	ea4f 481e 	mov.w	r8, lr, lsr #16
 8000d34:	4325      	orrs	r5, r4
 8000d36:	fbb3 f9f8 	udiv	r9, r3, r8
 8000d3a:	0c2c      	lsrs	r4, r5, #16
 8000d3c:	fb08 3319 	mls	r3, r8, r9, r3
 8000d40:	fa1f fa8e 	uxth.w	sl, lr
 8000d44:	ea44 4303 	orr.w	r3, r4, r3, lsl #16
 8000d48:	fb09 f40a 	mul.w	r4, r9, sl
 8000d4c:	429c      	cmp	r4, r3
 8000d4e:	fa02 f207 	lsl.w	r2, r2, r7
 8000d52:	fa00 f107 	lsl.w	r1, r0, r7
 8000d56:	d90b      	bls.n	8000d70 <__udivmoddi4+0x1b0>
 8000d58:	eb1e 0303 	adds.w	r3, lr, r3
 8000d5c:	f109 30ff 	add.w	r0, r9, #4294967295
 8000d60:	f080 8087 	bcs.w	8000e72 <__udivmoddi4+0x2b2>
 8000d64:	429c      	cmp	r4, r3
 8000d66:	f240 8084 	bls.w	8000e72 <__udivmoddi4+0x2b2>
 8000d6a:	f1a9 0902 	sub.w	r9, r9, #2
 8000d6e:	4473      	add	r3, lr
 8000d70:	1b1b      	subs	r3, r3, r4
 8000d72:	b2ad      	uxth	r5, r5
 8000d74:	fbb3 f0f8 	udiv	r0, r3, r8
 8000d78:	fb08 3310 	mls	r3, r8, r0, r3
 8000d7c:	ea45 4403 	orr.w	r4, r5, r3, lsl #16
 8000d80:	fb00 fa0a 	mul.w	sl, r0, sl
 8000d84:	45a2      	cmp	sl, r4
 8000d86:	d908      	bls.n	8000d9a <__udivmoddi4+0x1da>
 8000d88:	eb1e 0404 	adds.w	r4, lr, r4
 8000d8c:	f100 33ff 	add.w	r3, r0, #4294967295
 8000d90:	d26b      	bcs.n	8000e6a <__udivmoddi4+0x2aa>
 8000d92:	45a2      	cmp	sl, r4
 8000d94:	d969      	bls.n	8000e6a <__udivmoddi4+0x2aa>
 8000d96:	3802      	subs	r0, #2
 8000d98:	4474      	add	r4, lr
 8000d9a:	ea40 4009 	orr.w	r0, r0, r9, lsl #16
 8000d9e:	fba0 8902 	umull	r8, r9, r0, r2
 8000da2:	eba4 040a 	sub.w	r4, r4, sl
 8000da6:	454c      	cmp	r4, r9
 8000da8:	46c2      	mov	sl, r8
 8000daa:	464b      	mov	r3, r9
 8000dac:	d354      	bcc.n	8000e58 <__udivmoddi4+0x298>
 8000dae:	d051      	beq.n	8000e54 <__udivmoddi4+0x294>
 8000db0:	2e00      	cmp	r6, #0
 8000db2:	d069      	beq.n	8000e88 <__udivmoddi4+0x2c8>
 8000db4:	ebb1 050a 	subs.w	r5, r1, sl
 8000db8:	eb64 0403 	sbc.w	r4, r4, r3
 8000dbc:	fa04 fc0c 	lsl.w	ip, r4, ip
 8000dc0:	40fd      	lsrs	r5, r7
 8000dc2:	40fc      	lsrs	r4, r7
 8000dc4:	ea4c 0505 	orr.w	r5, ip, r5
 8000dc8:	e9c6 5400 	strd	r5, r4, [r6]
 8000dcc:	2700      	movs	r7, #0
 8000dce:	e747      	b.n	8000c60 <__udivmoddi4+0xa0>
 8000dd0:	f1c2 0320 	rsb	r3, r2, #32
 8000dd4:	fa20 f703 	lsr.w	r7, r0, r3
 8000dd8:	4095      	lsls	r5, r2
 8000dda:	fa01 f002 	lsl.w	r0, r1, r2
 8000dde:	fa21 f303 	lsr.w	r3, r1, r3
 8000de2:	ea4f 4e15 	mov.w	lr, r5, lsr #16
 8000de6:	4338      	orrs	r0, r7
 8000de8:	0c01      	lsrs	r1, r0, #16
 8000dea:	fbb3 f7fe 	udiv	r7, r3, lr
 8000dee:	fa1f f885 	uxth.w	r8, r5
 8000df2:	fb0e 3317 	mls	r3, lr, r7, r3
 8000df6:	ea41 4103 	orr.w	r1, r1, r3, lsl #16
 8000dfa:	fb07 f308 	mul.w	r3, r7, r8
 8000dfe:	428b      	cmp	r3, r1
 8000e00:	fa04 f402 	lsl.w	r4, r4, r2
 8000e04:	d907      	bls.n	8000e16 <__udivmoddi4+0x256>
 8000e06:	1869      	adds	r1, r5, r1
 8000e08:	f107 3cff 	add.w	ip, r7, #4294967295
 8000e0c:	d22f      	bcs.n	8000e6e <__udivmoddi4+0x2ae>
 8000e0e:	428b      	cmp	r3, r1
 8000e10:	d92d      	bls.n	8000e6e <__udivmoddi4+0x2ae>
 8000e12:	3f02      	subs	r7, #2
 8000e14:	4429      	add	r1, r5
 8000e16:	1acb      	subs	r3, r1, r3
 8000e18:	b281      	uxth	r1, r0
 8000e1a:	fbb3 f0fe 	udiv	r0, r3, lr
 8000e1e:	fb0e 3310 	mls	r3, lr, r0, r3
 8000e22:	ea41 4103 	orr.w	r1, r1, r3, lsl #16
 8000e26:	fb00 f308 	mul.w	r3, r0, r8
 8000e2a:	428b      	cmp	r3, r1
 8000e2c:	d907      	bls.n	8000e3e <__udivmoddi4+0x27e>
 8000e2e:	1869      	adds	r1, r5, r1
 8000e30:	f100 3cff 	add.w	ip, r0, #4294967295
 8000e34:	d217      	bcs.n	8000e66 <__udivmoddi4+0x2a6>
 8000e36:	428b      	cmp	r3, r1
 8000e38:	d915      	bls.n	8000e66 <__udivmoddi4+0x2a6>
 8000e3a:	3802      	subs	r0, #2
 8000e3c:	4429      	add	r1, r5
 8000e3e:	1ac9      	subs	r1, r1, r3
 8000e40:	ea40 4707 	orr.w	r7, r0, r7, lsl #16
 8000e44:	e73b      	b.n	8000cbe <__udivmoddi4+0xfe>
 8000e46:	4637      	mov	r7, r6
 8000e48:	4630      	mov	r0, r6
 8000e4a:	e709      	b.n	8000c60 <__udivmoddi4+0xa0>
 8000e4c:	4607      	mov	r7, r0
 8000e4e:	e6e7      	b.n	8000c20 <__udivmoddi4+0x60>
 8000e50:	4618      	mov	r0, r3
 8000e52:	e6fb      	b.n	8000c4c <__udivmoddi4+0x8c>
 8000e54:	4541      	cmp	r1, r8
 8000e56:	d2ab      	bcs.n	8000db0 <__udivmoddi4+0x1f0>
 8000e58:	ebb8 0a02 	subs.w	sl, r8, r2
 8000e5c:	eb69 020e 	sbc.w	r2, r9, lr
 8000e60:	3801      	subs	r0, #1
 8000e62:	4613      	mov	r3, r2
 8000e64:	e7a4      	b.n	8000db0 <__udivmoddi4+0x1f0>
 8000e66:	4660      	mov	r0, ip
 8000e68:	e7e9      	b.n	8000e3e <__udivmoddi4+0x27e>
 8000e6a:	4618      	mov	r0, r3
 8000e6c:	e795      	b.n	8000d9a <__udivmoddi4+0x1da>
 8000e6e:	4667      	mov	r7, ip
 8000e70:	e7d1      	b.n	8000e16 <__udivmoddi4+0x256>
 8000e72:	4681      	mov	r9, r0
 8000e74:	e77c      	b.n	8000d70 <__udivmoddi4+0x1b0>
 8000e76:	3802      	subs	r0, #2
 8000e78:	442c      	add	r4, r5
 8000e7a:	e747      	b.n	8000d0c <__udivmoddi4+0x14c>
 8000e7c:	f1ac 0c02 	sub.w	ip, ip, #2
 8000e80:	442b      	add	r3, r5
 8000e82:	e72f      	b.n	8000ce4 <__udivmoddi4+0x124>
 8000e84:	4638      	mov	r0, r7
 8000e86:	e708      	b.n	8000c9a <__udivmoddi4+0xda>
 8000e88:	4637      	mov	r7, r6
 8000e8a:	e6e9      	b.n	8000c60 <__udivmoddi4+0xa0>

08000e8c <__aeabi_idiv0>:
 8000e8c:	4770      	bx	lr
 8000e8e:	bf00      	nop

08000e90 <HAL_InitTick>:
 8000e90:	b538      	push	{r3, r4, r5, lr}
 8000e92:	4a0e      	ldr	r2, [pc, #56]	; (8000ecc <HAL_InitTick+0x3c>)
 8000e94:	4b0e      	ldr	r3, [pc, #56]	; (8000ed0 <HAL_InitTick+0x40>)
 8000e96:	7812      	ldrb	r2, [r2, #0]
 8000e98:	681b      	ldr	r3, [r3, #0]
 8000e9a:	4605      	mov	r5, r0
 8000e9c:	f44f 707a 	mov.w	r0, #1000	; 0x3e8
 8000ea0:	fbb0 f0f2 	udiv	r0, r0, r2
 8000ea4:	fbb3 f0f0 	udiv	r0, r3, r0
 8000ea8:	f000 f8be 	bl	8001028 <HAL_SYSTICK_Config>
 8000eac:	b908      	cbnz	r0, 8000eb2 <HAL_InitTick+0x22>
 8000eae:	2d0f      	cmp	r5, #15
 8000eb0:	d901      	bls.n	8000eb6 <HAL_InitTick+0x26>
 8000eb2:	2001      	movs	r0, #1
 8000eb4:	bd38      	pop	{r3, r4, r5, pc}
 8000eb6:	4604      	mov	r4, r0
 8000eb8:	4602      	mov	r2, r0
 8000eba:	4629      	mov	r1, r5
 8000ebc:	f04f 30ff 	mov.w	r0, #4294967295
 8000ec0:	f000 f85a 	bl	8000f78 <HAL_NVIC_SetPriority>
 8000ec4:	4b03      	ldr	r3, [pc, #12]	; (8000ed4 <HAL_InitTick+0x44>)
 8000ec6:	4620      	mov	r0, r4
 8000ec8:	601d      	str	r5, [r3, #0]
 8000eca:	bd38      	pop	{r3, r4, r5, pc}
 8000ecc:	20000000 	.word	0x20000000
 8000ed0:	20000010 	.word	0x20000010
 8000ed4:	20000004 	.word	0x20000004

08000ed8 <HAL_Init>:
 8000ed8:	b508      	push	{r3, lr}
 8000eda:	4b0b      	ldr	r3, [pc, #44]	; (8000f08 <HAL_Init+0x30>)
 8000edc:	681a      	ldr	r2, [r3, #0]
 8000ede:	f442 7200 	orr.w	r2, r2, #512	; 0x200
 8000ee2:	601a      	str	r2, [r3, #0]
 8000ee4:	681a      	ldr	r2, [r3, #0]
 8000ee6:	f442 6280 	orr.w	r2, r2, #1024	; 0x400
 8000eea:	601a      	str	r2, [r3, #0]
 8000eec:	681a      	ldr	r2, [r3, #0]
 8000eee:	f442 7280 	orr.w	r2, r2, #256	; 0x100
 8000ef2:	601a      	str	r2, [r3, #0]
 8000ef4:	2003      	movs	r0, #3
 8000ef6:	f000 f82d 	bl	8000f54 <HAL_NVIC_SetPriorityGrouping>
 8000efa:	2000      	movs	r0, #0
 8000efc:	f7ff ffc8 	bl	8000e90 <HAL_InitTick>
 8000f00:	f004 f8ba 	bl	8005078 <HAL_MspInit>
 8000f04:	2000      	movs	r0, #0
 8000f06:	bd08      	pop	{r3, pc}
 8000f08:	40023c00 	.word	0x40023c00

08000f0c <HAL_IncTick>:
 8000f0c:	4a03      	ldr	r2, [pc, #12]	; (8000f1c <HAL_IncTick+0x10>)
 8000f0e:	4b04      	ldr	r3, [pc, #16]	; (8000f20 <HAL_IncTick+0x14>)
 8000f10:	6811      	ldr	r1, [r2, #0]
 8000f12:	781b      	ldrb	r3, [r3, #0]
 8000f14:	440b      	add	r3, r1
 8000f16:	6013      	str	r3, [r2, #0]
 8000f18:	4770      	bx	lr
 8000f1a:	bf00      	nop
 8000f1c:	200000b0 	.word	0x200000b0
 8000f20:	20000000 	.word	0x20000000

08000f24 <HAL_GetTick>:
 8000f24:	4b01      	ldr	r3, [pc, #4]	; (8000f2c <HAL_GetTick+0x8>)
 8000f26:	6818      	ldr	r0, [r3, #0]
 8000f28:	4770      	bx	lr
 8000f2a:	bf00      	nop
 8000f2c:	200000b0 	.word	0x200000b0

08000f30 <HAL_Delay>:
 8000f30:	b538      	push	{r3, r4, r5, lr}
 8000f32:	4604      	mov	r4, r0
 8000f34:	f7ff fff6 	bl	8000f24 <HAL_GetTick>
 8000f38:	1c63      	adds	r3, r4, #1
 8000f3a:	4605      	mov	r5, r0
 8000f3c:	d002      	beq.n	8000f44 <HAL_Delay+0x14>
 8000f3e:	4b04      	ldr	r3, [pc, #16]	; (8000f50 <HAL_Delay+0x20>)
 8000f40:	781b      	ldrb	r3, [r3, #0]
 8000f42:	441c      	add	r4, r3
 8000f44:	f7ff ffee 	bl	8000f24 <HAL_GetTick>
 8000f48:	1b40      	subs	r0, r0, r5
 8000f4a:	42a0      	cmp	r0, r4
 8000f4c:	d3fa      	bcc.n	8000f44 <HAL_Delay+0x14>
 8000f4e:	bd38      	pop	{r3, r4, r5, pc}
 8000f50:	20000000 	.word	0x20000000

08000f54 <HAL_NVIC_SetPriorityGrouping>:
 8000f54:	4a07      	ldr	r2, [pc, #28]	; (8000f74 <HAL_NVIC_SetPriorityGrouping+0x20>)
 8000f56:	68d3      	ldr	r3, [r2, #12]
 8000f58:	f64f 01ff 	movw	r1, #63743	; 0xf8ff
 8000f5c:	400b      	ands	r3, r1
 8000f5e:	0200      	lsls	r0, r0, #8
 8000f60:	f043 63bf 	orr.w	r3, r3, #100139008	; 0x5f80000
 8000f64:	f400 60e0 	and.w	r0, r0, #1792	; 0x700
 8000f68:	f443 3300 	orr.w	r3, r3, #131072	; 0x20000
 8000f6c:	4303      	orrs	r3, r0
 8000f6e:	60d3      	str	r3, [r2, #12]
 8000f70:	4770      	bx	lr
 8000f72:	bf00      	nop
 8000f74:	e000ed00 	.word	0xe000ed00

08000f78 <HAL_NVIC_SetPriority>:
 8000f78:	4b18      	ldr	r3, [pc, #96]	; (8000fdc <HAL_NVIC_SetPriority+0x64>)
 8000f7a:	68db      	ldr	r3, [r3, #12]
 8000f7c:	f3c3 2302 	ubfx	r3, r3, #8, #3
 8000f80:	b430      	push	{r4, r5}
 8000f82:	f1c3 0507 	rsb	r5, r3, #7
 8000f86:	2d04      	cmp	r5, #4
 8000f88:	f103 0404 	add.w	r4, r3, #4
 8000f8c:	bf28      	it	cs
 8000f8e:	2504      	movcs	r5, #4
 8000f90:	2c06      	cmp	r4, #6
 8000f92:	d919      	bls.n	8000fc8 <HAL_NVIC_SetPriority+0x50>
 8000f94:	3b03      	subs	r3, #3
 8000f96:	f04f 34ff 	mov.w	r4, #4294967295
 8000f9a:	409c      	lsls	r4, r3
 8000f9c:	ea22 0404 	bic.w	r4, r2, r4
 8000fa0:	f04f 32ff 	mov.w	r2, #4294967295
 8000fa4:	40aa      	lsls	r2, r5
 8000fa6:	ea21 0102 	bic.w	r1, r1, r2
 8000faa:	fa01 f203 	lsl.w	r2, r1, r3
 8000fae:	4322      	orrs	r2, r4
 8000fb0:	0112      	lsls	r2, r2, #4
 8000fb2:	2800      	cmp	r0, #0
 8000fb4:	b2d2      	uxtb	r2, r2
 8000fb6:	db0a      	blt.n	8000fce <HAL_NVIC_SetPriority+0x56>
 8000fb8:	f100 4060 	add.w	r0, r0, #3758096384	; 0xe0000000
 8000fbc:	f500 4061 	add.w	r0, r0, #57600	; 0xe100
 8000fc0:	f880 2300 	strb.w	r2, [r0, #768]	; 0x300
 8000fc4:	bc30      	pop	{r4, r5}
 8000fc6:	4770      	bx	lr
 8000fc8:	2400      	movs	r4, #0
 8000fca:	4623      	mov	r3, r4
 8000fcc:	e7e8      	b.n	8000fa0 <HAL_NVIC_SetPriority+0x28>
 8000fce:	4b04      	ldr	r3, [pc, #16]	; (8000fe0 <HAL_NVIC_SetPriority+0x68>)
 8000fd0:	f000 000f 	and.w	r0, r0, #15
 8000fd4:	4403      	add	r3, r0
 8000fd6:	761a      	strb	r2, [r3, #24]
 8000fd8:	bc30      	pop	{r4, r5}
 8000fda:	4770      	bx	lr
 8000fdc:	e000ed00 	.word	0xe000ed00
 8000fe0:	e000ecfc 	.word	0xe000ecfc

08000fe4 <HAL_NVIC_EnableIRQ>:
 8000fe4:	2800      	cmp	r0, #0
 8000fe6:	db07      	blt.n	8000ff8 <HAL_NVIC_EnableIRQ+0x14>
 8000fe8:	f000 011f 	and.w	r1, r0, #31
 8000fec:	2301      	movs	r3, #1
 8000fee:	0940      	lsrs	r0, r0, #5
 8000ff0:	4a02      	ldr	r2, [pc, #8]	; (8000ffc <HAL_NVIC_EnableIRQ+0x18>)
 8000ff2:	408b      	lsls	r3, r1
 8000ff4:	f842 3020 	str.w	r3, [r2, r0, lsl #2]
 8000ff8:	4770      	bx	lr
 8000ffa:	bf00      	nop
 8000ffc:	e000e100 	.word	0xe000e100

08001000 <HAL_NVIC_DisableIRQ>:
 8001000:	2800      	cmp	r0, #0
 8001002:	db0d      	blt.n	8001020 <HAL_NVIC_DisableIRQ+0x20>
 8001004:	0943      	lsrs	r3, r0, #5
 8001006:	3320      	adds	r3, #32
 8001008:	2201      	movs	r2, #1
 800100a:	4906      	ldr	r1, [pc, #24]	; (8001024 <HAL_NVIC_DisableIRQ+0x24>)
 800100c:	f000 001f 	and.w	r0, r0, #31
 8001010:	fa02 f000 	lsl.w	r0, r2, r0
 8001014:	f841 0023 	str.w	r0, [r1, r3, lsl #2]
 8001018:	f3bf 8f4f 	dsb	sy
 800101c:	f3bf 8f6f 	isb	sy
 8001020:	4770      	bx	lr
 8001022:	bf00      	nop
 8001024:	e000e100 	.word	0xe000e100

08001028 <HAL_SYSTICK_Config>:
 8001028:	3801      	subs	r0, #1
 800102a:	f1b0 7f80 	cmp.w	r0, #16777216	; 0x1000000
 800102e:	d20e      	bcs.n	800104e <HAL_SYSTICK_Config+0x26>
 8001030:	4b08      	ldr	r3, [pc, #32]	; (8001054 <HAL_SYSTICK_Config+0x2c>)
 8001032:	b410      	push	{r4}
 8001034:	4c08      	ldr	r4, [pc, #32]	; (8001058 <HAL_SYSTICK_Config+0x30>)
 8001036:	6058      	str	r0, [r3, #4]
 8001038:	20f0      	movs	r0, #240	; 0xf0
 800103a:	f884 0023 	strb.w	r0, [r4, #35]	; 0x23
 800103e:	2200      	movs	r2, #0
 8001040:	2107      	movs	r1, #7
 8001042:	4610      	mov	r0, r2
 8001044:	609a      	str	r2, [r3, #8]
 8001046:	6019      	str	r1, [r3, #0]
 8001048:	f85d 4b04 	ldr.w	r4, [sp], #4
 800104c:	4770      	bx	lr
 800104e:	2001      	movs	r0, #1
 8001050:	4770      	bx	lr
 8001052:	bf00      	nop
 8001054:	e000e010 	.word	0xe000e010
 8001058:	e000ed00 	.word	0xe000ed00

0800105c <HAL_DMA_Init>:
 800105c:	b5f8      	push	{r3, r4, r5, r6, r7, lr}
 800105e:	4604      	mov	r4, r0
 8001060:	f7ff ff60 	bl	8000f24 <HAL_GetTick>
 8001064:	2c00      	cmp	r4, #0
 8001066:	d054      	beq.n	8001112 <HAL_DMA_Init+0xb6>
 8001068:	2202      	movs	r2, #2
 800106a:	6823      	ldr	r3, [r4, #0]
 800106c:	f884 2035 	strb.w	r2, [r4, #53]	; 0x35
 8001070:	681a      	ldr	r2, [r3, #0]
 8001072:	2100      	movs	r1, #0
 8001074:	f022 0201 	bic.w	r2, r2, #1
 8001078:	f884 1034 	strb.w	r1, [r4, #52]	; 0x34
 800107c:	4605      	mov	r5, r0
 800107e:	601a      	str	r2, [r3, #0]
 8001080:	e005      	b.n	800108e <HAL_DMA_Init+0x32>
 8001082:	f7ff ff4f 	bl	8000f24 <HAL_GetTick>
 8001086:	1b40      	subs	r0, r0, r5
 8001088:	2805      	cmp	r0, #5
 800108a:	d83b      	bhi.n	8001104 <HAL_DMA_Init+0xa8>
 800108c:	6823      	ldr	r3, [r4, #0]
 800108e:	681a      	ldr	r2, [r3, #0]
 8001090:	07d1      	lsls	r1, r2, #31
 8001092:	d4f6      	bmi.n	8001082 <HAL_DMA_Init+0x26>
 8001094:	e9d4 2601 	ldrd	r2, r6, [r4, #4]
 8001098:	e9d4 5103 	ldrd	r5, r1, [r4, #12]
 800109c:	4332      	orrs	r2, r6
 800109e:	6960      	ldr	r0, [r4, #20]
 80010a0:	681f      	ldr	r7, [r3, #0]
 80010a2:	432a      	orrs	r2, r5
 80010a4:	e9d4 6506 	ldrd	r6, r5, [r4, #24]
 80010a8:	430a      	orrs	r2, r1
 80010aa:	4302      	orrs	r2, r0
 80010ac:	6a21      	ldr	r1, [r4, #32]
 80010ae:	4835      	ldr	r0, [pc, #212]	; (8001184 <HAL_DMA_Init+0x128>)
 80010b0:	4332      	orrs	r2, r6
 80010b2:	432a      	orrs	r2, r5
 80010b4:	430a      	orrs	r2, r1
 80010b6:	6a61      	ldr	r1, [r4, #36]	; 0x24
 80010b8:	4038      	ands	r0, r7
 80010ba:	2904      	cmp	r1, #4
 80010bc:	ea42 0200 	orr.w	r2, r2, r0
 80010c0:	d029      	beq.n	8001116 <HAL_DMA_Init+0xba>
 80010c2:	601a      	str	r2, [r3, #0]
 80010c4:	695a      	ldr	r2, [r3, #20]
 80010c6:	f022 0207 	bic.w	r2, r2, #7
 80010ca:	4311      	orrs	r1, r2
 80010cc:	b2da      	uxtb	r2, r3
 80010ce:	482e      	ldr	r0, [pc, #184]	; (8001188 <HAL_DMA_Init+0x12c>)
 80010d0:	6159      	str	r1, [r3, #20]
 80010d2:	3a10      	subs	r2, #16
 80010d4:	fba0 1202 	umull	r1, r2, r0, r2
 80010d8:	0912      	lsrs	r2, r2, #4
 80010da:	492c      	ldr	r1, [pc, #176]	; (800118c <HAL_DMA_Init+0x130>)
 80010dc:	f423 737f 	bic.w	r3, r3, #1020	; 0x3fc
 80010e0:	5c89      	ldrb	r1, [r1, r2]
 80010e2:	65e1      	str	r1, [r4, #92]	; 0x5c
 80010e4:	f023 0303 	bic.w	r3, r3, #3
 80010e8:	2a03      	cmp	r2, #3
 80010ea:	bf88      	it	hi
 80010ec:	3304      	addhi	r3, #4
 80010ee:	223f      	movs	r2, #63	; 0x3f
 80010f0:	408a      	lsls	r2, r1
 80010f2:	2501      	movs	r5, #1
 80010f4:	2100      	movs	r1, #0
 80010f6:	65a3      	str	r3, [r4, #88]	; 0x58
 80010f8:	4608      	mov	r0, r1
 80010fa:	609a      	str	r2, [r3, #8]
 80010fc:	6561      	str	r1, [r4, #84]	; 0x54
 80010fe:	f884 5035 	strb.w	r5, [r4, #53]	; 0x35
 8001102:	bdf8      	pop	{r3, r4, r5, r6, r7, pc}
 8001104:	2303      	movs	r3, #3
 8001106:	2220      	movs	r2, #32
 8001108:	6562      	str	r2, [r4, #84]	; 0x54
 800110a:	4618      	mov	r0, r3
 800110c:	f884 3035 	strb.w	r3, [r4, #53]	; 0x35
 8001110:	bdf8      	pop	{r3, r4, r5, r6, r7, pc}
 8001112:	2001      	movs	r0, #1
 8001114:	bdf8      	pop	{r3, r4, r5, r6, r7, pc}
 8001116:	e9d4 010b 	ldrd	r0, r1, [r4, #44]	; 0x2c
 800111a:	4301      	orrs	r1, r0
 800111c:	430a      	orrs	r2, r1
 800111e:	6aa5      	ldr	r5, [r4, #40]	; 0x28
 8001120:	601a      	str	r2, [r3, #0]
 8001122:	695a      	ldr	r2, [r3, #20]
 8001124:	f045 0104 	orr.w	r1, r5, #4
 8001128:	f022 0207 	bic.w	r2, r2, #7
 800112c:	4311      	orrs	r1, r2
 800112e:	2800      	cmp	r0, #0
 8001130:	d0cc      	beq.n	80010cc <HAL_DMA_Init+0x70>
 8001132:	b17e      	cbz	r6, 8001154 <HAL_DMA_Init+0xf8>
 8001134:	f5b6 5f00 	cmp.w	r6, #8192	; 0x2000
 8001138:	d016      	beq.n	8001168 <HAL_DMA_Init+0x10c>
 800113a:	2d02      	cmp	r5, #2
 800113c:	d903      	bls.n	8001146 <HAL_DMA_Init+0xea>
 800113e:	2d03      	cmp	r5, #3
 8001140:	d1c4      	bne.n	80010cc <HAL_DMA_Init+0x70>
 8001142:	01c2      	lsls	r2, r0, #7
 8001144:	d5c2      	bpl.n	80010cc <HAL_DMA_Init+0x70>
 8001146:	2301      	movs	r3, #1
 8001148:	2240      	movs	r2, #64	; 0x40
 800114a:	6562      	str	r2, [r4, #84]	; 0x54
 800114c:	4618      	mov	r0, r3
 800114e:	f884 3035 	strb.w	r3, [r4, #53]	; 0x35
 8001152:	bdf8      	pop	{r3, r4, r5, r6, r7, pc}
 8001154:	2d01      	cmp	r5, #1
 8001156:	d003      	beq.n	8001160 <HAL_DMA_Init+0x104>
 8001158:	d3f3      	bcc.n	8001142 <HAL_DMA_Init+0xe6>
 800115a:	2d02      	cmp	r5, #2
 800115c:	d1b6      	bne.n	80010cc <HAL_DMA_Init+0x70>
 800115e:	e7f0      	b.n	8001142 <HAL_DMA_Init+0xe6>
 8001160:	f1b0 7fc0 	cmp.w	r0, #25165824	; 0x1800000
 8001164:	d1b2      	bne.n	80010cc <HAL_DMA_Init+0x70>
 8001166:	e7ee      	b.n	8001146 <HAL_DMA_Init+0xea>
 8001168:	2d03      	cmp	r5, #3
 800116a:	d8af      	bhi.n	80010cc <HAL_DMA_Init+0x70>
 800116c:	a201      	add	r2, pc, #4	; (adr r2, 8001174 <HAL_DMA_Init+0x118>)
 800116e:	f852 f025 	ldr.w	pc, [r2, r5, lsl #2]
 8001172:	bf00      	nop
 8001174:	08001147 	.word	0x08001147
 8001178:	08001143 	.word	0x08001143
 800117c:	08001147 	.word	0x08001147
 8001180:	08001161 	.word	0x08001161
 8001184:	f010803f 	.word	0xf010803f
 8001188:	aaaaaaab 	.word	0xaaaaaaab
 800118c:	08007380 	.word	0x08007380

08001190 <HAL_DMA_Start_IT>:
 8001190:	b4f0      	push	{r4, r5, r6, r7}
 8001192:	f890 4034 	ldrb.w	r4, [r0, #52]	; 0x34
 8001196:	2c01      	cmp	r4, #1
 8001198:	d039      	beq.n	800120e <HAL_DMA_Start_IT+0x7e>
 800119a:	f890 4035 	ldrb.w	r4, [r0, #53]	; 0x35
 800119e:	6d86      	ldr	r6, [r0, #88]	; 0x58
 80011a0:	2501      	movs	r5, #1
 80011a2:	42ac      	cmp	r4, r5
 80011a4:	f880 5034 	strb.w	r5, [r0, #52]	; 0x34
 80011a8:	d12b      	bne.n	8001202 <HAL_DMA_Start_IT+0x72>
 80011aa:	6804      	ldr	r4, [r0, #0]
 80011ac:	2702      	movs	r7, #2
 80011ae:	2500      	movs	r5, #0
 80011b0:	f880 7035 	strb.w	r7, [r0, #53]	; 0x35
 80011b4:	6545      	str	r5, [r0, #84]	; 0x54
 80011b6:	6825      	ldr	r5, [r4, #0]
 80011b8:	6887      	ldr	r7, [r0, #8]
 80011ba:	f425 2580 	bic.w	r5, r5, #262144	; 0x40000
 80011be:	2f40      	cmp	r7, #64	; 0x40
 80011c0:	6025      	str	r5, [r4, #0]
 80011c2:	6063      	str	r3, [r4, #4]
 80011c4:	bf0a      	itet	eq
 80011c6:	60a2      	streq	r2, [r4, #8]
 80011c8:	60a1      	strne	r1, [r4, #8]
 80011ca:	60e1      	streq	r1, [r4, #12]
 80011cc:	6dc1      	ldr	r1, [r0, #92]	; 0x5c
 80011ce:	bf18      	it	ne
 80011d0:	60e2      	strne	r2, [r4, #12]
 80011d2:	233f      	movs	r3, #63	; 0x3f
 80011d4:	408b      	lsls	r3, r1
 80011d6:	6c02      	ldr	r2, [r0, #64]	; 0x40
 80011d8:	60b3      	str	r3, [r6, #8]
 80011da:	6823      	ldr	r3, [r4, #0]
 80011dc:	f043 0316 	orr.w	r3, r3, #22
 80011e0:	6023      	str	r3, [r4, #0]
 80011e2:	6963      	ldr	r3, [r4, #20]
 80011e4:	f043 0380 	orr.w	r3, r3, #128	; 0x80
 80011e8:	6163      	str	r3, [r4, #20]
 80011ea:	b11a      	cbz	r2, 80011f4 <HAL_DMA_Start_IT+0x64>
 80011ec:	6823      	ldr	r3, [r4, #0]
 80011ee:	f043 0308 	orr.w	r3, r3, #8
 80011f2:	6023      	str	r3, [r4, #0]
 80011f4:	6823      	ldr	r3, [r4, #0]
 80011f6:	f043 0301 	orr.w	r3, r3, #1
 80011fa:	6023      	str	r3, [r4, #0]
 80011fc:	2000      	movs	r0, #0
 80011fe:	bcf0      	pop	{r4, r5, r6, r7}
 8001200:	4770      	bx	lr
 8001202:	2300      	movs	r3, #0
 8001204:	f880 3034 	strb.w	r3, [r0, #52]	; 0x34
 8001208:	bcf0      	pop	{r4, r5, r6, r7}
 800120a:	2002      	movs	r0, #2
 800120c:	4770      	bx	lr
 800120e:	2002      	movs	r0, #2
 8001210:	bcf0      	pop	{r4, r5, r6, r7}
 8001212:	4770      	bx	lr

08001214 <HAL_DMA_Abort>:
 8001214:	b570      	push	{r4, r5, r6, lr}
 8001216:	4604      	mov	r4, r0
 8001218:	6d86      	ldr	r6, [r0, #88]	; 0x58
 800121a:	f7ff fe83 	bl	8000f24 <HAL_GetTick>
 800121e:	f894 3035 	ldrb.w	r3, [r4, #53]	; 0x35
 8001222:	2b02      	cmp	r3, #2
 8001224:	d006      	beq.n	8001234 <HAL_DMA_Abort+0x20>
 8001226:	2280      	movs	r2, #128	; 0x80
 8001228:	2300      	movs	r3, #0
 800122a:	6562      	str	r2, [r4, #84]	; 0x54
 800122c:	f884 3034 	strb.w	r3, [r4, #52]	; 0x34
 8001230:	2001      	movs	r0, #1
 8001232:	bd70      	pop	{r4, r5, r6, pc}
 8001234:	6823      	ldr	r3, [r4, #0]
 8001236:	6c21      	ldr	r1, [r4, #64]	; 0x40
 8001238:	681a      	ldr	r2, [r3, #0]
 800123a:	f022 0216 	bic.w	r2, r2, #22
 800123e:	601a      	str	r2, [r3, #0]
 8001240:	695a      	ldr	r2, [r3, #20]
 8001242:	f022 0280 	bic.w	r2, r2, #128	; 0x80
 8001246:	4605      	mov	r5, r0
 8001248:	615a      	str	r2, [r3, #20]
 800124a:	b331      	cbz	r1, 800129a <HAL_DMA_Abort+0x86>
 800124c:	681a      	ldr	r2, [r3, #0]
 800124e:	f022 0208 	bic.w	r2, r2, #8
 8001252:	601a      	str	r2, [r3, #0]
 8001254:	681a      	ldr	r2, [r3, #0]
 8001256:	f022 0201 	bic.w	r2, r2, #1
 800125a:	601a      	str	r2, [r3, #0]
 800125c:	e005      	b.n	800126a <HAL_DMA_Abort+0x56>
 800125e:	f7ff fe61 	bl	8000f24 <HAL_GetTick>
 8001262:	1b40      	subs	r0, r0, r5
 8001264:	2805      	cmp	r0, #5
 8001266:	d80f      	bhi.n	8001288 <HAL_DMA_Abort+0x74>
 8001268:	6823      	ldr	r3, [r4, #0]
 800126a:	681b      	ldr	r3, [r3, #0]
 800126c:	f013 0301 	ands.w	r3, r3, #1
 8001270:	d1f5      	bne.n	800125e <HAL_DMA_Abort+0x4a>
 8001272:	6de1      	ldr	r1, [r4, #92]	; 0x5c
 8001274:	223f      	movs	r2, #63	; 0x3f
 8001276:	408a      	lsls	r2, r1
 8001278:	2101      	movs	r1, #1
 800127a:	60b2      	str	r2, [r6, #8]
 800127c:	4618      	mov	r0, r3
 800127e:	f884 3034 	strb.w	r3, [r4, #52]	; 0x34
 8001282:	f884 1035 	strb.w	r1, [r4, #53]	; 0x35
 8001286:	bd70      	pop	{r4, r5, r6, pc}
 8001288:	2220      	movs	r2, #32
 800128a:	2300      	movs	r3, #0
 800128c:	2003      	movs	r0, #3
 800128e:	6562      	str	r2, [r4, #84]	; 0x54
 8001290:	f884 3034 	strb.w	r3, [r4, #52]	; 0x34
 8001294:	f884 0035 	strb.w	r0, [r4, #53]	; 0x35
 8001298:	bd70      	pop	{r4, r5, r6, pc}
 800129a:	6ca2      	ldr	r2, [r4, #72]	; 0x48
 800129c:	2a00      	cmp	r2, #0
 800129e:	d1d5      	bne.n	800124c <HAL_DMA_Abort+0x38>
 80012a0:	e7d8      	b.n	8001254 <HAL_DMA_Abort+0x40>
 80012a2:	bf00      	nop

080012a4 <HAL_DMA_Abort_IT>:
 80012a4:	f890 3035 	ldrb.w	r3, [r0, #53]	; 0x35
 80012a8:	2b02      	cmp	r3, #2
 80012aa:	d003      	beq.n	80012b4 <HAL_DMA_Abort_IT+0x10>
 80012ac:	2380      	movs	r3, #128	; 0x80
 80012ae:	6543      	str	r3, [r0, #84]	; 0x54
 80012b0:	2001      	movs	r0, #1
 80012b2:	4770      	bx	lr
 80012b4:	6802      	ldr	r2, [r0, #0]
 80012b6:	2305      	movs	r3, #5
 80012b8:	f880 3035 	strb.w	r3, [r0, #53]	; 0x35
 80012bc:	6813      	ldr	r3, [r2, #0]
 80012be:	f023 0301 	bic.w	r3, r3, #1
 80012c2:	6013      	str	r3, [r2, #0]
 80012c4:	2000      	movs	r0, #0
 80012c6:	4770      	bx	lr

080012c8 <HAL_DMA_IRQHandler>:
 80012c8:	b5f0      	push	{r4, r5, r6, r7, lr}
 80012ca:	b083      	sub	sp, #12
 80012cc:	2300      	movs	r3, #0
 80012ce:	6d87      	ldr	r7, [r0, #88]	; 0x58
 80012d0:	9301      	str	r3, [sp, #4]
 80012d2:	6dc3      	ldr	r3, [r0, #92]	; 0x5c
 80012d4:	683d      	ldr	r5, [r7, #0]
 80012d6:	4965      	ldr	r1, [pc, #404]	; (800146c <HAL_DMA_IRQHandler+0x1a4>)
 80012d8:	2208      	movs	r2, #8
 80012da:	409a      	lsls	r2, r3
 80012dc:	422a      	tst	r2, r5
 80012de:	4604      	mov	r4, r0
 80012e0:	680e      	ldr	r6, [r1, #0]
 80012e2:	d003      	beq.n	80012ec <HAL_DMA_IRQHandler+0x24>
 80012e4:	6801      	ldr	r1, [r0, #0]
 80012e6:	6808      	ldr	r0, [r1, #0]
 80012e8:	0740      	lsls	r0, r0, #29
 80012ea:	d459      	bmi.n	80013a0 <HAL_DMA_IRQHandler+0xd8>
 80012ec:	2201      	movs	r2, #1
 80012ee:	409a      	lsls	r2, r3
 80012f0:	422a      	tst	r2, r5
 80012f2:	d003      	beq.n	80012fc <HAL_DMA_IRQHandler+0x34>
 80012f4:	6821      	ldr	r1, [r4, #0]
 80012f6:	6949      	ldr	r1, [r1, #20]
 80012f8:	0608      	lsls	r0, r1, #24
 80012fa:	d474      	bmi.n	80013e6 <HAL_DMA_IRQHandler+0x11e>
 80012fc:	2204      	movs	r2, #4
 80012fe:	409a      	lsls	r2, r3
 8001300:	422a      	tst	r2, r5
 8001302:	d003      	beq.n	800130c <HAL_DMA_IRQHandler+0x44>
 8001304:	6821      	ldr	r1, [r4, #0]
 8001306:	6809      	ldr	r1, [r1, #0]
 8001308:	0789      	lsls	r1, r1, #30
 800130a:	d466      	bmi.n	80013da <HAL_DMA_IRQHandler+0x112>
 800130c:	2210      	movs	r2, #16
 800130e:	409a      	lsls	r2, r3
 8001310:	422a      	tst	r2, r5
 8001312:	d003      	beq.n	800131c <HAL_DMA_IRQHandler+0x54>
 8001314:	6821      	ldr	r1, [r4, #0]
 8001316:	6808      	ldr	r0, [r1, #0]
 8001318:	0700      	lsls	r0, r0, #28
 800131a:	d44b      	bmi.n	80013b4 <HAL_DMA_IRQHandler+0xec>
 800131c:	2220      	movs	r2, #32
 800131e:	409a      	lsls	r2, r3
 8001320:	422a      	tst	r2, r5
 8001322:	d014      	beq.n	800134e <HAL_DMA_IRQHandler+0x86>
 8001324:	6821      	ldr	r1, [r4, #0]
 8001326:	6808      	ldr	r0, [r1, #0]
 8001328:	06c0      	lsls	r0, r0, #27
 800132a:	d510      	bpl.n	800134e <HAL_DMA_IRQHandler+0x86>
 800132c:	60ba      	str	r2, [r7, #8]
 800132e:	f894 2035 	ldrb.w	r2, [r4, #53]	; 0x35
 8001332:	2a05      	cmp	r2, #5
 8001334:	d063      	beq.n	80013fe <HAL_DMA_IRQHandler+0x136>
 8001336:	680b      	ldr	r3, [r1, #0]
 8001338:	f413 2f80 	tst.w	r3, #262144	; 0x40000
 800133c:	680b      	ldr	r3, [r1, #0]
 800133e:	d07e      	beq.n	800143e <HAL_DMA_IRQHandler+0x176>
 8001340:	0319      	lsls	r1, r3, #12
 8001342:	f140 8089 	bpl.w	8001458 <HAL_DMA_IRQHandler+0x190>
 8001346:	6be3      	ldr	r3, [r4, #60]	; 0x3c
 8001348:	b10b      	cbz	r3, 800134e <HAL_DMA_IRQHandler+0x86>
 800134a:	4620      	mov	r0, r4
 800134c:	4798      	blx	r3
 800134e:	6d63      	ldr	r3, [r4, #84]	; 0x54
 8001350:	b323      	cbz	r3, 800139c <HAL_DMA_IRQHandler+0xd4>
 8001352:	6d63      	ldr	r3, [r4, #84]	; 0x54
 8001354:	07da      	lsls	r2, r3, #31
 8001356:	d51a      	bpl.n	800138e <HAL_DMA_IRQHandler+0xc6>
 8001358:	2305      	movs	r3, #5
 800135a:	6822      	ldr	r2, [r4, #0]
 800135c:	f884 3035 	strb.w	r3, [r4, #53]	; 0x35
 8001360:	6813      	ldr	r3, [r2, #0]
 8001362:	4943      	ldr	r1, [pc, #268]	; (8001470 <HAL_DMA_IRQHandler+0x1a8>)
 8001364:	f023 0301 	bic.w	r3, r3, #1
 8001368:	fba1 1606 	umull	r1, r6, r1, r6
 800136c:	6013      	str	r3, [r2, #0]
 800136e:	0ab6      	lsrs	r6, r6, #10
 8001370:	e002      	b.n	8001378 <HAL_DMA_IRQHandler+0xb0>
 8001372:	6813      	ldr	r3, [r2, #0]
 8001374:	07db      	lsls	r3, r3, #31
 8001376:	d504      	bpl.n	8001382 <HAL_DMA_IRQHandler+0xba>
 8001378:	9b01      	ldr	r3, [sp, #4]
 800137a:	3301      	adds	r3, #1
 800137c:	42b3      	cmp	r3, r6
 800137e:	9301      	str	r3, [sp, #4]
 8001380:	d9f7      	bls.n	8001372 <HAL_DMA_IRQHandler+0xaa>
 8001382:	2200      	movs	r2, #0
 8001384:	2301      	movs	r3, #1
 8001386:	f884 2034 	strb.w	r2, [r4, #52]	; 0x34
 800138a:	f884 3035 	strb.w	r3, [r4, #53]	; 0x35
 800138e:	6ce3      	ldr	r3, [r4, #76]	; 0x4c
 8001390:	b123      	cbz	r3, 800139c <HAL_DMA_IRQHandler+0xd4>
 8001392:	4620      	mov	r0, r4
 8001394:	b003      	add	sp, #12
 8001396:	e8bd 40f0 	ldmia.w	sp!, {r4, r5, r6, r7, lr}
 800139a:	4718      	bx	r3
 800139c:	b003      	add	sp, #12
 800139e:	bdf0      	pop	{r4, r5, r6, r7, pc}
 80013a0:	6808      	ldr	r0, [r1, #0]
 80013a2:	f020 0004 	bic.w	r0, r0, #4
 80013a6:	6008      	str	r0, [r1, #0]
 80013a8:	60ba      	str	r2, [r7, #8]
 80013aa:	6d62      	ldr	r2, [r4, #84]	; 0x54
 80013ac:	f042 0201 	orr.w	r2, r2, #1
 80013b0:	6562      	str	r2, [r4, #84]	; 0x54
 80013b2:	e79b      	b.n	80012ec <HAL_DMA_IRQHandler+0x24>
 80013b4:	60ba      	str	r2, [r7, #8]
 80013b6:	680a      	ldr	r2, [r1, #0]
 80013b8:	f412 2f80 	tst.w	r2, #262144	; 0x40000
 80013bc:	680a      	ldr	r2, [r1, #0]
 80013be:	d118      	bne.n	80013f2 <HAL_DMA_IRQHandler+0x12a>
 80013c0:	05d2      	lsls	r2, r2, #23
 80013c2:	d403      	bmi.n	80013cc <HAL_DMA_IRQHandler+0x104>
 80013c4:	680a      	ldr	r2, [r1, #0]
 80013c6:	f022 0208 	bic.w	r2, r2, #8
 80013ca:	600a      	str	r2, [r1, #0]
 80013cc:	6c22      	ldr	r2, [r4, #64]	; 0x40
 80013ce:	2a00      	cmp	r2, #0
 80013d0:	d0a4      	beq.n	800131c <HAL_DMA_IRQHandler+0x54>
 80013d2:	4620      	mov	r0, r4
 80013d4:	4790      	blx	r2
 80013d6:	6de3      	ldr	r3, [r4, #92]	; 0x5c
 80013d8:	e7a0      	b.n	800131c <HAL_DMA_IRQHandler+0x54>
 80013da:	60ba      	str	r2, [r7, #8]
 80013dc:	6d62      	ldr	r2, [r4, #84]	; 0x54
 80013de:	f042 0204 	orr.w	r2, r2, #4
 80013e2:	6562      	str	r2, [r4, #84]	; 0x54
 80013e4:	e792      	b.n	800130c <HAL_DMA_IRQHandler+0x44>
 80013e6:	60ba      	str	r2, [r7, #8]
 80013e8:	6d62      	ldr	r2, [r4, #84]	; 0x54
 80013ea:	f042 0202 	orr.w	r2, r2, #2
 80013ee:	6562      	str	r2, [r4, #84]	; 0x54
 80013f0:	e784      	b.n	80012fc <HAL_DMA_IRQHandler+0x34>
 80013f2:	0311      	lsls	r1, r2, #12
 80013f4:	d5ea      	bpl.n	80013cc <HAL_DMA_IRQHandler+0x104>
 80013f6:	6ca2      	ldr	r2, [r4, #72]	; 0x48
 80013f8:	2a00      	cmp	r2, #0
 80013fa:	d1ea      	bne.n	80013d2 <HAL_DMA_IRQHandler+0x10a>
 80013fc:	e78e      	b.n	800131c <HAL_DMA_IRQHandler+0x54>
 80013fe:	680a      	ldr	r2, [r1, #0]
 8001400:	6c20      	ldr	r0, [r4, #64]	; 0x40
 8001402:	f022 0216 	bic.w	r2, r2, #22
 8001406:	600a      	str	r2, [r1, #0]
 8001408:	694a      	ldr	r2, [r1, #20]
 800140a:	f022 0280 	bic.w	r2, r2, #128	; 0x80
 800140e:	614a      	str	r2, [r1, #20]
 8001410:	b338      	cbz	r0, 8001462 <HAL_DMA_IRQHandler+0x19a>
 8001412:	680a      	ldr	r2, [r1, #0]
 8001414:	f022 0208 	bic.w	r2, r2, #8
 8001418:	600a      	str	r2, [r1, #0]
 800141a:	223f      	movs	r2, #63	; 0x3f
 800141c:	6d21      	ldr	r1, [r4, #80]	; 0x50
 800141e:	fa02 f303 	lsl.w	r3, r2, r3
 8001422:	2000      	movs	r0, #0
 8001424:	2201      	movs	r2, #1
 8001426:	60bb      	str	r3, [r7, #8]
 8001428:	f884 0034 	strb.w	r0, [r4, #52]	; 0x34
 800142c:	f884 2035 	strb.w	r2, [r4, #53]	; 0x35
 8001430:	2900      	cmp	r1, #0
 8001432:	d0b3      	beq.n	800139c <HAL_DMA_IRQHandler+0xd4>
 8001434:	4620      	mov	r0, r4
 8001436:	b003      	add	sp, #12
 8001438:	e8bd 40f0 	ldmia.w	sp!, {r4, r5, r6, r7, lr}
 800143c:	4708      	bx	r1
 800143e:	f413 7380 	ands.w	r3, r3, #256	; 0x100
 8001442:	d180      	bne.n	8001346 <HAL_DMA_IRQHandler+0x7e>
 8001444:	680a      	ldr	r2, [r1, #0]
 8001446:	2001      	movs	r0, #1
 8001448:	f022 0210 	bic.w	r2, r2, #16
 800144c:	600a      	str	r2, [r1, #0]
 800144e:	f884 3034 	strb.w	r3, [r4, #52]	; 0x34
 8001452:	f884 0035 	strb.w	r0, [r4, #53]	; 0x35
 8001456:	e776      	b.n	8001346 <HAL_DMA_IRQHandler+0x7e>
 8001458:	6c63      	ldr	r3, [r4, #68]	; 0x44
 800145a:	2b00      	cmp	r3, #0
 800145c:	f47f af75 	bne.w	800134a <HAL_DMA_IRQHandler+0x82>
 8001460:	e775      	b.n	800134e <HAL_DMA_IRQHandler+0x86>
 8001462:	6ca2      	ldr	r2, [r4, #72]	; 0x48
 8001464:	2a00      	cmp	r2, #0
 8001466:	d1d4      	bne.n	8001412 <HAL_DMA_IRQHandler+0x14a>
 8001468:	e7d7      	b.n	800141a <HAL_DMA_IRQHandler+0x152>
 800146a:	bf00      	nop
 800146c:	20000010 	.word	0x20000010
 8001470:	1b4e81b5 	.word	0x1b4e81b5

08001474 <HAL_DMA_GetState>:
 8001474:	f890 0035 	ldrb.w	r0, [r0, #53]	; 0x35
 8001478:	4770      	bx	lr
 800147a:	bf00      	nop

0800147c <HAL_DMA_GetError>:
 800147c:	6d40      	ldr	r0, [r0, #84]	; 0x54
 800147e:	4770      	bx	lr

08001480 <HAL_GPIO_Init>:
 8001480:	e92d 4ff0 	stmdb	sp!, {r4, r5, r6, r7, r8, r9, sl, fp, lr}
 8001484:	f8df c230 	ldr.w	ip, [pc, #560]	; 80016b8 <HAL_GPIO_Init+0x238>
 8001488:	f8df 8230 	ldr.w	r8, [pc, #560]	; 80016bc <HAL_GPIO_Init+0x23c>
 800148c:	f8d1 e000 	ldr.w	lr, [r1]
 8001490:	b083      	sub	sp, #12
 8001492:	2500      	movs	r5, #0
 8001494:	e003      	b.n	800149e <HAL_GPIO_Init+0x1e>
 8001496:	3501      	adds	r5, #1
 8001498:	2d10      	cmp	r5, #16
 800149a:	f000 809a 	beq.w	80015d2 <HAL_GPIO_Init+0x152>
 800149e:	2301      	movs	r3, #1
 80014a0:	40ab      	lsls	r3, r5
 80014a2:	ea0e 0403 	and.w	r4, lr, r3
 80014a6:	42a3      	cmp	r3, r4
 80014a8:	d1f5      	bne.n	8001496 <HAL_GPIO_Init+0x16>
 80014aa:	684e      	ldr	r6, [r1, #4]
 80014ac:	f026 0a10 	bic.w	sl, r6, #16
 80014b0:	f1ba 0f02 	cmp.w	sl, #2
 80014b4:	f000 8090 	beq.w	80015d8 <HAL_GPIO_Init+0x158>
 80014b8:	ea4f 0945 	mov.w	r9, r5, lsl #1
 80014bc:	2203      	movs	r2, #3
 80014be:	f8d0 b000 	ldr.w	fp, [r0]
 80014c2:	fa02 f209 	lsl.w	r2, r2, r9
 80014c6:	43d2      	mvns	r2, r2
 80014c8:	f006 0703 	and.w	r7, r6, #3
 80014cc:	ea02 0b0b 	and.w	fp, r2, fp
 80014d0:	fa07 f709 	lsl.w	r7, r7, r9
 80014d4:	f10a 3aff 	add.w	sl, sl, #4294967295
 80014d8:	ea47 070b 	orr.w	r7, r7, fp
 80014dc:	f1ba 0f01 	cmp.w	sl, #1
 80014e0:	6007      	str	r7, [r0, #0]
 80014e2:	f240 809f 	bls.w	8001624 <HAL_GPIO_Init+0x1a4>
 80014e6:	68c7      	ldr	r7, [r0, #12]
 80014e8:	688b      	ldr	r3, [r1, #8]
 80014ea:	403a      	ands	r2, r7
 80014ec:	fa03 f309 	lsl.w	r3, r3, r9
 80014f0:	4313      	orrs	r3, r2
 80014f2:	60c3      	str	r3, [r0, #12]
 80014f4:	00f3      	lsls	r3, r6, #3
 80014f6:	d5ce      	bpl.n	8001496 <HAL_GPIO_Init+0x16>
 80014f8:	2300      	movs	r3, #0
 80014fa:	9301      	str	r3, [sp, #4]
 80014fc:	f8d8 3044 	ldr.w	r3, [r8, #68]	; 0x44
 8001500:	f443 4380 	orr.w	r3, r3, #16384	; 0x4000
 8001504:	f8c8 3044 	str.w	r3, [r8, #68]	; 0x44
 8001508:	f8d8 3044 	ldr.w	r3, [r8, #68]	; 0x44
 800150c:	f025 0203 	bic.w	r2, r5, #3
 8001510:	f102 4280 	add.w	r2, r2, #1073741824	; 0x40000000
 8001514:	f403 4380 	and.w	r3, r3, #16384	; 0x4000
 8001518:	f502 329c 	add.w	r2, r2, #79872	; 0x13800
 800151c:	9301      	str	r3, [sp, #4]
 800151e:	f005 0703 	and.w	r7, r5, #3
 8001522:	9b01      	ldr	r3, [sp, #4]
 8001524:	f8d2 9008 	ldr.w	r9, [r2, #8]
 8001528:	00bf      	lsls	r7, r7, #2
 800152a:	230f      	movs	r3, #15
 800152c:	40bb      	lsls	r3, r7
 800152e:	ea29 0a03 	bic.w	sl, r9, r3
 8001532:	4b5b      	ldr	r3, [pc, #364]	; (80016a0 <HAL_GPIO_Init+0x220>)
 8001534:	4298      	cmp	r0, r3
 8001536:	d024      	beq.n	8001582 <HAL_GPIO_Init+0x102>
 8001538:	f503 6380 	add.w	r3, r3, #1024	; 0x400
 800153c:	4298      	cmp	r0, r3
 800153e:	f000 8084 	beq.w	800164a <HAL_GPIO_Init+0x1ca>
 8001542:	4b58      	ldr	r3, [pc, #352]	; (80016a4 <HAL_GPIO_Init+0x224>)
 8001544:	4298      	cmp	r0, r3
 8001546:	f000 8087 	beq.w	8001658 <HAL_GPIO_Init+0x1d8>
 800154a:	4b57      	ldr	r3, [pc, #348]	; (80016a8 <HAL_GPIO_Init+0x228>)
 800154c:	4298      	cmp	r0, r3
 800154e:	f000 808a 	beq.w	8001666 <HAL_GPIO_Init+0x1e6>
 8001552:	4b56      	ldr	r3, [pc, #344]	; (80016ac <HAL_GPIO_Init+0x22c>)
 8001554:	4298      	cmp	r0, r3
 8001556:	f000 808d 	beq.w	8001674 <HAL_GPIO_Init+0x1f4>
 800155a:	4b55      	ldr	r3, [pc, #340]	; (80016b0 <HAL_GPIO_Init+0x230>)
 800155c:	4298      	cmp	r0, r3
 800155e:	f000 8090 	beq.w	8001682 <HAL_GPIO_Init+0x202>
 8001562:	4b54      	ldr	r3, [pc, #336]	; (80016b4 <HAL_GPIO_Init+0x234>)
 8001564:	4298      	cmp	r0, r3
 8001566:	f000 8093 	beq.w	8001690 <HAL_GPIO_Init+0x210>
 800156a:	f8df 9154 	ldr.w	r9, [pc, #340]	; 80016c0 <HAL_GPIO_Init+0x240>
 800156e:	4548      	cmp	r0, r9
 8001570:	bf0c      	ite	eq
 8001572:	f04f 0907 	moveq.w	r9, #7
 8001576:	f04f 0908 	movne.w	r9, #8
 800157a:	fa09 f707 	lsl.w	r7, r9, r7
 800157e:	ea4a 0a07 	orr.w	sl, sl, r7
 8001582:	f8c2 a008 	str.w	sl, [r2, #8]
 8001586:	f8dc 3000 	ldr.w	r3, [ip]
 800158a:	43e2      	mvns	r2, r4
 800158c:	03f7      	lsls	r7, r6, #15
 800158e:	bf54      	ite	pl
 8001590:	4013      	andpl	r3, r2
 8001592:	4323      	orrmi	r3, r4
 8001594:	f8cc 3000 	str.w	r3, [ip]
 8001598:	f8dc 3004 	ldr.w	r3, [ip, #4]
 800159c:	03b7      	lsls	r7, r6, #14
 800159e:	bf54      	ite	pl
 80015a0:	4013      	andpl	r3, r2
 80015a2:	4323      	orrmi	r3, r4
 80015a4:	f8cc 3004 	str.w	r3, [ip, #4]
 80015a8:	f8dc 3008 	ldr.w	r3, [ip, #8]
 80015ac:	02f7      	lsls	r7, r6, #11
 80015ae:	bf54      	ite	pl
 80015b0:	4013      	andpl	r3, r2
 80015b2:	4323      	orrmi	r3, r4
 80015b4:	f8cc 3008 	str.w	r3, [ip, #8]
 80015b8:	f8dc 300c 	ldr.w	r3, [ip, #12]
 80015bc:	02b6      	lsls	r6, r6, #10
 80015be:	f105 0501 	add.w	r5, r5, #1
 80015c2:	bf54      	ite	pl
 80015c4:	4013      	andpl	r3, r2
 80015c6:	4323      	orrmi	r3, r4
 80015c8:	2d10      	cmp	r5, #16
 80015ca:	f8cc 300c 	str.w	r3, [ip, #12]
 80015ce:	f47f af66 	bne.w	800149e <HAL_GPIO_Init+0x1e>
 80015d2:	b003      	add	sp, #12
 80015d4:	e8bd 8ff0 	ldmia.w	sp!, {r4, r5, r6, r7, r8, r9, sl, fp, pc}
 80015d8:	ea4f 09d5 	mov.w	r9, r5, lsr #3
 80015dc:	eb00 0989 	add.w	r9, r0, r9, lsl #2
 80015e0:	f005 0707 	and.w	r7, r5, #7
 80015e4:	f8d9 2020 	ldr.w	r2, [r9, #32]
 80015e8:	00bf      	lsls	r7, r7, #2
 80015ea:	f04f 0b0f 	mov.w	fp, #15
 80015ee:	fa0b fb07 	lsl.w	fp, fp, r7
 80015f2:	ea22 0a0b 	bic.w	sl, r2, fp
 80015f6:	690a      	ldr	r2, [r1, #16]
 80015f8:	40ba      	lsls	r2, r7
 80015fa:	ea42 020a 	orr.w	r2, r2, sl
 80015fe:	f8c9 2020 	str.w	r2, [r9, #32]
 8001602:	ea4f 0945 	mov.w	r9, r5, lsl #1
 8001606:	2203      	movs	r2, #3
 8001608:	f8d0 a000 	ldr.w	sl, [r0]
 800160c:	fa02 f209 	lsl.w	r2, r2, r9
 8001610:	43d2      	mvns	r2, r2
 8001612:	f006 0703 	and.w	r7, r6, #3
 8001616:	ea02 0a0a 	and.w	sl, r2, sl
 800161a:	fa07 f709 	lsl.w	r7, r7, r9
 800161e:	ea47 070a 	orr.w	r7, r7, sl
 8001622:	6007      	str	r7, [r0, #0]
 8001624:	6887      	ldr	r7, [r0, #8]
 8001626:	ea07 0a02 	and.w	sl, r7, r2
 800162a:	68cf      	ldr	r7, [r1, #12]
 800162c:	fa07 f709 	lsl.w	r7, r7, r9
 8001630:	ea47 070a 	orr.w	r7, r7, sl
 8001634:	6087      	str	r7, [r0, #8]
 8001636:	f8d0 a004 	ldr.w	sl, [r0, #4]
 800163a:	f3c6 1700 	ubfx	r7, r6, #4, #1
 800163e:	ea2a 0303 	bic.w	r3, sl, r3
 8001642:	40af      	lsls	r7, r5
 8001644:	431f      	orrs	r7, r3
 8001646:	6047      	str	r7, [r0, #4]
 8001648:	e74d      	b.n	80014e6 <HAL_GPIO_Init+0x66>
 800164a:	f04f 0901 	mov.w	r9, #1
 800164e:	fa09 f707 	lsl.w	r7, r9, r7
 8001652:	ea4a 0a07 	orr.w	sl, sl, r7
 8001656:	e794      	b.n	8001582 <HAL_GPIO_Init+0x102>
 8001658:	f04f 0902 	mov.w	r9, #2
 800165c:	fa09 f707 	lsl.w	r7, r9, r7
 8001660:	ea4a 0a07 	orr.w	sl, sl, r7
 8001664:	e78d      	b.n	8001582 <HAL_GPIO_Init+0x102>
 8001666:	f04f 0903 	mov.w	r9, #3
 800166a:	fa09 f707 	lsl.w	r7, r9, r7
 800166e:	ea4a 0a07 	orr.w	sl, sl, r7
 8001672:	e786      	b.n	8001582 <HAL_GPIO_Init+0x102>
 8001674:	f04f 0904 	mov.w	r9, #4
 8001678:	fa09 f707 	lsl.w	r7, r9, r7
 800167c:	ea4a 0a07 	orr.w	sl, sl, r7
 8001680:	e77f      	b.n	8001582 <HAL_GPIO_Init+0x102>
 8001682:	f04f 0905 	mov.w	r9, #5
 8001686:	fa09 f707 	lsl.w	r7, r9, r7
 800168a:	ea4a 0a07 	orr.w	sl, sl, r7
 800168e:	e778      	b.n	8001582 <HAL_GPIO_Init+0x102>
 8001690:	f04f 0906 	mov.w	r9, #6
 8001694:	fa09 f707 	lsl.w	r7, r9, r7
 8001698:	ea4a 0a07 	orr.w	sl, sl, r7
 800169c:	e771      	b.n	8001582 <HAL_GPIO_Init+0x102>
 800169e:	bf00      	nop
 80016a0:	40020000 	.word	0x40020000
 80016a4:	40020800 	.word	0x40020800
 80016a8:	40020c00 	.word	0x40020c00
 80016ac:	40021000 	.word	0x40021000
 80016b0:	40021400 	.word	0x40021400
 80016b4:	40021800 	.word	0x40021800
 80016b8:	40013c00 	.word	0x40013c00
 80016bc:	40023800 	.word	0x40023800
 80016c0:	40021c00 	.word	0x40021c00

080016c4 <HAL_GPIO_ReadPin>:
 80016c4:	6903      	ldr	r3, [r0, #16]
 80016c6:	4219      	tst	r1, r3
 80016c8:	bf14      	ite	ne
 80016ca:	2001      	movne	r0, #1
 80016cc:	2000      	moveq	r0, #0
 80016ce:	4770      	bx	lr

080016d0 <HAL_GPIO_WritePin>:
 80016d0:	b902      	cbnz	r2, 80016d4 <HAL_GPIO_WritePin+0x4>
 80016d2:	0409      	lsls	r1, r1, #16
 80016d4:	6181      	str	r1, [r0, #24]
 80016d6:	4770      	bx	lr

080016d8 <HAL_GPIO_TogglePin>:
 80016d8:	6943      	ldr	r3, [r0, #20]
 80016da:	ea31 0303 	bics.w	r3, r1, r3
 80016de:	bf08      	it	eq
 80016e0:	0409      	lsleq	r1, r1, #16
 80016e2:	6181      	str	r1, [r0, #24]
 80016e4:	4770      	bx	lr
 80016e6:	bf00      	nop

080016e8 <I2C_RequestMemoryWrite>:
 80016e8:	e92d 42f0 	stmdb	sp!, {r4, r5, r6, r7, r9, lr}
 80016ec:	4605      	mov	r5, r0
 80016ee:	6800      	ldr	r0, [r0, #0]
 80016f0:	b082      	sub	sp, #8
 80016f2:	4689      	mov	r9, r1
 80016f4:	6801      	ldr	r1, [r0, #0]
 80016f6:	9c08      	ldr	r4, [sp, #32]
 80016f8:	f441 7180 	orr.w	r1, r1, #256	; 0x100
 80016fc:	4616      	mov	r6, r2
 80016fe:	461f      	mov	r7, r3
 8001700:	6001      	str	r1, [r0, #0]
 8001702:	1c62      	adds	r2, r4, #1
 8001704:	d140      	bne.n	8001788 <I2C_RequestMemoryWrite+0xa0>
 8001706:	6943      	ldr	r3, [r0, #20]
 8001708:	07db      	lsls	r3, r3, #31
 800170a:	d5fc      	bpl.n	8001706 <I2C_RequestMemoryWrite+0x1e>
 800170c:	f009 01fe 	and.w	r1, r9, #254	; 0xfe
 8001710:	6101      	str	r1, [r0, #16]
 8001712:	1c63      	adds	r3, r4, #1
 8001714:	d012      	beq.n	800173c <I2C_RequestMemoryWrite+0x54>
 8001716:	6943      	ldr	r3, [r0, #20]
 8001718:	079b      	lsls	r3, r3, #30
 800171a:	d412      	bmi.n	8001742 <I2C_RequestMemoryWrite+0x5a>
 800171c:	6943      	ldr	r3, [r0, #20]
 800171e:	055a      	lsls	r2, r3, #21
 8001720:	d43e      	bmi.n	80017a0 <I2C_RequestMemoryWrite+0xb8>
 8001722:	f7ff fbff 	bl	8000f24 <HAL_GetTick>
 8001726:	9b09      	ldr	r3, [sp, #36]	; 0x24
 8001728:	1ac0      	subs	r0, r0, r3
 800172a:	4284      	cmp	r4, r0
 800172c:	d350      	bcc.n	80017d0 <I2C_RequestMemoryWrite+0xe8>
 800172e:	2c00      	cmp	r4, #0
 8001730:	d04e      	beq.n	80017d0 <I2C_RequestMemoryWrite+0xe8>
 8001732:	6828      	ldr	r0, [r5, #0]
 8001734:	e7ed      	b.n	8001712 <I2C_RequestMemoryWrite+0x2a>
 8001736:	6943      	ldr	r3, [r0, #20]
 8001738:	055a      	lsls	r2, r3, #21
 800173a:	d431      	bmi.n	80017a0 <I2C_RequestMemoryWrite+0xb8>
 800173c:	6943      	ldr	r3, [r0, #20]
 800173e:	0799      	lsls	r1, r3, #30
 8001740:	d5f9      	bpl.n	8001736 <I2C_RequestMemoryWrite+0x4e>
 8001742:	2300      	movs	r3, #0
 8001744:	9301      	str	r3, [sp, #4]
 8001746:	6943      	ldr	r3, [r0, #20]
 8001748:	9301      	str	r3, [sp, #4]
 800174a:	6983      	ldr	r3, [r0, #24]
 800174c:	9301      	str	r3, [sp, #4]
 800174e:	9b01      	ldr	r3, [sp, #4]
 8001750:	1c62      	adds	r2, r4, #1
 8001752:	d003      	beq.n	800175c <I2C_RequestMemoryWrite+0x74>
 8001754:	e065      	b.n	8001822 <I2C_RequestMemoryWrite+0x13a>
 8001756:	6943      	ldr	r3, [r0, #20]
 8001758:	0559      	lsls	r1, r3, #21
 800175a:	d448      	bmi.n	80017ee <I2C_RequestMemoryWrite+0x106>
 800175c:	6943      	ldr	r3, [r0, #20]
 800175e:	061b      	lsls	r3, r3, #24
 8001760:	d5f9      	bpl.n	8001756 <I2C_RequestMemoryWrite+0x6e>
 8001762:	2f01      	cmp	r7, #1
 8001764:	d00a      	beq.n	800177c <I2C_RequestMemoryWrite+0x94>
 8001766:	0a33      	lsrs	r3, r6, #8
 8001768:	6103      	str	r3, [r0, #16]
 800176a:	1c67      	adds	r7, r4, #1
 800176c:	d003      	beq.n	8001776 <I2C_RequestMemoryWrite+0x8e>
 800176e:	e067      	b.n	8001840 <I2C_RequestMemoryWrite+0x158>
 8001770:	6943      	ldr	r3, [r0, #20]
 8001772:	055a      	lsls	r2, r3, #21
 8001774:	d43b      	bmi.n	80017ee <I2C_RequestMemoryWrite+0x106>
 8001776:	6943      	ldr	r3, [r0, #20]
 8001778:	0619      	lsls	r1, r3, #24
 800177a:	d5f9      	bpl.n	8001770 <I2C_RequestMemoryWrite+0x88>
 800177c:	b2f6      	uxtb	r6, r6
 800177e:	6106      	str	r6, [r0, #16]
 8001780:	2000      	movs	r0, #0
 8001782:	b002      	add	sp, #8
 8001784:	e8bd 82f0 	ldmia.w	sp!, {r4, r5, r6, r7, r9, pc}
 8001788:	6943      	ldr	r3, [r0, #20]
 800178a:	07d9      	lsls	r1, r3, #31
 800178c:	d4be      	bmi.n	800170c <I2C_RequestMemoryWrite+0x24>
 800178e:	f7ff fbc9 	bl	8000f24 <HAL_GetTick>
 8001792:	9b09      	ldr	r3, [sp, #36]	; 0x24
 8001794:	1ac0      	subs	r0, r0, r3
 8001796:	4284      	cmp	r4, r0
 8001798:	d31a      	bcc.n	80017d0 <I2C_RequestMemoryWrite+0xe8>
 800179a:	b1cc      	cbz	r4, 80017d0 <I2C_RequestMemoryWrite+0xe8>
 800179c:	6828      	ldr	r0, [r5, #0]
 800179e:	e7b0      	b.n	8001702 <I2C_RequestMemoryWrite+0x1a>
 80017a0:	6803      	ldr	r3, [r0, #0]
 80017a2:	2200      	movs	r2, #0
 80017a4:	f46f 6480 	mvn.w	r4, #1024	; 0x400
 80017a8:	f443 7300 	orr.w	r3, r3, #512	; 0x200
 80017ac:	2120      	movs	r1, #32
 80017ae:	6003      	str	r3, [r0, #0]
 80017b0:	6144      	str	r4, [r0, #20]
 80017b2:	632a      	str	r2, [r5, #48]	; 0x30
 80017b4:	f885 103d 	strb.w	r1, [r5, #61]	; 0x3d
 80017b8:	f885 203e 	strb.w	r2, [r5, #62]	; 0x3e
 80017bc:	6c2b      	ldr	r3, [r5, #64]	; 0x40
 80017be:	f885 203c 	strb.w	r2, [r5, #60]	; 0x3c
 80017c2:	f043 0304 	orr.w	r3, r3, #4
 80017c6:	2001      	movs	r0, #1
 80017c8:	642b      	str	r3, [r5, #64]	; 0x40
 80017ca:	b002      	add	sp, #8
 80017cc:	e8bd 82f0 	ldmia.w	sp!, {r4, r5, r6, r7, r9, pc}
 80017d0:	2200      	movs	r2, #0
 80017d2:	2320      	movs	r3, #32
 80017d4:	632a      	str	r2, [r5, #48]	; 0x30
 80017d6:	f885 303d 	strb.w	r3, [r5, #61]	; 0x3d
 80017da:	f885 203e 	strb.w	r2, [r5, #62]	; 0x3e
 80017de:	6c2b      	ldr	r3, [r5, #64]	; 0x40
 80017e0:	f885 203c 	strb.w	r2, [r5, #60]	; 0x3c
 80017e4:	f043 0320 	orr.w	r3, r3, #32
 80017e8:	642b      	str	r3, [r5, #64]	; 0x40
 80017ea:	2001      	movs	r0, #1
 80017ec:	e7c9      	b.n	8001782 <I2C_RequestMemoryWrite+0x9a>
 80017ee:	2200      	movs	r2, #0
 80017f0:	2320      	movs	r3, #32
 80017f2:	f46f 6180 	mvn.w	r1, #1024	; 0x400
 80017f6:	6141      	str	r1, [r0, #20]
 80017f8:	632a      	str	r2, [r5, #48]	; 0x30
 80017fa:	f885 303d 	strb.w	r3, [r5, #61]	; 0x3d
 80017fe:	f885 203e 	strb.w	r2, [r5, #62]	; 0x3e
 8001802:	6c2b      	ldr	r3, [r5, #64]	; 0x40
 8001804:	f885 203c 	strb.w	r2, [r5, #60]	; 0x3c
 8001808:	f043 0304 	orr.w	r3, r3, #4
 800180c:	642b      	str	r3, [r5, #64]	; 0x40
 800180e:	6c2b      	ldr	r3, [r5, #64]	; 0x40
 8001810:	2b04      	cmp	r3, #4
 8001812:	d104      	bne.n	800181e <I2C_RequestMemoryWrite+0x136>
 8001814:	682a      	ldr	r2, [r5, #0]
 8001816:	6813      	ldr	r3, [r2, #0]
 8001818:	f443 7300 	orr.w	r3, r3, #512	; 0x200
 800181c:	6013      	str	r3, [r2, #0]
 800181e:	2001      	movs	r0, #1
 8001820:	e7af      	b.n	8001782 <I2C_RequestMemoryWrite+0x9a>
 8001822:	6943      	ldr	r3, [r0, #20]
 8001824:	061a      	lsls	r2, r3, #24
 8001826:	d49c      	bmi.n	8001762 <I2C_RequestMemoryWrite+0x7a>
 8001828:	6943      	ldr	r3, [r0, #20]
 800182a:	0559      	lsls	r1, r3, #21
 800182c:	d4df      	bmi.n	80017ee <I2C_RequestMemoryWrite+0x106>
 800182e:	f7ff fb79 	bl	8000f24 <HAL_GetTick>
 8001832:	9b09      	ldr	r3, [sp, #36]	; 0x24
 8001834:	1ac0      	subs	r0, r0, r3
 8001836:	4284      	cmp	r4, r0
 8001838:	d311      	bcc.n	800185e <I2C_RequestMemoryWrite+0x176>
 800183a:	b184      	cbz	r4, 800185e <I2C_RequestMemoryWrite+0x176>
 800183c:	6828      	ldr	r0, [r5, #0]
 800183e:	e787      	b.n	8001750 <I2C_RequestMemoryWrite+0x68>
 8001840:	6943      	ldr	r3, [r0, #20]
 8001842:	061b      	lsls	r3, r3, #24
 8001844:	d49a      	bmi.n	800177c <I2C_RequestMemoryWrite+0x94>
 8001846:	6943      	ldr	r3, [r0, #20]
 8001848:	055b      	lsls	r3, r3, #21
 800184a:	d4d0      	bmi.n	80017ee <I2C_RequestMemoryWrite+0x106>
 800184c:	f7ff fb6a 	bl	8000f24 <HAL_GetTick>
 8001850:	9b09      	ldr	r3, [sp, #36]	; 0x24
 8001852:	1ac0      	subs	r0, r0, r3
 8001854:	4284      	cmp	r4, r0
 8001856:	d302      	bcc.n	800185e <I2C_RequestMemoryWrite+0x176>
 8001858:	b10c      	cbz	r4, 800185e <I2C_RequestMemoryWrite+0x176>
 800185a:	6828      	ldr	r0, [r5, #0]
 800185c:	e785      	b.n	800176a <I2C_RequestMemoryWrite+0x82>
 800185e:	2200      	movs	r2, #0
 8001860:	2320      	movs	r3, #32
 8001862:	632a      	str	r2, [r5, #48]	; 0x30
 8001864:	f885 303d 	strb.w	r3, [r5, #61]	; 0x3d
 8001868:	f885 203e 	strb.w	r2, [r5, #62]	; 0x3e
 800186c:	6c2b      	ldr	r3, [r5, #64]	; 0x40
 800186e:	f885 203c 	strb.w	r2, [r5, #60]	; 0x3c
 8001872:	f043 0320 	orr.w	r3, r3, #32
 8001876:	642b      	str	r3, [r5, #64]	; 0x40
 8001878:	e7c9      	b.n	800180e <I2C_RequestMemoryWrite+0x126>
 800187a:	bf00      	nop

0800187c <I2C_RequestMemoryRead>:
 800187c:	e92d 42f0 	stmdb	sp!, {r4, r5, r6, r7, r9, lr}
 8001880:	4605      	mov	r5, r0
 8001882:	6800      	ldr	r0, [r0, #0]
 8001884:	4689      	mov	r9, r1
 8001886:	6801      	ldr	r1, [r0, #0]
 8001888:	f441 6180 	orr.w	r1, r1, #1024	; 0x400
 800188c:	6001      	str	r1, [r0, #0]
 800188e:	6801      	ldr	r1, [r0, #0]
 8001890:	b082      	sub	sp, #8
 8001892:	f441 7180 	orr.w	r1, r1, #256	; 0x100
 8001896:	9c08      	ldr	r4, [sp, #32]
 8001898:	6001      	str	r1, [r0, #0]
 800189a:	4616      	mov	r6, r2
 800189c:	461f      	mov	r7, r3
 800189e:	1c61      	adds	r1, r4, #1
 80018a0:	d157      	bne.n	8001952 <I2C_RequestMemoryRead+0xd6>
 80018a2:	6943      	ldr	r3, [r0, #20]
 80018a4:	07da      	lsls	r2, r3, #31
 80018a6:	d5fc      	bpl.n	80018a2 <I2C_RequestMemoryRead+0x26>
 80018a8:	fa5f f989 	uxtb.w	r9, r9
 80018ac:	f009 03fe 	and.w	r3, r9, #254	; 0xfe
 80018b0:	6103      	str	r3, [r0, #16]
 80018b2:	1c62      	adds	r2, r4, #1
 80018b4:	d012      	beq.n	80018dc <I2C_RequestMemoryRead+0x60>
 80018b6:	6943      	ldr	r3, [r0, #20]
 80018b8:	079a      	lsls	r2, r3, #30
 80018ba:	d412      	bmi.n	80018e2 <I2C_RequestMemoryRead+0x66>
 80018bc:	6943      	ldr	r3, [r0, #20]
 80018be:	0559      	lsls	r1, r3, #21
 80018c0:	d453      	bmi.n	800196a <I2C_RequestMemoryRead+0xee>
 80018c2:	f7ff fb2f 	bl	8000f24 <HAL_GetTick>
 80018c6:	9b09      	ldr	r3, [sp, #36]	; 0x24
 80018c8:	1ac0      	subs	r0, r0, r3
 80018ca:	4284      	cmp	r4, r0
 80018cc:	d37c      	bcc.n	80019c8 <I2C_RequestMemoryRead+0x14c>
 80018ce:	2c00      	cmp	r4, #0
 80018d0:	d07a      	beq.n	80019c8 <I2C_RequestMemoryRead+0x14c>
 80018d2:	6828      	ldr	r0, [r5, #0]
 80018d4:	e7ed      	b.n	80018b2 <I2C_RequestMemoryRead+0x36>
 80018d6:	6943      	ldr	r3, [r0, #20]
 80018d8:	0559      	lsls	r1, r3, #21
 80018da:	d446      	bmi.n	800196a <I2C_RequestMemoryRead+0xee>
 80018dc:	6943      	ldr	r3, [r0, #20]
 80018de:	079b      	lsls	r3, r3, #30
 80018e0:	d5f9      	bpl.n	80018d6 <I2C_RequestMemoryRead+0x5a>
 80018e2:	2300      	movs	r3, #0
 80018e4:	9301      	str	r3, [sp, #4]
 80018e6:	6943      	ldr	r3, [r0, #20]
 80018e8:	9301      	str	r3, [sp, #4]
 80018ea:	6983      	ldr	r3, [r0, #24]
 80018ec:	9301      	str	r3, [sp, #4]
 80018ee:	9b01      	ldr	r3, [sp, #4]
 80018f0:	1c61      	adds	r1, r4, #1
 80018f2:	d003      	beq.n	80018fc <I2C_RequestMemoryRead+0x80>
 80018f4:	e076      	b.n	80019e4 <I2C_RequestMemoryRead+0x168>
 80018f6:	6943      	ldr	r3, [r0, #20]
 80018f8:	055b      	lsls	r3, r3, #21
 80018fa:	d44e      	bmi.n	800199a <I2C_RequestMemoryRead+0x11e>
 80018fc:	6943      	ldr	r3, [r0, #20]
 80018fe:	061a      	lsls	r2, r3, #24
 8001900:	d5f9      	bpl.n	80018f6 <I2C_RequestMemoryRead+0x7a>
 8001902:	2f01      	cmp	r7, #1
 8001904:	d17e      	bne.n	8001a04 <I2C_RequestMemoryRead+0x188>
 8001906:	b2f6      	uxtb	r6, r6
 8001908:	6106      	str	r6, [r0, #16]
 800190a:	1c67      	adds	r7, r4, #1
 800190c:	d003      	beq.n	8001916 <I2C_RequestMemoryRead+0x9a>
 800190e:	e08d      	b.n	8001a2c <I2C_RequestMemoryRead+0x1b0>
 8001910:	6943      	ldr	r3, [r0, #20]
 8001912:	0559      	lsls	r1, r3, #21
 8001914:	d441      	bmi.n	800199a <I2C_RequestMemoryRead+0x11e>
 8001916:	6943      	ldr	r3, [r0, #20]
 8001918:	061e      	lsls	r6, r3, #24
 800191a:	d5f9      	bpl.n	8001910 <I2C_RequestMemoryRead+0x94>
 800191c:	6803      	ldr	r3, [r0, #0]
 800191e:	f443 7380 	orr.w	r3, r3, #256	; 0x100
 8001922:	6003      	str	r3, [r0, #0]
 8001924:	1c63      	adds	r3, r4, #1
 8001926:	f040 80a1 	bne.w	8001a6c <I2C_RequestMemoryRead+0x1f0>
 800192a:	6943      	ldr	r3, [r0, #20]
 800192c:	07df      	lsls	r7, r3, #31
 800192e:	d5fc      	bpl.n	800192a <I2C_RequestMemoryRead+0xae>
 8001930:	f049 0901 	orr.w	r9, r9, #1
 8001934:	f8c0 9010 	str.w	r9, [r0, #16]
 8001938:	1c62      	adds	r2, r4, #1
 800193a:	d003      	beq.n	8001944 <I2C_RequestMemoryRead+0xc8>
 800193c:	e0b2      	b.n	8001aa4 <I2C_RequestMemoryRead+0x228>
 800193e:	6943      	ldr	r3, [r0, #20]
 8001940:	055b      	lsls	r3, r3, #21
 8001942:	d412      	bmi.n	800196a <I2C_RequestMemoryRead+0xee>
 8001944:	6943      	ldr	r3, [r0, #20]
 8001946:	43db      	mvns	r3, r3
 8001948:	f013 0302 	ands.w	r3, r3, #2
 800194c:	d1f7      	bne.n	800193e <I2C_RequestMemoryRead+0xc2>
 800194e:	4618      	mov	r0, r3
 8001950:	e020      	b.n	8001994 <I2C_RequestMemoryRead+0x118>
 8001952:	6943      	ldr	r3, [r0, #20]
 8001954:	07db      	lsls	r3, r3, #31
 8001956:	d4a7      	bmi.n	80018a8 <I2C_RequestMemoryRead+0x2c>
 8001958:	f7ff fae4 	bl	8000f24 <HAL_GetTick>
 800195c:	9b09      	ldr	r3, [sp, #36]	; 0x24
 800195e:	1ac0      	subs	r0, r0, r3
 8001960:	4284      	cmp	r4, r0
 8001962:	d331      	bcc.n	80019c8 <I2C_RequestMemoryRead+0x14c>
 8001964:	b384      	cbz	r4, 80019c8 <I2C_RequestMemoryRead+0x14c>
 8001966:	6828      	ldr	r0, [r5, #0]
 8001968:	e799      	b.n	800189e <I2C_RequestMemoryRead+0x22>
 800196a:	6803      	ldr	r3, [r0, #0]
 800196c:	2200      	movs	r2, #0
 800196e:	f443 7300 	orr.w	r3, r3, #512	; 0x200
 8001972:	f46f 6480 	mvn.w	r4, #1024	; 0x400
 8001976:	2120      	movs	r1, #32
 8001978:	6003      	str	r3, [r0, #0]
 800197a:	6144      	str	r4, [r0, #20]
 800197c:	632a      	str	r2, [r5, #48]	; 0x30
 800197e:	f885 103d 	strb.w	r1, [r5, #61]	; 0x3d
 8001982:	f885 203e 	strb.w	r2, [r5, #62]	; 0x3e
 8001986:	6c2b      	ldr	r3, [r5, #64]	; 0x40
 8001988:	f885 203c 	strb.w	r2, [r5, #60]	; 0x3c
 800198c:	f043 0304 	orr.w	r3, r3, #4
 8001990:	642b      	str	r3, [r5, #64]	; 0x40
 8001992:	2001      	movs	r0, #1
 8001994:	b002      	add	sp, #8
 8001996:	e8bd 82f0 	ldmia.w	sp!, {r4, r5, r6, r7, r9, pc}
 800199a:	2200      	movs	r2, #0
 800199c:	2320      	movs	r3, #32
 800199e:	f46f 6180 	mvn.w	r1, #1024	; 0x400
 80019a2:	6141      	str	r1, [r0, #20]
 80019a4:	632a      	str	r2, [r5, #48]	; 0x30
 80019a6:	f885 303d 	strb.w	r3, [r5, #61]	; 0x3d
 80019aa:	f885 203e 	strb.w	r2, [r5, #62]	; 0x3e
 80019ae:	6c2b      	ldr	r3, [r5, #64]	; 0x40
 80019b0:	f885 203c 	strb.w	r2, [r5, #60]	; 0x3c
 80019b4:	f043 0304 	orr.w	r3, r3, #4
 80019b8:	642b      	str	r3, [r5, #64]	; 0x40
 80019ba:	6c2b      	ldr	r3, [r5, #64]	; 0x40
 80019bc:	2b04      	cmp	r3, #4
 80019be:	d02e      	beq.n	8001a1e <I2C_RequestMemoryRead+0x1a2>
 80019c0:	2001      	movs	r0, #1
 80019c2:	b002      	add	sp, #8
 80019c4:	e8bd 82f0 	ldmia.w	sp!, {r4, r5, r6, r7, r9, pc}
 80019c8:	2200      	movs	r2, #0
 80019ca:	2320      	movs	r3, #32
 80019cc:	632a      	str	r2, [r5, #48]	; 0x30
 80019ce:	f885 303d 	strb.w	r3, [r5, #61]	; 0x3d
 80019d2:	f885 203e 	strb.w	r2, [r5, #62]	; 0x3e
 80019d6:	6c2b      	ldr	r3, [r5, #64]	; 0x40
 80019d8:	f885 203c 	strb.w	r2, [r5, #60]	; 0x3c
 80019dc:	f043 0320 	orr.w	r3, r3, #32
 80019e0:	642b      	str	r3, [r5, #64]	; 0x40
 80019e2:	e7ed      	b.n	80019c0 <I2C_RequestMemoryRead+0x144>
 80019e4:	6943      	ldr	r3, [r0, #20]
 80019e6:	0619      	lsls	r1, r3, #24
 80019e8:	d48b      	bmi.n	8001902 <I2C_RequestMemoryRead+0x86>
 80019ea:	6943      	ldr	r3, [r0, #20]
 80019ec:	055b      	lsls	r3, r3, #21
 80019ee:	d4d4      	bmi.n	800199a <I2C_RequestMemoryRead+0x11e>
 80019f0:	f7ff fa98 	bl	8000f24 <HAL_GetTick>
 80019f4:	9b09      	ldr	r3, [sp, #36]	; 0x24
 80019f6:	1ac0      	subs	r0, r0, r3
 80019f8:	4284      	cmp	r4, r0
 80019fa:	d345      	bcc.n	8001a88 <I2C_RequestMemoryRead+0x20c>
 80019fc:	2c00      	cmp	r4, #0
 80019fe:	d043      	beq.n	8001a88 <I2C_RequestMemoryRead+0x20c>
 8001a00:	6828      	ldr	r0, [r5, #0]
 8001a02:	e775      	b.n	80018f0 <I2C_RequestMemoryRead+0x74>
 8001a04:	0a33      	lsrs	r3, r6, #8
 8001a06:	6103      	str	r3, [r0, #16]
 8001a08:	1c63      	adds	r3, r4, #1
 8001a0a:	d003      	beq.n	8001a14 <I2C_RequestMemoryRead+0x198>
 8001a0c:	e01e      	b.n	8001a4c <I2C_RequestMemoryRead+0x1d0>
 8001a0e:	6943      	ldr	r3, [r0, #20]
 8001a10:	0559      	lsls	r1, r3, #21
 8001a12:	d4c2      	bmi.n	800199a <I2C_RequestMemoryRead+0x11e>
 8001a14:	6943      	ldr	r3, [r0, #20]
 8001a16:	061f      	lsls	r7, r3, #24
 8001a18:	f53f af75 	bmi.w	8001906 <I2C_RequestMemoryRead+0x8a>
 8001a1c:	e7f7      	b.n	8001a0e <I2C_RequestMemoryRead+0x192>
 8001a1e:	682a      	ldr	r2, [r5, #0]
 8001a20:	6813      	ldr	r3, [r2, #0]
 8001a22:	f443 7300 	orr.w	r3, r3, #512	; 0x200
 8001a26:	6013      	str	r3, [r2, #0]
 8001a28:	2001      	movs	r0, #1
 8001a2a:	e7b3      	b.n	8001994 <I2C_RequestMemoryRead+0x118>
 8001a2c:	6943      	ldr	r3, [r0, #20]
 8001a2e:	061a      	lsls	r2, r3, #24
 8001a30:	f53f af74 	bmi.w	800191c <I2C_RequestMemoryRead+0xa0>
 8001a34:	6943      	ldr	r3, [r0, #20]
 8001a36:	055b      	lsls	r3, r3, #21
 8001a38:	d4af      	bmi.n	800199a <I2C_RequestMemoryRead+0x11e>
 8001a3a:	f7ff fa73 	bl	8000f24 <HAL_GetTick>
 8001a3e:	9b09      	ldr	r3, [sp, #36]	; 0x24
 8001a40:	1ac0      	subs	r0, r0, r3
 8001a42:	4284      	cmp	r4, r0
 8001a44:	d320      	bcc.n	8001a88 <I2C_RequestMemoryRead+0x20c>
 8001a46:	b1fc      	cbz	r4, 8001a88 <I2C_RequestMemoryRead+0x20c>
 8001a48:	6828      	ldr	r0, [r5, #0]
 8001a4a:	e75e      	b.n	800190a <I2C_RequestMemoryRead+0x8e>
 8001a4c:	6943      	ldr	r3, [r0, #20]
 8001a4e:	061a      	lsls	r2, r3, #24
 8001a50:	f53f af59 	bmi.w	8001906 <I2C_RequestMemoryRead+0x8a>
 8001a54:	6943      	ldr	r3, [r0, #20]
 8001a56:	055a      	lsls	r2, r3, #21
 8001a58:	d49f      	bmi.n	800199a <I2C_RequestMemoryRead+0x11e>
 8001a5a:	f7ff fa63 	bl	8000f24 <HAL_GetTick>
 8001a5e:	9b09      	ldr	r3, [sp, #36]	; 0x24
 8001a60:	1ac0      	subs	r0, r0, r3
 8001a62:	4284      	cmp	r4, r0
 8001a64:	d310      	bcc.n	8001a88 <I2C_RequestMemoryRead+0x20c>
 8001a66:	b17c      	cbz	r4, 8001a88 <I2C_RequestMemoryRead+0x20c>
 8001a68:	6828      	ldr	r0, [r5, #0]
 8001a6a:	e7cd      	b.n	8001a08 <I2C_RequestMemoryRead+0x18c>
 8001a6c:	6943      	ldr	r3, [r0, #20]
 8001a6e:	07de      	lsls	r6, r3, #31
 8001a70:	f53f af5e 	bmi.w	8001930 <I2C_RequestMemoryRead+0xb4>
 8001a74:	f7ff fa56 	bl	8000f24 <HAL_GetTick>
 8001a78:	9b09      	ldr	r3, [sp, #36]	; 0x24
 8001a7a:	1ac0      	subs	r0, r0, r3
 8001a7c:	4284      	cmp	r4, r0
 8001a7e:	d3a3      	bcc.n	80019c8 <I2C_RequestMemoryRead+0x14c>
 8001a80:	2c00      	cmp	r4, #0
 8001a82:	d0a1      	beq.n	80019c8 <I2C_RequestMemoryRead+0x14c>
 8001a84:	6828      	ldr	r0, [r5, #0]
 8001a86:	e74d      	b.n	8001924 <I2C_RequestMemoryRead+0xa8>
 8001a88:	2200      	movs	r2, #0
 8001a8a:	2320      	movs	r3, #32
 8001a8c:	632a      	str	r2, [r5, #48]	; 0x30
 8001a8e:	f885 303d 	strb.w	r3, [r5, #61]	; 0x3d
 8001a92:	f885 203e 	strb.w	r2, [r5, #62]	; 0x3e
 8001a96:	6c2b      	ldr	r3, [r5, #64]	; 0x40
 8001a98:	f885 203c 	strb.w	r2, [r5, #60]	; 0x3c
 8001a9c:	f043 0320 	orr.w	r3, r3, #32
 8001aa0:	642b      	str	r3, [r5, #64]	; 0x40
 8001aa2:	e78a      	b.n	80019ba <I2C_RequestMemoryRead+0x13e>
 8001aa4:	6943      	ldr	r3, [r0, #20]
 8001aa6:	43db      	mvns	r3, r3
 8001aa8:	f013 0302 	ands.w	r3, r3, #2
 8001aac:	f43f af4f 	beq.w	800194e <I2C_RequestMemoryRead+0xd2>
 8001ab0:	6943      	ldr	r3, [r0, #20]
 8001ab2:	0559      	lsls	r1, r3, #21
 8001ab4:	f53f af59 	bmi.w	800196a <I2C_RequestMemoryRead+0xee>
 8001ab8:	f7ff fa34 	bl	8000f24 <HAL_GetTick>
 8001abc:	9b09      	ldr	r3, [sp, #36]	; 0x24
 8001abe:	1ac0      	subs	r0, r0, r3
 8001ac0:	4284      	cmp	r4, r0
 8001ac2:	d381      	bcc.n	80019c8 <I2C_RequestMemoryRead+0x14c>
 8001ac4:	2c00      	cmp	r4, #0
 8001ac6:	f43f af7f 	beq.w	80019c8 <I2C_RequestMemoryRead+0x14c>
 8001aca:	6828      	ldr	r0, [r5, #0]
 8001acc:	e734      	b.n	8001938 <I2C_RequestMemoryRead+0xbc>
 8001ace:	bf00      	nop

08001ad0 <HAL_I2C_Init>:
 8001ad0:	2800      	cmp	r0, #0
 8001ad2:	f000 8097 	beq.w	8001c04 <HAL_I2C_Init+0x134>
 8001ad6:	b5f8      	push	{r3, r4, r5, r6, r7, lr}
 8001ad8:	f890 303d 	ldrb.w	r3, [r0, #61]	; 0x3d
 8001adc:	4604      	mov	r4, r0
 8001ade:	f003 02ff 	and.w	r2, r3, #255	; 0xff
 8001ae2:	2b00      	cmp	r3, #0
 8001ae4:	f000 8087 	beq.w	8001bf6 <HAL_I2C_Init+0x126>
 8001ae8:	6822      	ldr	r2, [r4, #0]
 8001aea:	2324      	movs	r3, #36	; 0x24
 8001aec:	f884 303d 	strb.w	r3, [r4, #61]	; 0x3d
 8001af0:	6813      	ldr	r3, [r2, #0]
 8001af2:	f023 0301 	bic.w	r3, r3, #1
 8001af6:	6013      	str	r3, [r2, #0]
 8001af8:	f001 fcb6 	bl	8003468 <HAL_RCC_GetPCLK1Freq>
 8001afc:	6861      	ldr	r1, [r4, #4]
 8001afe:	4b4b      	ldr	r3, [pc, #300]	; (8001c2c <HAL_I2C_Init+0x15c>)
 8001b00:	4299      	cmp	r1, r3
 8001b02:	d84b      	bhi.n	8001b9c <HAL_I2C_Init+0xcc>
 8001b04:	4b4a      	ldr	r3, [pc, #296]	; (8001c30 <HAL_I2C_Init+0x160>)
 8001b06:	4298      	cmp	r0, r3
 8001b08:	d97a      	bls.n	8001c00 <HAL_I2C_Init+0x130>
 8001b0a:	6822      	ldr	r2, [r4, #0]
 8001b0c:	4b49      	ldr	r3, [pc, #292]	; (8001c34 <HAL_I2C_Init+0x164>)
 8001b0e:	6855      	ldr	r5, [r2, #4]
 8001b10:	fba3 6300 	umull	r6, r3, r3, r0
 8001b14:	0c9b      	lsrs	r3, r3, #18
 8001b16:	f025 053f 	bic.w	r5, r5, #63	; 0x3f
 8001b1a:	431d      	orrs	r5, r3
 8001b1c:	6055      	str	r5, [r2, #4]
 8001b1e:	6a15      	ldr	r5, [r2, #32]
 8001b20:	3301      	adds	r3, #1
 8001b22:	f025 053f 	bic.w	r5, r5, #63	; 0x3f
 8001b26:	432b      	orrs	r3, r5
 8001b28:	6213      	str	r3, [r2, #32]
 8001b2a:	69d5      	ldr	r5, [r2, #28]
 8001b2c:	0049      	lsls	r1, r1, #1
 8001b2e:	1e43      	subs	r3, r0, #1
 8001b30:	fbb3 f3f1 	udiv	r3, r3, r1
 8001b34:	3301      	adds	r3, #1
 8001b36:	f3c3 030b 	ubfx	r3, r3, #0, #12
 8001b3a:	f425 454f 	bic.w	r5, r5, #52992	; 0xcf00
 8001b3e:	2b04      	cmp	r3, #4
 8001b40:	bf38      	it	cc
 8001b42:	2304      	movcc	r3, #4
 8001b44:	f025 05ff 	bic.w	r5, r5, #255	; 0xff
 8001b48:	432b      	orrs	r3, r5
 8001b4a:	61d3      	str	r3, [r2, #28]
 8001b4c:	e9d4 3507 	ldrd	r3, r5, [r4, #28]
 8001b50:	6810      	ldr	r0, [r2, #0]
 8001b52:	6921      	ldr	r1, [r4, #16]
 8001b54:	f020 00c0 	bic.w	r0, r0, #192	; 0xc0
 8001b58:	432b      	orrs	r3, r5
 8001b5a:	4303      	orrs	r3, r0
 8001b5c:	6013      	str	r3, [r2, #0]
 8001b5e:	6890      	ldr	r0, [r2, #8]
 8001b60:	68e5      	ldr	r5, [r4, #12]
 8001b62:	6963      	ldr	r3, [r4, #20]
 8001b64:	f420 4003 	bic.w	r0, r0, #33536	; 0x8300
 8001b68:	f020 00ff 	bic.w	r0, r0, #255	; 0xff
 8001b6c:	4329      	orrs	r1, r5
 8001b6e:	4301      	orrs	r1, r0
 8001b70:	6091      	str	r1, [r2, #8]
 8001b72:	68d1      	ldr	r1, [r2, #12]
 8001b74:	69a0      	ldr	r0, [r4, #24]
 8001b76:	f021 01ff 	bic.w	r1, r1, #255	; 0xff
 8001b7a:	4303      	orrs	r3, r0
 8001b7c:	430b      	orrs	r3, r1
 8001b7e:	60d3      	str	r3, [r2, #12]
 8001b80:	6811      	ldr	r1, [r2, #0]
 8001b82:	2300      	movs	r3, #0
 8001b84:	f041 0101 	orr.w	r1, r1, #1
 8001b88:	2520      	movs	r5, #32
 8001b8a:	6011      	str	r1, [r2, #0]
 8001b8c:	4618      	mov	r0, r3
 8001b8e:	6423      	str	r3, [r4, #64]	; 0x40
 8001b90:	f884 503d 	strb.w	r5, [r4, #61]	; 0x3d
 8001b94:	6323      	str	r3, [r4, #48]	; 0x30
 8001b96:	f884 303e 	strb.w	r3, [r4, #62]	; 0x3e
 8001b9a:	bdf8      	pop	{r3, r4, r5, r6, r7, pc}
 8001b9c:	4b26      	ldr	r3, [pc, #152]	; (8001c38 <HAL_I2C_Init+0x168>)
 8001b9e:	4298      	cmp	r0, r3
 8001ba0:	d92e      	bls.n	8001c00 <HAL_I2C_Init+0x130>
 8001ba2:	6822      	ldr	r2, [r4, #0]
 8001ba4:	4b23      	ldr	r3, [pc, #140]	; (8001c34 <HAL_I2C_Init+0x164>)
 8001ba6:	6856      	ldr	r6, [r2, #4]
 8001ba8:	4f24      	ldr	r7, [pc, #144]	; (8001c3c <HAL_I2C_Init+0x16c>)
 8001baa:	fba3 5300 	umull	r5, r3, r3, r0
 8001bae:	0c9d      	lsrs	r5, r3, #18
 8001bb0:	f026 063f 	bic.w	r6, r6, #63	; 0x3f
 8001bb4:	432e      	orrs	r6, r5
 8001bb6:	f44f 7396 	mov.w	r3, #300	; 0x12c
 8001bba:	6056      	str	r6, [r2, #4]
 8001bbc:	fb03 f305 	mul.w	r3, r3, r5
 8001bc0:	fba7 5303 	umull	r5, r3, r7, r3
 8001bc4:	6a15      	ldr	r5, [r2, #32]
 8001bc6:	68a6      	ldr	r6, [r4, #8]
 8001bc8:	099b      	lsrs	r3, r3, #6
 8001bca:	f025 053f 	bic.w	r5, r5, #63	; 0x3f
 8001bce:	3301      	adds	r3, #1
 8001bd0:	432b      	orrs	r3, r5
 8001bd2:	6213      	str	r3, [r2, #32]
 8001bd4:	69d5      	ldr	r5, [r2, #28]
 8001bd6:	f425 454f 	bic.w	r5, r5, #52992	; 0xcf00
 8001bda:	3801      	subs	r0, #1
 8001bdc:	f025 05ff 	bic.w	r5, r5, #255	; 0xff
 8001be0:	b996      	cbnz	r6, 8001c08 <HAL_I2C_Init+0x138>
 8001be2:	eb01 0141 	add.w	r1, r1, r1, lsl #1
 8001be6:	fbb0 f0f1 	udiv	r0, r0, r1
 8001bea:	3001      	adds	r0, #1
 8001bec:	f3c0 000b 	ubfx	r0, r0, #0, #12
 8001bf0:	b9c0      	cbnz	r0, 8001c24 <HAL_I2C_Init+0x154>
 8001bf2:	2301      	movs	r3, #1
 8001bf4:	e7a8      	b.n	8001b48 <HAL_I2C_Init+0x78>
 8001bf6:	f880 203c 	strb.w	r2, [r0, #60]	; 0x3c
 8001bfa:	f003 fa59 	bl	80050b0 <HAL_I2C_MspInit>
 8001bfe:	e773      	b.n	8001ae8 <HAL_I2C_Init+0x18>
 8001c00:	2001      	movs	r0, #1
 8001c02:	bdf8      	pop	{r3, r4, r5, r6, r7, pc}
 8001c04:	2001      	movs	r0, #1
 8001c06:	4770      	bx	lr
 8001c08:	eb01 0181 	add.w	r1, r1, r1, lsl #2
 8001c0c:	eb01 0181 	add.w	r1, r1, r1, lsl #2
 8001c10:	fbb0 f0f1 	udiv	r0, r0, r1
 8001c14:	3001      	adds	r0, #1
 8001c16:	f3c0 000b 	ubfx	r0, r0, #0, #12
 8001c1a:	2800      	cmp	r0, #0
 8001c1c:	d0e9      	beq.n	8001bf2 <HAL_I2C_Init+0x122>
 8001c1e:	f440 4340 	orr.w	r3, r0, #49152	; 0xc000
 8001c22:	e791      	b.n	8001b48 <HAL_I2C_Init+0x78>
 8001c24:	f440 4300 	orr.w	r3, r0, #32768	; 0x8000
 8001c28:	e78e      	b.n	8001b48 <HAL_I2C_Init+0x78>
 8001c2a:	bf00      	nop
 8001c2c:	000186a0 	.word	0x000186a0
 8001c30:	001e847f 	.word	0x001e847f
 8001c34:	431bde83 	.word	0x431bde83
 8001c38:	003d08ff 	.word	0x003d08ff
 8001c3c:	10624dd3 	.word	0x10624dd3

08001c40 <HAL_I2C_Mem_Write>:
 8001c40:	e92d 4ff0 	stmdb	sp!, {r4, r5, r6, r7, r8, r9, sl, fp, lr}
 8001c44:	4604      	mov	r4, r0
 8001c46:	b083      	sub	sp, #12
 8001c48:	4699      	mov	r9, r3
 8001c4a:	460f      	mov	r7, r1
 8001c4c:	4690      	mov	r8, r2
 8001c4e:	f8bd a034 	ldrh.w	sl, [sp, #52]	; 0x34
 8001c52:	9e0e      	ldr	r6, [sp, #56]	; 0x38
 8001c54:	f7ff f966 	bl	8000f24 <HAL_GetTick>
 8001c58:	f894 303d 	ldrb.w	r3, [r4, #61]	; 0x3d
 8001c5c:	2b20      	cmp	r3, #32
 8001c5e:	d004      	beq.n	8001c6a <HAL_I2C_Mem_Write+0x2a>
 8001c60:	2702      	movs	r7, #2
 8001c62:	4638      	mov	r0, r7
 8001c64:	b003      	add	sp, #12
 8001c66:	e8bd 8ff0 	ldmia.w	sp!, {r4, r5, r6, r7, r8, r9, sl, fp, pc}
 8001c6a:	4605      	mov	r5, r0
 8001c6c:	e005      	b.n	8001c7a <HAL_I2C_Mem_Write+0x3a>
 8001c6e:	f7ff f959 	bl	8000f24 <HAL_GetTick>
 8001c72:	1b40      	subs	r0, r0, r5
 8001c74:	2819      	cmp	r0, #25
 8001c76:	f200 80a6 	bhi.w	8001dc6 <HAL_I2C_Mem_Write+0x186>
 8001c7a:	6822      	ldr	r2, [r4, #0]
 8001c7c:	6993      	ldr	r3, [r2, #24]
 8001c7e:	43db      	mvns	r3, r3
 8001c80:	f013 0b02 	ands.w	fp, r3, #2
 8001c84:	d0f3      	beq.n	8001c6e <HAL_I2C_Mem_Write+0x2e>
 8001c86:	f894 303c 	ldrb.w	r3, [r4, #60]	; 0x3c
 8001c8a:	2b01      	cmp	r3, #1
 8001c8c:	d0e8      	beq.n	8001c60 <HAL_I2C_Mem_Write+0x20>
 8001c8e:	6813      	ldr	r3, [r2, #0]
 8001c90:	2101      	movs	r1, #1
 8001c92:	07d8      	lsls	r0, r3, #31
 8001c94:	f884 103c 	strb.w	r1, [r4, #60]	; 0x3c
 8001c98:	d402      	bmi.n	8001ca0 <HAL_I2C_Mem_Write+0x60>
 8001c9a:	6813      	ldr	r3, [r2, #0]
 8001c9c:	430b      	orrs	r3, r1
 8001c9e:	6013      	str	r3, [r2, #0]
 8001ca0:	6813      	ldr	r3, [r2, #0]
 8001ca2:	485e      	ldr	r0, [pc, #376]	; (8001e1c <HAL_I2C_Mem_Write+0x1dc>)
 8001ca4:	f423 6300 	bic.w	r3, r3, #2048	; 0x800
 8001ca8:	6013      	str	r3, [r2, #0]
 8001caa:	2321      	movs	r3, #33	; 0x21
 8001cac:	f884 303d 	strb.w	r3, [r4, #61]	; 0x3d
 8001cb0:	2240      	movs	r2, #64	; 0x40
 8001cb2:	2300      	movs	r3, #0
 8001cb4:	f884 203e 	strb.w	r2, [r4, #62]	; 0x3e
 8001cb8:	6423      	str	r3, [r4, #64]	; 0x40
 8001cba:	f8a4 a02a 	strh.w	sl, [r4, #42]	; 0x2a
 8001cbe:	f8b4 c02a 	ldrh.w	ip, [r4, #42]	; 0x2a
 8001cc2:	9b0c      	ldr	r3, [sp, #48]	; 0x30
 8001cc4:	6263      	str	r3, [r4, #36]	; 0x24
 8001cc6:	4639      	mov	r1, r7
 8001cc8:	e9cd 6500 	strd	r6, r5, [sp]
 8001ccc:	464b      	mov	r3, r9
 8001cce:	62e0      	str	r0, [r4, #44]	; 0x2c
 8001cd0:	4642      	mov	r2, r8
 8001cd2:	f8a4 c028 	strh.w	ip, [r4, #40]	; 0x28
 8001cd6:	4620      	mov	r0, r4
 8001cd8:	f7ff fd06 	bl	80016e8 <I2C_RequestMemoryWrite>
 8001cdc:	4607      	mov	r7, r0
 8001cde:	2800      	cmp	r0, #0
 8001ce0:	d14f      	bne.n	8001d82 <HAL_I2C_Mem_Write+0x142>
 8001ce2:	6823      	ldr	r3, [r4, #0]
 8001ce4:	8d22      	ldrh	r2, [r4, #40]	; 0x28
 8001ce6:	b1f2      	cbz	r2, 8001d26 <HAL_I2C_Mem_Write+0xe6>
 8001ce8:	1c72      	adds	r2, r6, #1
 8001cea:	d003      	beq.n	8001cf4 <HAL_I2C_Mem_Write+0xb4>
 8001cec:	e04e      	b.n	8001d8c <HAL_I2C_Mem_Write+0x14c>
 8001cee:	695a      	ldr	r2, [r3, #20]
 8001cf0:	0551      	lsls	r1, r2, #21
 8001cf2:	d42e      	bmi.n	8001d52 <HAL_I2C_Mem_Write+0x112>
 8001cf4:	695a      	ldr	r2, [r3, #20]
 8001cf6:	0610      	lsls	r0, r2, #24
 8001cf8:	d5f9      	bpl.n	8001cee <HAL_I2C_Mem_Write+0xae>
 8001cfa:	f8d4 c024 	ldr.w	ip, [r4, #36]	; 0x24
 8001cfe:	f8b4 e028 	ldrh.w	lr, [r4, #40]	; 0x28
 8001d02:	4660      	mov	r0, ip
 8001d04:	f10e 32ff 	add.w	r2, lr, #4294967295
 8001d08:	f810 1b01 	ldrb.w	r1, [r0], #1
 8001d0c:	6119      	str	r1, [r3, #16]
 8001d0e:	8d61      	ldrh	r1, [r4, #42]	; 0x2a
 8001d10:	6260      	str	r0, [r4, #36]	; 0x24
 8001d12:	3901      	subs	r1, #1
 8001d14:	b289      	uxth	r1, r1
 8001d16:	8561      	strh	r1, [r4, #42]	; 0x2a
 8001d18:	6959      	ldr	r1, [r3, #20]
 8001d1a:	b292      	uxth	r2, r2
 8001d1c:	0748      	lsls	r0, r1, #29
 8001d1e:	8522      	strh	r2, [r4, #40]	; 0x28
 8001d20:	d5e1      	bpl.n	8001ce6 <HAL_I2C_Mem_Write+0xa6>
 8001d22:	2a00      	cmp	r2, #0
 8001d24:	d140      	bne.n	8001da8 <HAL_I2C_Mem_Write+0x168>
 8001d26:	1c72      	adds	r2, r6, #1
 8001d28:	d003      	beq.n	8001d32 <HAL_I2C_Mem_Write+0xf2>
 8001d2a:	e05a      	b.n	8001de2 <HAL_I2C_Mem_Write+0x1a2>
 8001d2c:	695a      	ldr	r2, [r3, #20]
 8001d2e:	0551      	lsls	r1, r2, #21
 8001d30:	d40f      	bmi.n	8001d52 <HAL_I2C_Mem_Write+0x112>
 8001d32:	695a      	ldr	r2, [r3, #20]
 8001d34:	0750      	lsls	r0, r2, #29
 8001d36:	d5f9      	bpl.n	8001d2c <HAL_I2C_Mem_Write+0xec>
 8001d38:	681a      	ldr	r2, [r3, #0]
 8001d3a:	2100      	movs	r1, #0
 8001d3c:	2020      	movs	r0, #32
 8001d3e:	f442 7200 	orr.w	r2, r2, #512	; 0x200
 8001d42:	601a      	str	r2, [r3, #0]
 8001d44:	f884 003d 	strb.w	r0, [r4, #61]	; 0x3d
 8001d48:	f884 103c 	strb.w	r1, [r4, #60]	; 0x3c
 8001d4c:	f884 103e 	strb.w	r1, [r4, #62]	; 0x3e
 8001d50:	e787      	b.n	8001c62 <HAL_I2C_Mem_Write+0x22>
 8001d52:	2200      	movs	r2, #0
 8001d54:	f46f 6080 	mvn.w	r0, #1024	; 0x400
 8001d58:	2120      	movs	r1, #32
 8001d5a:	6158      	str	r0, [r3, #20]
 8001d5c:	6322      	str	r2, [r4, #48]	; 0x30
 8001d5e:	f884 103d 	strb.w	r1, [r4, #61]	; 0x3d
 8001d62:	f884 203e 	strb.w	r2, [r4, #62]	; 0x3e
 8001d66:	6c23      	ldr	r3, [r4, #64]	; 0x40
 8001d68:	f884 203c 	strb.w	r2, [r4, #60]	; 0x3c
 8001d6c:	f043 0304 	orr.w	r3, r3, #4
 8001d70:	6423      	str	r3, [r4, #64]	; 0x40
 8001d72:	6c23      	ldr	r3, [r4, #64]	; 0x40
 8001d74:	2b04      	cmp	r3, #4
 8001d76:	d104      	bne.n	8001d82 <HAL_I2C_Mem_Write+0x142>
 8001d78:	6822      	ldr	r2, [r4, #0]
 8001d7a:	6813      	ldr	r3, [r2, #0]
 8001d7c:	f443 7300 	orr.w	r3, r3, #512	; 0x200
 8001d80:	6013      	str	r3, [r2, #0]
 8001d82:	2701      	movs	r7, #1
 8001d84:	4638      	mov	r0, r7
 8001d86:	b003      	add	sp, #12
 8001d88:	e8bd 8ff0 	ldmia.w	sp!, {r4, r5, r6, r7, r8, r9, sl, fp, pc}
 8001d8c:	695a      	ldr	r2, [r3, #20]
 8001d8e:	0612      	lsls	r2, r2, #24
 8001d90:	d4b3      	bmi.n	8001cfa <HAL_I2C_Mem_Write+0xba>
 8001d92:	695a      	ldr	r2, [r3, #20]
 8001d94:	0551      	lsls	r1, r2, #21
 8001d96:	d4dc      	bmi.n	8001d52 <HAL_I2C_Mem_Write+0x112>
 8001d98:	f7ff f8c4 	bl	8000f24 <HAL_GetTick>
 8001d9c:	1b40      	subs	r0, r0, r5
 8001d9e:	4286      	cmp	r6, r0
 8001da0:	d32d      	bcc.n	8001dfe <HAL_I2C_Mem_Write+0x1be>
 8001da2:	b366      	cbz	r6, 8001dfe <HAL_I2C_Mem_Write+0x1be>
 8001da4:	6823      	ldr	r3, [r4, #0]
 8001da6:	e79f      	b.n	8001ce8 <HAL_I2C_Mem_Write+0xa8>
 8001da8:	f89c 2001 	ldrb.w	r2, [ip, #1]
 8001dac:	611a      	str	r2, [r3, #16]
 8001dae:	8d60      	ldrh	r0, [r4, #42]	; 0x2a
 8001db0:	f1ae 0202 	sub.w	r2, lr, #2
 8001db4:	3801      	subs	r0, #1
 8001db6:	b292      	uxth	r2, r2
 8001db8:	f10c 0102 	add.w	r1, ip, #2
 8001dbc:	b280      	uxth	r0, r0
 8001dbe:	8522      	strh	r2, [r4, #40]	; 0x28
 8001dc0:	6261      	str	r1, [r4, #36]	; 0x24
 8001dc2:	8560      	strh	r0, [r4, #42]	; 0x2a
 8001dc4:	e78f      	b.n	8001ce6 <HAL_I2C_Mem_Write+0xa6>
 8001dc6:	2320      	movs	r3, #32
 8001dc8:	f8c4 b030 	str.w	fp, [r4, #48]	; 0x30
 8001dcc:	f884 303d 	strb.w	r3, [r4, #61]	; 0x3d
 8001dd0:	f884 b03e 	strb.w	fp, [r4, #62]	; 0x3e
 8001dd4:	6c23      	ldr	r3, [r4, #64]	; 0x40
 8001dd6:	f884 b03c 	strb.w	fp, [r4, #60]	; 0x3c
 8001dda:	f043 0320 	orr.w	r3, r3, #32
 8001dde:	6423      	str	r3, [r4, #64]	; 0x40
 8001de0:	e73e      	b.n	8001c60 <HAL_I2C_Mem_Write+0x20>
 8001de2:	695a      	ldr	r2, [r3, #20]
 8001de4:	0752      	lsls	r2, r2, #29
 8001de6:	d4a7      	bmi.n	8001d38 <HAL_I2C_Mem_Write+0xf8>
 8001de8:	695a      	ldr	r2, [r3, #20]
 8001dea:	0551      	lsls	r1, r2, #21
 8001dec:	d4b1      	bmi.n	8001d52 <HAL_I2C_Mem_Write+0x112>
 8001dee:	f7ff f899 	bl	8000f24 <HAL_GetTick>
 8001df2:	1b40      	subs	r0, r0, r5
 8001df4:	4286      	cmp	r6, r0
 8001df6:	d302      	bcc.n	8001dfe <HAL_I2C_Mem_Write+0x1be>
 8001df8:	b10e      	cbz	r6, 8001dfe <HAL_I2C_Mem_Write+0x1be>
 8001dfa:	6823      	ldr	r3, [r4, #0]
 8001dfc:	e793      	b.n	8001d26 <HAL_I2C_Mem_Write+0xe6>
 8001dfe:	2200      	movs	r2, #0
 8001e00:	2320      	movs	r3, #32
 8001e02:	6322      	str	r2, [r4, #48]	; 0x30
 8001e04:	f884 303d 	strb.w	r3, [r4, #61]	; 0x3d
 8001e08:	f884 203e 	strb.w	r2, [r4, #62]	; 0x3e
 8001e0c:	6c23      	ldr	r3, [r4, #64]	; 0x40
 8001e0e:	f884 203c 	strb.w	r2, [r4, #60]	; 0x3c
 8001e12:	f043 0320 	orr.w	r3, r3, #32
 8001e16:	6423      	str	r3, [r4, #64]	; 0x40
 8001e18:	e7ab      	b.n	8001d72 <HAL_I2C_Mem_Write+0x132>
 8001e1a:	bf00      	nop
 8001e1c:	ffff0000 	.word	0xffff0000

08001e20 <HAL_I2C_Mem_Read>:
 8001e20:	e92d 4ff0 	stmdb	sp!, {r4, r5, r6, r7, r8, r9, sl, fp, lr}
 8001e24:	4604      	mov	r4, r0
 8001e26:	b087      	sub	sp, #28
 8001e28:	4699      	mov	r9, r3
 8001e2a:	460f      	mov	r7, r1
 8001e2c:	4690      	mov	r8, r2
 8001e2e:	f8bd a044 	ldrh.w	sl, [sp, #68]	; 0x44
 8001e32:	9d12      	ldr	r5, [sp, #72]	; 0x48
 8001e34:	f7ff f876 	bl	8000f24 <HAL_GetTick>
 8001e38:	f894 303d 	ldrb.w	r3, [r4, #61]	; 0x3d
 8001e3c:	2b20      	cmp	r3, #32
 8001e3e:	d004      	beq.n	8001e4a <HAL_I2C_Mem_Read+0x2a>
 8001e40:	2702      	movs	r7, #2
 8001e42:	4638      	mov	r0, r7
 8001e44:	b007      	add	sp, #28
 8001e46:	e8bd 8ff0 	ldmia.w	sp!, {r4, r5, r6, r7, r8, r9, sl, fp, pc}
 8001e4a:	4606      	mov	r6, r0
 8001e4c:	e004      	b.n	8001e58 <HAL_I2C_Mem_Read+0x38>
 8001e4e:	f7ff f869 	bl	8000f24 <HAL_GetTick>
 8001e52:	1b80      	subs	r0, r0, r6
 8001e54:	2819      	cmp	r0, #25
 8001e56:	d84a      	bhi.n	8001eee <HAL_I2C_Mem_Read+0xce>
 8001e58:	6822      	ldr	r2, [r4, #0]
 8001e5a:	6993      	ldr	r3, [r2, #24]
 8001e5c:	43db      	mvns	r3, r3
 8001e5e:	f013 0b02 	ands.w	fp, r3, #2
 8001e62:	d0f4      	beq.n	8001e4e <HAL_I2C_Mem_Read+0x2e>
 8001e64:	f894 303c 	ldrb.w	r3, [r4, #60]	; 0x3c
 8001e68:	2b01      	cmp	r3, #1
 8001e6a:	d0e9      	beq.n	8001e40 <HAL_I2C_Mem_Read+0x20>
 8001e6c:	6813      	ldr	r3, [r2, #0]
 8001e6e:	2101      	movs	r1, #1
 8001e70:	07db      	lsls	r3, r3, #31
 8001e72:	f884 103c 	strb.w	r1, [r4, #60]	; 0x3c
 8001e76:	d402      	bmi.n	8001e7e <HAL_I2C_Mem_Read+0x5e>
 8001e78:	6813      	ldr	r3, [r2, #0]
 8001e7a:	430b      	orrs	r3, r1
 8001e7c:	6013      	str	r3, [r2, #0]
 8001e7e:	6813      	ldr	r3, [r2, #0]
 8001e80:	48a2      	ldr	r0, [pc, #648]	; (800210c <HAL_I2C_Mem_Read+0x2ec>)
 8001e82:	f423 6300 	bic.w	r3, r3, #2048	; 0x800
 8001e86:	6013      	str	r3, [r2, #0]
 8001e88:	2322      	movs	r3, #34	; 0x22
 8001e8a:	f884 303d 	strb.w	r3, [r4, #61]	; 0x3d
 8001e8e:	2240      	movs	r2, #64	; 0x40
 8001e90:	2300      	movs	r3, #0
 8001e92:	f884 203e 	strb.w	r2, [r4, #62]	; 0x3e
 8001e96:	6423      	str	r3, [r4, #64]	; 0x40
 8001e98:	f8a4 a02a 	strh.w	sl, [r4, #42]	; 0x2a
 8001e9c:	f8b4 c02a 	ldrh.w	ip, [r4, #42]	; 0x2a
 8001ea0:	9b10      	ldr	r3, [sp, #64]	; 0x40
 8001ea2:	6263      	str	r3, [r4, #36]	; 0x24
 8001ea4:	4639      	mov	r1, r7
 8001ea6:	e9cd 5600 	strd	r5, r6, [sp]
 8001eaa:	464b      	mov	r3, r9
 8001eac:	62e0      	str	r0, [r4, #44]	; 0x2c
 8001eae:	4642      	mov	r2, r8
 8001eb0:	f8a4 c028 	strh.w	ip, [r4, #40]	; 0x28
 8001eb4:	4620      	mov	r0, r4
 8001eb6:	f7ff fce1 	bl	800187c <I2C_RequestMemoryRead>
 8001eba:	4607      	mov	r7, r0
 8001ebc:	b9a8      	cbnz	r0, 8001eea <HAL_I2C_Mem_Read+0xca>
 8001ebe:	8d22      	ldrh	r2, [r4, #40]	; 0x28
 8001ec0:	6823      	ldr	r3, [r4, #0]
 8001ec2:	bb12      	cbnz	r2, 8001f0a <HAL_I2C_Mem_Read+0xea>
 8001ec4:	9002      	str	r0, [sp, #8]
 8001ec6:	695a      	ldr	r2, [r3, #20]
 8001ec8:	9202      	str	r2, [sp, #8]
 8001eca:	699a      	ldr	r2, [r3, #24]
 8001ecc:	9202      	str	r2, [sp, #8]
 8001ece:	9a02      	ldr	r2, [sp, #8]
 8001ed0:	681a      	ldr	r2, [r3, #0]
 8001ed2:	f442 7200 	orr.w	r2, r2, #512	; 0x200
 8001ed6:	601a      	str	r2, [r3, #0]
 8001ed8:	2300      	movs	r3, #0
 8001eda:	2220      	movs	r2, #32
 8001edc:	f884 203d 	strb.w	r2, [r4, #61]	; 0x3d
 8001ee0:	f884 303c 	strb.w	r3, [r4, #60]	; 0x3c
 8001ee4:	f884 303e 	strb.w	r3, [r4, #62]	; 0x3e
 8001ee8:	e7ab      	b.n	8001e42 <HAL_I2C_Mem_Read+0x22>
 8001eea:	2701      	movs	r7, #1
 8001eec:	e7a9      	b.n	8001e42 <HAL_I2C_Mem_Read+0x22>
 8001eee:	2320      	movs	r3, #32
 8001ef0:	f8c4 b030 	str.w	fp, [r4, #48]	; 0x30
 8001ef4:	f884 303d 	strb.w	r3, [r4, #61]	; 0x3d
 8001ef8:	f884 b03e 	strb.w	fp, [r4, #62]	; 0x3e
 8001efc:	6c23      	ldr	r3, [r4, #64]	; 0x40
 8001efe:	f884 b03c 	strb.w	fp, [r4, #60]	; 0x3c
 8001f02:	f043 0320 	orr.w	r3, r3, #32
 8001f06:	6423      	str	r3, [r4, #64]	; 0x40
 8001f08:	e79a      	b.n	8001e40 <HAL_I2C_Mem_Read+0x20>
 8001f0a:	2a01      	cmp	r2, #1
 8001f0c:	f000 8091 	beq.w	8002032 <HAL_I2C_Mem_Read+0x212>
 8001f10:	2a02      	cmp	r2, #2
 8001f12:	f000 80fd 	beq.w	8002110 <HAL_I2C_Mem_Read+0x2f0>
 8001f16:	9005      	str	r0, [sp, #20]
 8001f18:	6959      	ldr	r1, [r3, #20]
 8001f1a:	9105      	str	r1, [sp, #20]
 8001f1c:	6999      	ldr	r1, [r3, #24]
 8001f1e:	9105      	str	r1, [sp, #20]
 8001f20:	9905      	ldr	r1, [sp, #20]
 8001f22:	2a03      	cmp	r2, #3
 8001f24:	d848      	bhi.n	8001fb8 <HAL_I2C_Mem_Read+0x198>
 8001f26:	2a01      	cmp	r2, #1
 8001f28:	f000 80bc 	beq.w	80020a4 <HAL_I2C_Mem_Read+0x284>
 8001f2c:	2a02      	cmp	r2, #2
 8001f2e:	d074      	beq.n	800201a <HAL_I2C_Mem_Read+0x1fa>
 8001f30:	1c68      	adds	r0, r5, #1
 8001f32:	f040 808d 	bne.w	8002050 <HAL_I2C_Mem_Read+0x230>
 8001f36:	695a      	ldr	r2, [r3, #20]
 8001f38:	0751      	lsls	r1, r2, #29
 8001f3a:	d5fc      	bpl.n	8001f36 <HAL_I2C_Mem_Read+0x116>
 8001f3c:	681a      	ldr	r2, [r3, #0]
 8001f3e:	6a61      	ldr	r1, [r4, #36]	; 0x24
 8001f40:	f422 6280 	bic.w	r2, r2, #1024	; 0x400
 8001f44:	601a      	str	r2, [r3, #0]
 8001f46:	691b      	ldr	r3, [r3, #16]
 8001f48:	700b      	strb	r3, [r1, #0]
 8001f4a:	8d63      	ldrh	r3, [r4, #42]	; 0x2a
 8001f4c:	6a61      	ldr	r1, [r4, #36]	; 0x24
 8001f4e:	8d22      	ldrh	r2, [r4, #40]	; 0x28
 8001f50:	3b01      	subs	r3, #1
 8001f52:	b29b      	uxth	r3, r3
 8001f54:	3101      	adds	r1, #1
 8001f56:	3a01      	subs	r2, #1
 8001f58:	8563      	strh	r3, [r4, #42]	; 0x2a
 8001f5a:	6261      	str	r1, [r4, #36]	; 0x24
 8001f5c:	8522      	strh	r2, [r4, #40]	; 0x28
 8001f5e:	1c68      	adds	r0, r5, #1
 8001f60:	6822      	ldr	r2, [r4, #0]
 8001f62:	f040 8081 	bne.w	8002068 <HAL_I2C_Mem_Read+0x248>
 8001f66:	6953      	ldr	r3, [r2, #20]
 8001f68:	0759      	lsls	r1, r3, #29
 8001f6a:	d5fc      	bpl.n	8001f66 <HAL_I2C_Mem_Read+0x146>
 8001f6c:	6813      	ldr	r3, [r2, #0]
 8001f6e:	6a61      	ldr	r1, [r4, #36]	; 0x24
 8001f70:	f443 7300 	orr.w	r3, r3, #512	; 0x200
 8001f74:	6013      	str	r3, [r2, #0]
 8001f76:	6913      	ldr	r3, [r2, #16]
 8001f78:	700b      	strb	r3, [r1, #0]
 8001f7a:	8d63      	ldrh	r3, [r4, #42]	; 0x2a
 8001f7c:	6a60      	ldr	r0, [r4, #36]	; 0x24
 8001f7e:	8d21      	ldrh	r1, [r4, #40]	; 0x28
 8001f80:	6822      	ldr	r2, [r4, #0]
 8001f82:	3b01      	subs	r3, #1
 8001f84:	b29b      	uxth	r3, r3
 8001f86:	8563      	strh	r3, [r4, #42]	; 0x2a
 8001f88:	6912      	ldr	r2, [r2, #16]
 8001f8a:	f100 0c01 	add.w	ip, r0, #1
 8001f8e:	1e4b      	subs	r3, r1, #1
 8001f90:	f8c4 c024 	str.w	ip, [r4, #36]	; 0x24
 8001f94:	8523      	strh	r3, [r4, #40]	; 0x28
 8001f96:	7042      	strb	r2, [r0, #1]
 8001f98:	8d22      	ldrh	r2, [r4, #40]	; 0x28
 8001f9a:	8d63      	ldrh	r3, [r4, #42]	; 0x2a
 8001f9c:	6a61      	ldr	r1, [r4, #36]	; 0x24
 8001f9e:	3a01      	subs	r2, #1
 8001fa0:	3b01      	subs	r3, #1
 8001fa2:	b292      	uxth	r2, r2
 8001fa4:	b29b      	uxth	r3, r3
 8001fa6:	3101      	adds	r1, #1
 8001fa8:	8522      	strh	r2, [r4, #40]	; 0x28
 8001faa:	8563      	strh	r3, [r4, #42]	; 0x2a
 8001fac:	6261      	str	r1, [r4, #36]	; 0x24
 8001fae:	2a00      	cmp	r2, #0
 8001fb0:	d092      	beq.n	8001ed8 <HAL_I2C_Mem_Read+0xb8>
 8001fb2:	2a03      	cmp	r2, #3
 8001fb4:	6823      	ldr	r3, [r4, #0]
 8001fb6:	d9b6      	bls.n	8001f26 <HAL_I2C_Mem_Read+0x106>
 8001fb8:	b955      	cbnz	r5, 8001fd0 <HAL_I2C_Mem_Read+0x1b0>
 8001fba:	e098      	b.n	80020ee <HAL_I2C_Mem_Read+0x2ce>
 8001fbc:	695a      	ldr	r2, [r3, #20]
 8001fbe:	06d2      	lsls	r2, r2, #27
 8001fc0:	f100 8082 	bmi.w	80020c8 <HAL_I2C_Mem_Read+0x2a8>
 8001fc4:	f7fe ffae 	bl	8000f24 <HAL_GetTick>
 8001fc8:	1b80      	subs	r0, r0, r6
 8001fca:	4285      	cmp	r5, r0
 8001fcc:	d358      	bcc.n	8002080 <HAL_I2C_Mem_Read+0x260>
 8001fce:	6823      	ldr	r3, [r4, #0]
 8001fd0:	695a      	ldr	r2, [r3, #20]
 8001fd2:	0651      	lsls	r1, r2, #25
 8001fd4:	d5f2      	bpl.n	8001fbc <HAL_I2C_Mem_Read+0x19c>
 8001fd6:	6a62      	ldr	r2, [r4, #36]	; 0x24
 8001fd8:	691b      	ldr	r3, [r3, #16]
 8001fda:	7013      	strb	r3, [r2, #0]
 8001fdc:	8d61      	ldrh	r1, [r4, #42]	; 0x2a
 8001fde:	6823      	ldr	r3, [r4, #0]
 8001fe0:	8d22      	ldrh	r2, [r4, #40]	; 0x28
 8001fe2:	6a60      	ldr	r0, [r4, #36]	; 0x24
 8001fe4:	3901      	subs	r1, #1
 8001fe6:	b289      	uxth	r1, r1
 8001fe8:	8561      	strh	r1, [r4, #42]	; 0x2a
 8001fea:	6959      	ldr	r1, [r3, #20]
 8001fec:	3a01      	subs	r2, #1
 8001fee:	b292      	uxth	r2, r2
 8001ff0:	f100 0c01 	add.w	ip, r0, #1
 8001ff4:	0749      	lsls	r1, r1, #29
 8001ff6:	8522      	strh	r2, [r4, #40]	; 0x28
 8001ff8:	f8c4 c024 	str.w	ip, [r4, #36]	; 0x24
 8001ffc:	d5d7      	bpl.n	8001fae <HAL_I2C_Mem_Read+0x18e>
 8001ffe:	691b      	ldr	r3, [r3, #16]
 8002000:	7043      	strb	r3, [r0, #1]
 8002002:	e7c9      	b.n	8001f98 <HAL_I2C_Mem_Read+0x178>
 8002004:	695a      	ldr	r2, [r3, #20]
 8002006:	0752      	lsls	r2, r2, #29
 8002008:	d40c      	bmi.n	8002024 <HAL_I2C_Mem_Read+0x204>
 800200a:	f7fe ff8b 	bl	8000f24 <HAL_GetTick>
 800200e:	1b80      	subs	r0, r0, r6
 8002010:	4285      	cmp	r5, r0
 8002012:	d335      	bcc.n	8002080 <HAL_I2C_Mem_Read+0x260>
 8002014:	2d00      	cmp	r5, #0
 8002016:	d033      	beq.n	8002080 <HAL_I2C_Mem_Read+0x260>
 8002018:	6823      	ldr	r3, [r4, #0]
 800201a:	1c68      	adds	r0, r5, #1
 800201c:	d1f2      	bne.n	8002004 <HAL_I2C_Mem_Read+0x1e4>
 800201e:	695a      	ldr	r2, [r3, #20]
 8002020:	0751      	lsls	r1, r2, #29
 8002022:	d5fc      	bpl.n	800201e <HAL_I2C_Mem_Read+0x1fe>
 8002024:	681a      	ldr	r2, [r3, #0]
 8002026:	6a61      	ldr	r1, [r4, #36]	; 0x24
 8002028:	f442 7200 	orr.w	r2, r2, #512	; 0x200
 800202c:	601a      	str	r2, [r3, #0]
 800202e:	691b      	ldr	r3, [r3, #16]
 8002030:	e7a2      	b.n	8001f78 <HAL_I2C_Mem_Read+0x158>
 8002032:	6819      	ldr	r1, [r3, #0]
 8002034:	f421 6180 	bic.w	r1, r1, #1024	; 0x400
 8002038:	6019      	str	r1, [r3, #0]
 800203a:	9003      	str	r0, [sp, #12]
 800203c:	6959      	ldr	r1, [r3, #20]
 800203e:	9103      	str	r1, [sp, #12]
 8002040:	6999      	ldr	r1, [r3, #24]
 8002042:	9103      	str	r1, [sp, #12]
 8002044:	9903      	ldr	r1, [sp, #12]
 8002046:	6819      	ldr	r1, [r3, #0]
 8002048:	f441 7100 	orr.w	r1, r1, #512	; 0x200
 800204c:	6019      	str	r1, [r3, #0]
 800204e:	e768      	b.n	8001f22 <HAL_I2C_Mem_Read+0x102>
 8002050:	695a      	ldr	r2, [r3, #20]
 8002052:	0752      	lsls	r2, r2, #29
 8002054:	f53f af72 	bmi.w	8001f3c <HAL_I2C_Mem_Read+0x11c>
 8002058:	f7fe ff64 	bl	8000f24 <HAL_GetTick>
 800205c:	1b80      	subs	r0, r0, r6
 800205e:	4285      	cmp	r5, r0
 8002060:	d30e      	bcc.n	8002080 <HAL_I2C_Mem_Read+0x260>
 8002062:	b16d      	cbz	r5, 8002080 <HAL_I2C_Mem_Read+0x260>
 8002064:	6823      	ldr	r3, [r4, #0]
 8002066:	e763      	b.n	8001f30 <HAL_I2C_Mem_Read+0x110>
 8002068:	6953      	ldr	r3, [r2, #20]
 800206a:	075b      	lsls	r3, r3, #29
 800206c:	f53f af7e 	bmi.w	8001f6c <HAL_I2C_Mem_Read+0x14c>
 8002070:	f7fe ff58 	bl	8000f24 <HAL_GetTick>
 8002074:	1b80      	subs	r0, r0, r6
 8002076:	4285      	cmp	r5, r0
 8002078:	d302      	bcc.n	8002080 <HAL_I2C_Mem_Read+0x260>
 800207a:	2d00      	cmp	r5, #0
 800207c:	f47f af6f 	bne.w	8001f5e <HAL_I2C_Mem_Read+0x13e>
 8002080:	2200      	movs	r2, #0
 8002082:	2320      	movs	r3, #32
 8002084:	6322      	str	r2, [r4, #48]	; 0x30
 8002086:	f884 303d 	strb.w	r3, [r4, #61]	; 0x3d
 800208a:	f884 203e 	strb.w	r2, [r4, #62]	; 0x3e
 800208e:	6c23      	ldr	r3, [r4, #64]	; 0x40
 8002090:	f884 203c 	strb.w	r2, [r4, #60]	; 0x3c
 8002094:	2701      	movs	r7, #1
 8002096:	f043 0320 	orr.w	r3, r3, #32
 800209a:	4638      	mov	r0, r7
 800209c:	6423      	str	r3, [r4, #64]	; 0x40
 800209e:	b007      	add	sp, #28
 80020a0:	e8bd 8ff0 	ldmia.w	sp!, {r4, r5, r6, r7, r8, r9, sl, fp, pc}
 80020a4:	b94d      	cbnz	r5, 80020ba <HAL_I2C_Mem_Read+0x29a>
 80020a6:	e02c      	b.n	8002102 <HAL_I2C_Mem_Read+0x2e2>
 80020a8:	695a      	ldr	r2, [r3, #20]
 80020aa:	06d1      	lsls	r1, r2, #27
 80020ac:	d40c      	bmi.n	80020c8 <HAL_I2C_Mem_Read+0x2a8>
 80020ae:	f7fe ff39 	bl	8000f24 <HAL_GetTick>
 80020b2:	1b80      	subs	r0, r0, r6
 80020b4:	4285      	cmp	r5, r0
 80020b6:	d3e3      	bcc.n	8002080 <HAL_I2C_Mem_Read+0x260>
 80020b8:	6823      	ldr	r3, [r4, #0]
 80020ba:	695a      	ldr	r2, [r3, #20]
 80020bc:	0650      	lsls	r0, r2, #25
 80020be:	d5f3      	bpl.n	80020a8 <HAL_I2C_Mem_Read+0x288>
 80020c0:	6a62      	ldr	r2, [r4, #36]	; 0x24
 80020c2:	691b      	ldr	r3, [r3, #16]
 80020c4:	7013      	strb	r3, [r2, #0]
 80020c6:	e767      	b.n	8001f98 <HAL_I2C_Mem_Read+0x178>
 80020c8:	2200      	movs	r2, #0
 80020ca:	f06f 0010 	mvn.w	r0, #16
 80020ce:	2120      	movs	r1, #32
 80020d0:	6158      	str	r0, [r3, #20]
 80020d2:	6322      	str	r2, [r4, #48]	; 0x30
 80020d4:	f884 103d 	strb.w	r1, [r4, #61]	; 0x3d
 80020d8:	f884 203e 	strb.w	r2, [r4, #62]	; 0x3e
 80020dc:	6c23      	ldr	r3, [r4, #64]	; 0x40
 80020de:	f884 203c 	strb.w	r2, [r4, #60]	; 0x3c
 80020e2:	2701      	movs	r7, #1
 80020e4:	4638      	mov	r0, r7
 80020e6:	6423      	str	r3, [r4, #64]	; 0x40
 80020e8:	b007      	add	sp, #28
 80020ea:	e8bd 8ff0 	ldmia.w	sp!, {r4, r5, r6, r7, r8, r9, sl, fp, pc}
 80020ee:	695a      	ldr	r2, [r3, #20]
 80020f0:	0650      	lsls	r0, r2, #25
 80020f2:	f53f af70 	bmi.w	8001fd6 <HAL_I2C_Mem_Read+0x1b6>
 80020f6:	695a      	ldr	r2, [r3, #20]
 80020f8:	06d0      	lsls	r0, r2, #27
 80020fa:	d4e5      	bmi.n	80020c8 <HAL_I2C_Mem_Read+0x2a8>
 80020fc:	f7fe ff12 	bl	8000f24 <HAL_GetTick>
 8002100:	e7be      	b.n	8002080 <HAL_I2C_Mem_Read+0x260>
 8002102:	695a      	ldr	r2, [r3, #20]
 8002104:	0652      	lsls	r2, r2, #25
 8002106:	d5f6      	bpl.n	80020f6 <HAL_I2C_Mem_Read+0x2d6>
 8002108:	e7da      	b.n	80020c0 <HAL_I2C_Mem_Read+0x2a0>
 800210a:	bf00      	nop
 800210c:	ffff0000 	.word	0xffff0000
 8002110:	6819      	ldr	r1, [r3, #0]
 8002112:	f421 6180 	bic.w	r1, r1, #1024	; 0x400
 8002116:	6019      	str	r1, [r3, #0]
 8002118:	6819      	ldr	r1, [r3, #0]
 800211a:	f441 6100 	orr.w	r1, r1, #2048	; 0x800
 800211e:	6019      	str	r1, [r3, #0]
 8002120:	9004      	str	r0, [sp, #16]
 8002122:	6959      	ldr	r1, [r3, #20]
 8002124:	9104      	str	r1, [sp, #16]
 8002126:	6999      	ldr	r1, [r3, #24]
 8002128:	9104      	str	r1, [sp, #16]
 800212a:	9904      	ldr	r1, [sp, #16]
 800212c:	e6f9      	b.n	8001f22 <HAL_I2C_Mem_Read+0x102>
 800212e:	bf00      	nop

08002130 <HAL_I2C_Mem_Read_DMA>:
 8002130:	e92d 47f0 	stmdb	sp!, {r4, r5, r6, r7, r8, r9, sl, lr}
 8002134:	b086      	sub	sp, #24
 8002136:	4604      	mov	r4, r0
 8002138:	4698      	mov	r8, r3
 800213a:	460e      	mov	r6, r1
 800213c:	4617      	mov	r7, r2
 800213e:	f8bd 503c 	ldrh.w	r5, [sp, #60]	; 0x3c
 8002142:	f7fe feef 	bl	8000f24 <HAL_GetTick>
 8002146:	2300      	movs	r3, #0
 8002148:	9303      	str	r3, [sp, #12]
 800214a:	f894 303d 	ldrb.w	r3, [r4, #61]	; 0x3d
 800214e:	2b20      	cmp	r3, #32
 8002150:	d127      	bne.n	80021a2 <HAL_I2C_Mem_Read_DMA+0x72>
 8002152:	4b5b      	ldr	r3, [pc, #364]	; (80022c0 <HAL_I2C_Mem_Read_DMA+0x190>)
 8002154:	4a5b      	ldr	r2, [pc, #364]	; (80022c4 <HAL_I2C_Mem_Read_DMA+0x194>)
 8002156:	681b      	ldr	r3, [r3, #0]
 8002158:	08db      	lsrs	r3, r3, #3
 800215a:	fba2 2303 	umull	r2, r3, r2, r3
 800215e:	0a1b      	lsrs	r3, r3, #8
 8002160:	eb03 0383 	add.w	r3, r3, r3, lsl #2
 8002164:	eb03 0383 	add.w	r3, r3, r3, lsl #2
 8002168:	4681      	mov	r9, r0
 800216a:	9303      	str	r3, [sp, #12]
 800216c:	e003      	b.n	8002176 <HAL_I2C_Mem_Read_DMA+0x46>
 800216e:	6821      	ldr	r1, [r4, #0]
 8002170:	698b      	ldr	r3, [r1, #24]
 8002172:	079a      	lsls	r2, r3, #30
 8002174:	d519      	bpl.n	80021aa <HAL_I2C_Mem_Read_DMA+0x7a>
 8002176:	9b03      	ldr	r3, [sp, #12]
 8002178:	3b01      	subs	r3, #1
 800217a:	9303      	str	r3, [sp, #12]
 800217c:	9b03      	ldr	r3, [sp, #12]
 800217e:	2b00      	cmp	r3, #0
 8002180:	d1f5      	bne.n	800216e <HAL_I2C_Mem_Read_DMA+0x3e>
 8002182:	2220      	movs	r2, #32
 8002184:	6323      	str	r3, [r4, #48]	; 0x30
 8002186:	f884 203d 	strb.w	r2, [r4, #61]	; 0x3d
 800218a:	f884 303e 	strb.w	r3, [r4, #62]	; 0x3e
 800218e:	6c22      	ldr	r2, [r4, #64]	; 0x40
 8002190:	f884 303c 	strb.w	r3, [r4, #60]	; 0x3c
 8002194:	f042 0220 	orr.w	r2, r2, #32
 8002198:	2001      	movs	r0, #1
 800219a:	6422      	str	r2, [r4, #64]	; 0x40
 800219c:	b006      	add	sp, #24
 800219e:	e8bd 87f0 	ldmia.w	sp!, {r4, r5, r6, r7, r8, r9, sl, pc}
 80021a2:	2002      	movs	r0, #2
 80021a4:	b006      	add	sp, #24
 80021a6:	e8bd 87f0 	ldmia.w	sp!, {r4, r5, r6, r7, r8, r9, sl, pc}
 80021aa:	f894 303c 	ldrb.w	r3, [r4, #60]	; 0x3c
 80021ae:	2b01      	cmp	r3, #1
 80021b0:	d0f7      	beq.n	80021a2 <HAL_I2C_Mem_Read_DMA+0x72>
 80021b2:	680b      	ldr	r3, [r1, #0]
 80021b4:	2201      	movs	r2, #1
 80021b6:	07db      	lsls	r3, r3, #31
 80021b8:	f884 203c 	strb.w	r2, [r4, #60]	; 0x3c
 80021bc:	d402      	bmi.n	80021c4 <HAL_I2C_Mem_Read_DMA+0x94>
 80021be:	680b      	ldr	r3, [r1, #0]
 80021c0:	4313      	orrs	r3, r2
 80021c2:	600b      	str	r3, [r1, #0]
 80021c4:	680b      	ldr	r3, [r1, #0]
 80021c6:	4a40      	ldr	r2, [pc, #256]	; (80022c8 <HAL_I2C_Mem_Read_DMA+0x198>)
 80021c8:	f423 6300 	bic.w	r3, r3, #2048	; 0x800
 80021cc:	600b      	str	r3, [r1, #0]
 80021ce:	2022      	movs	r0, #34	; 0x22
 80021d0:	2340      	movs	r3, #64	; 0x40
 80021d2:	f04f 0a00 	mov.w	sl, #0
 80021d6:	f884 003d 	strb.w	r0, [r4, #61]	; 0x3d
 80021da:	f884 303e 	strb.w	r3, [r4, #62]	; 0x3e
 80021de:	f8c4 a040 	str.w	sl, [r4, #64]	; 0x40
 80021e2:	8565      	strh	r5, [r4, #42]	; 0x2a
 80021e4:	8d63      	ldrh	r3, [r4, #42]	; 0x2a
 80021e6:	980e      	ldr	r0, [sp, #56]	; 0x38
 80021e8:	6260      	str	r0, [r4, #36]	; 0x24
 80021ea:	b29b      	uxth	r3, r3
 80021ec:	8523      	strh	r3, [r4, #40]	; 0x28
 80021ee:	62e2      	str	r2, [r4, #44]	; 0x2c
 80021f0:	b1f3      	cbz	r3, 8002230 <HAL_I2C_Mem_Read_DMA+0x100>
 80021f2:	6ba0      	ldr	r0, [r4, #56]	; 0x38
 80021f4:	4a35      	ldr	r2, [pc, #212]	; (80022cc <HAL_I2C_Mem_Read_DMA+0x19c>)
 80021f6:	4d36      	ldr	r5, [pc, #216]	; (80022d0 <HAL_I2C_Mem_Read_DMA+0x1a0>)
 80021f8:	64c2      	str	r2, [r0, #76]	; 0x4c
 80021fa:	f8c0 a040 	str.w	sl, [r0, #64]	; 0x40
 80021fe:	3110      	adds	r1, #16
 8002200:	e9c0 aa11 	strd	sl, sl, [r0, #68]	; 0x44
 8002204:	f8c0 a050 	str.w	sl, [r0, #80]	; 0x50
 8002208:	63c5      	str	r5, [r0, #60]	; 0x3c
 800220a:	9a0e      	ldr	r2, [sp, #56]	; 0x38
 800220c:	f7fe ffc0 	bl	8001190 <HAL_DMA_Start_IT>
 8002210:	b358      	cbz	r0, 800226a <HAL_I2C_Mem_Read_DMA+0x13a>
 8002212:	2320      	movs	r3, #32
 8002214:	f884 303d 	strb.w	r3, [r4, #61]	; 0x3d
 8002218:	f884 a03e 	strb.w	sl, [r4, #62]	; 0x3e
 800221c:	6c23      	ldr	r3, [r4, #64]	; 0x40
 800221e:	f884 a03c 	strb.w	sl, [r4, #60]	; 0x3c
 8002222:	f043 0310 	orr.w	r3, r3, #16
 8002226:	6423      	str	r3, [r4, #64]	; 0x40
 8002228:	2001      	movs	r0, #1
 800222a:	b006      	add	sp, #24
 800222c:	e8bd 87f0 	ldmia.w	sp!, {r4, r5, r6, r7, r8, r9, sl, pc}
 8002230:	2023      	movs	r0, #35	; 0x23
 8002232:	9000      	str	r0, [sp, #0]
 8002234:	f8cd 9004 	str.w	r9, [sp, #4]
 8002238:	4643      	mov	r3, r8
 800223a:	463a      	mov	r2, r7
 800223c:	4631      	mov	r1, r6
 800223e:	4620      	mov	r0, r4
 8002240:	f7ff fb1c 	bl	800187c <I2C_RequestMemoryRead>
 8002244:	2800      	cmp	r0, #0
 8002246:	d1ef      	bne.n	8002228 <HAL_I2C_Mem_Read_DMA+0xf8>
 8002248:	6823      	ldr	r3, [r4, #0]
 800224a:	9005      	str	r0, [sp, #20]
 800224c:	695a      	ldr	r2, [r3, #20]
 800224e:	9205      	str	r2, [sp, #20]
 8002250:	699a      	ldr	r2, [r3, #24]
 8002252:	9205      	str	r2, [sp, #20]
 8002254:	9a05      	ldr	r2, [sp, #20]
 8002256:	681a      	ldr	r2, [r3, #0]
 8002258:	2120      	movs	r1, #32
 800225a:	f442 7200 	orr.w	r2, r2, #512	; 0x200
 800225e:	601a      	str	r2, [r3, #0]
 8002260:	f884 003c 	strb.w	r0, [r4, #60]	; 0x3c
 8002264:	f884 103d 	strb.w	r1, [r4, #61]	; 0x3d
 8002268:	e79c      	b.n	80021a4 <HAL_I2C_Mem_Read_DMA+0x74>
 800226a:	2023      	movs	r0, #35	; 0x23
 800226c:	9000      	str	r0, [sp, #0]
 800226e:	f8cd 9004 	str.w	r9, [sp, #4]
 8002272:	4643      	mov	r3, r8
 8002274:	463a      	mov	r2, r7
 8002276:	4631      	mov	r1, r6
 8002278:	4620      	mov	r0, r4
 800227a:	f7ff faff 	bl	800187c <I2C_RequestMemoryRead>
 800227e:	2800      	cmp	r0, #0
 8002280:	d1d2      	bne.n	8002228 <HAL_I2C_Mem_Read_DMA+0xf8>
 8002282:	8d22      	ldrh	r2, [r4, #40]	; 0x28
 8002284:	6823      	ldr	r3, [r4, #0]
 8002286:	2a01      	cmp	r2, #1
 8002288:	d015      	beq.n	80022b6 <HAL_I2C_Mem_Read_DMA+0x186>
 800228a:	685a      	ldr	r2, [r3, #4]
 800228c:	f442 5280 	orr.w	r2, r2, #4096	; 0x1000
 8002290:	605a      	str	r2, [r3, #4]
 8002292:	2100      	movs	r1, #0
 8002294:	9104      	str	r1, [sp, #16]
 8002296:	695a      	ldr	r2, [r3, #20]
 8002298:	9204      	str	r2, [sp, #16]
 800229a:	699a      	ldr	r2, [r3, #24]
 800229c:	9204      	str	r2, [sp, #16]
 800229e:	9a04      	ldr	r2, [sp, #16]
 80022a0:	685a      	ldr	r2, [r3, #4]
 80022a2:	f884 103c 	strb.w	r1, [r4, #60]	; 0x3c
 80022a6:	f442 7280 	orr.w	r2, r2, #256	; 0x100
 80022aa:	605a      	str	r2, [r3, #4]
 80022ac:	685a      	ldr	r2, [r3, #4]
 80022ae:	f442 6200 	orr.w	r2, r2, #2048	; 0x800
 80022b2:	605a      	str	r2, [r3, #4]
 80022b4:	e776      	b.n	80021a4 <HAL_I2C_Mem_Read_DMA+0x74>
 80022b6:	681a      	ldr	r2, [r3, #0]
 80022b8:	f422 6280 	bic.w	r2, r2, #1024	; 0x400
 80022bc:	601a      	str	r2, [r3, #0]
 80022be:	e7e8      	b.n	8002292 <HAL_I2C_Mem_Read_DMA+0x162>
 80022c0:	20000010 	.word	0x20000010
 80022c4:	14f8b589 	.word	0x14f8b589
 80022c8:	ffff0000 	.word	0xffff0000
 80022cc:	080022f5 	.word	0x080022f5
 80022d0:	08002331 	.word	0x08002331

080022d4 <HAL_I2C_MasterTxCpltCallback>:
 80022d4:	4770      	bx	lr
 80022d6:	bf00      	nop

080022d8 <HAL_I2C_MasterRxCpltCallback>:
 80022d8:	4770      	bx	lr
 80022da:	bf00      	nop

080022dc <HAL_I2C_SlaveTxCpltCallback>:
 80022dc:	4770      	bx	lr
 80022de:	bf00      	nop

080022e0 <HAL_I2C_SlaveRxCpltCallback>:
 80022e0:	4770      	bx	lr
 80022e2:	bf00      	nop

080022e4 <HAL_I2C_AddrCallback>:
 80022e4:	4770      	bx	lr
 80022e6:	bf00      	nop

080022e8 <HAL_I2C_ListenCpltCallback>:
 80022e8:	4770      	bx	lr
 80022ea:	bf00      	nop

080022ec <HAL_I2C_MemTxCpltCallback>:
 80022ec:	4770      	bx	lr
 80022ee:	bf00      	nop

080022f0 <HAL_I2C_ErrorCallback>:
 80022f0:	4770      	bx	lr
 80022f2:	bf00      	nop

080022f4 <I2C_DMAError>:
 80022f4:	b538      	push	{r3, r4, r5, lr}
 80022f6:	6b84      	ldr	r4, [r0, #56]	; 0x38
 80022f8:	e9d4 230d 	ldrd	r2, r3, [r4, #52]	; 0x34
 80022fc:	2500      	movs	r5, #0
 80022fe:	63d5      	str	r5, [r2, #60]	; 0x3c
 8002300:	63dd      	str	r5, [r3, #60]	; 0x3c
 8002302:	f7ff f8bb 	bl	800147c <HAL_DMA_GetError>
 8002306:	2802      	cmp	r0, #2
 8002308:	d011      	beq.n	800232e <I2C_DMAError+0x3a>
 800230a:	6822      	ldr	r2, [r4, #0]
 800230c:	6813      	ldr	r3, [r2, #0]
 800230e:	2120      	movs	r1, #32
 8002310:	f423 6380 	bic.w	r3, r3, #1024	; 0x400
 8002314:	6013      	str	r3, [r2, #0]
 8002316:	8565      	strh	r5, [r4, #42]	; 0x2a
 8002318:	f884 103d 	strb.w	r1, [r4, #61]	; 0x3d
 800231c:	f884 503e 	strb.w	r5, [r4, #62]	; 0x3e
 8002320:	6c23      	ldr	r3, [r4, #64]	; 0x40
 8002322:	f043 0310 	orr.w	r3, r3, #16
 8002326:	6423      	str	r3, [r4, #64]	; 0x40
 8002328:	4620      	mov	r0, r4
 800232a:	f7ff ffe1 	bl	80022f0 <HAL_I2C_ErrorCallback>
 800232e:	bd38      	pop	{r3, r4, r5, pc}

08002330 <I2C_DMAXferCplt>:
 8002330:	b5f8      	push	{r3, r4, r5, r6, r7, lr}
 8002332:	6b84      	ldr	r4, [r0, #56]	; 0x38
 8002334:	6823      	ldr	r3, [r4, #0]
 8002336:	f894 203d 	ldrb.w	r2, [r4, #61]	; 0x3d
 800233a:	f894 003e 	ldrb.w	r0, [r4, #62]	; 0x3e
 800233e:	f8d4 c02c 	ldr.w	ip, [r4, #44]	; 0x2c
 8002342:	6859      	ldr	r1, [r3, #4]
 8002344:	e9d4 760d 	ldrd	r7, r6, [r4, #52]	; 0x34
 8002348:	b2d2      	uxtb	r2, r2
 800234a:	f421 7140 	bic.w	r1, r1, #768	; 0x300
 800234e:	f002 0521 	and.w	r5, r2, #33	; 0x21
 8002352:	6059      	str	r1, [r3, #4]
 8002354:	2d21      	cmp	r5, #33	; 0x21
 8002356:	f04f 0100 	mov.w	r1, #0
 800235a:	63f9      	str	r1, [r7, #60]	; 0x3c
 800235c:	63f1      	str	r1, [r6, #60]	; 0x3c
 800235e:	d041      	beq.n	80023e4 <I2C_DMAXferCplt+0xb4>
 8002360:	f002 0122 	and.w	r1, r2, #34	; 0x22
 8002364:	2922      	cmp	r1, #34	; 0x22
 8002366:	d03a      	beq.n	80023de <I2C_DMAXferCplt+0xae>
 8002368:	f894 203e 	ldrb.w	r2, [r4, #62]	; 0x3e
 800236c:	2a00      	cmp	r2, #0
 800236e:	d035      	beq.n	80023dc <I2C_DMAXferCplt+0xac>
 8002370:	8d62      	ldrh	r2, [r4, #42]	; 0x2a
 8002372:	b292      	uxth	r2, r2
 8002374:	2a01      	cmp	r2, #1
 8002376:	d103      	bne.n	8002380 <I2C_DMAXferCplt+0x50>
 8002378:	681a      	ldr	r2, [r3, #0]
 800237a:	f422 6280 	bic.w	r2, r2, #1024	; 0x400
 800237e:	601a      	str	r2, [r3, #0]
 8002380:	685a      	ldr	r2, [r3, #4]
 8002382:	f51c 3f80 	cmn.w	ip, #65536	; 0x10000
 8002386:	f422 7240 	bic.w	r2, r2, #768	; 0x300
 800238a:	605a      	str	r2, [r3, #4]
 800238c:	d008      	beq.n	80023a0 <I2C_DMAXferCplt+0x70>
 800238e:	f1bc 0f08 	cmp.w	ip, #8
 8002392:	d005      	beq.n	80023a0 <I2C_DMAXferCplt+0x70>
 8002394:	f1bc 4f2a 	cmp.w	ip, #2852126720	; 0xaa000000
 8002398:	d002      	beq.n	80023a0 <I2C_DMAXferCplt+0x70>
 800239a:	f1bc 0f20 	cmp.w	ip, #32
 800239e:	d103      	bne.n	80023a8 <I2C_DMAXferCplt+0x78>
 80023a0:	681a      	ldr	r2, [r3, #0]
 80023a2:	f442 7200 	orr.w	r2, r2, #512	; 0x200
 80023a6:	601a      	str	r2, [r3, #0]
 80023a8:	685a      	ldr	r2, [r3, #4]
 80023aa:	f422 5280 	bic.w	r2, r2, #4096	; 0x1000
 80023ae:	605a      	str	r2, [r3, #4]
 80023b0:	685a      	ldr	r2, [r3, #4]
 80023b2:	2100      	movs	r1, #0
 80023b4:	f422 6200 	bic.w	r2, r2, #2048	; 0x800
 80023b8:	605a      	str	r2, [r3, #4]
 80023ba:	8561      	strh	r1, [r4, #42]	; 0x2a
 80023bc:	6c23      	ldr	r3, [r4, #64]	; 0x40
 80023be:	bb3b      	cbnz	r3, 8002410 <I2C_DMAXferCplt+0xe0>
 80023c0:	2220      	movs	r2, #32
 80023c2:	f884 203d 	strb.w	r2, [r4, #61]	; 0x3d
 80023c6:	f894 203e 	ldrb.w	r2, [r4, #62]	; 0x3e
 80023ca:	2a40      	cmp	r2, #64	; 0x40
 80023cc:	d019      	beq.n	8002402 <I2C_DMAXferCplt+0xd2>
 80023ce:	2212      	movs	r2, #18
 80023d0:	f884 303e 	strb.w	r3, [r4, #62]	; 0x3e
 80023d4:	4620      	mov	r0, r4
 80023d6:	6322      	str	r2, [r4, #48]	; 0x30
 80023d8:	f7ff ff7e 	bl	80022d8 <HAL_I2C_MasterRxCpltCallback>
 80023dc:	bdf8      	pop	{r3, r4, r5, r6, r7, pc}
 80023de:	b2c0      	uxtb	r0, r0
 80023e0:	2820      	cmp	r0, #32
 80023e2:	d1c1      	bne.n	8002368 <I2C_DMAXferCplt+0x38>
 80023e4:	6859      	ldr	r1, [r3, #4]
 80023e6:	2000      	movs	r0, #0
 80023e8:	f421 6100 	bic.w	r1, r1, #2048	; 0x800
 80023ec:	2a29      	cmp	r2, #41	; 0x29
 80023ee:	6059      	str	r1, [r3, #4]
 80023f0:	8560      	strh	r0, [r4, #42]	; 0x2a
 80023f2:	d011      	beq.n	8002418 <I2C_DMAXferCplt+0xe8>
 80023f4:	2a2a      	cmp	r2, #42	; 0x2a
 80023f6:	d019      	beq.n	800242c <I2C_DMAXferCplt+0xfc>
 80023f8:	685a      	ldr	r2, [r3, #4]
 80023fa:	f442 7240 	orr.w	r2, r2, #768	; 0x300
 80023fe:	605a      	str	r2, [r3, #4]
 8002400:	bdf8      	pop	{r3, r4, r5, r6, r7, pc}
 8002402:	f884 303e 	strb.w	r3, [r4, #62]	; 0x3e
 8002406:	4620      	mov	r0, r4
 8002408:	6323      	str	r3, [r4, #48]	; 0x30
 800240a:	f001 ffe1 	bl	80043d0 <HAL_I2C_MemRxCpltCallback>
 800240e:	bdf8      	pop	{r3, r4, r5, r6, r7, pc}
 8002410:	4620      	mov	r0, r4
 8002412:	f7ff ff6d 	bl	80022f0 <HAL_I2C_ErrorCallback>
 8002416:	bdf8      	pop	{r3, r4, r5, r6, r7, pc}
 8002418:	2328      	movs	r3, #40	; 0x28
 800241a:	2221      	movs	r2, #33	; 0x21
 800241c:	6322      	str	r2, [r4, #48]	; 0x30
 800241e:	4620      	mov	r0, r4
 8002420:	f884 303d 	strb.w	r3, [r4, #61]	; 0x3d
 8002424:	f7ff ff5a 	bl	80022dc <HAL_I2C_SlaveTxCpltCallback>
 8002428:	6823      	ldr	r3, [r4, #0]
 800242a:	e7e5      	b.n	80023f8 <I2C_DMAXferCplt+0xc8>
 800242c:	2328      	movs	r3, #40	; 0x28
 800242e:	2222      	movs	r2, #34	; 0x22
 8002430:	6322      	str	r2, [r4, #48]	; 0x30
 8002432:	4620      	mov	r0, r4
 8002434:	f884 303d 	strb.w	r3, [r4, #61]	; 0x3d
 8002438:	f7ff ff52 	bl	80022e0 <HAL_I2C_SlaveRxCpltCallback>
 800243c:	6823      	ldr	r3, [r4, #0]
 800243e:	e7db      	b.n	80023f8 <I2C_DMAXferCplt+0xc8>

08002440 <HAL_I2C_AbortCpltCallback>:
 8002440:	4770      	bx	lr
 8002442:	bf00      	nop

08002444 <I2C_DMAAbort>:
 8002444:	6b83      	ldr	r3, [r0, #56]	; 0x38
 8002446:	6819      	ldr	r1, [r3, #0]
 8002448:	f893 003d 	ldrb.w	r0, [r3, #61]	; 0x3d
 800244c:	b570      	push	{r4, r5, r6, lr}
 800244e:	680c      	ldr	r4, [r1, #0]
 8002450:	e9d3 650d 	ldrd	r6, r5, [r3, #52]	; 0x34
 8002454:	2200      	movs	r2, #0
 8002456:	f424 6480 	bic.w	r4, r4, #1024	; 0x400
 800245a:	63f2      	str	r2, [r6, #60]	; 0x3c
 800245c:	63ea      	str	r2, [r5, #60]	; 0x3c
 800245e:	600c      	str	r4, [r1, #0]
 8002460:	855a      	strh	r2, [r3, #42]	; 0x2a
 8002462:	680c      	ldr	r4, [r1, #0]
 8002464:	6532      	str	r2, [r6, #80]	; 0x50
 8002466:	f024 0401 	bic.w	r4, r4, #1
 800246a:	652a      	str	r2, [r5, #80]	; 0x50
 800246c:	600c      	str	r4, [r1, #0]
 800246e:	f893 403d 	ldrb.w	r4, [r3, #61]	; 0x3d
 8002472:	2c60      	cmp	r4, #96	; 0x60
 8002474:	d019      	beq.n	80024aa <I2C_DMAAbort+0x66>
 8002476:	b2c0      	uxtb	r0, r0
 8002478:	f000 0028 	and.w	r0, r0, #40	; 0x28
 800247c:	2828      	cmp	r0, #40	; 0x28
 800247e:	d008      	beq.n	8002492 <I2C_DMAAbort+0x4e>
 8002480:	2120      	movs	r1, #32
 8002482:	f883 103d 	strb.w	r1, [r3, #61]	; 0x3d
 8002486:	f883 203e 	strb.w	r2, [r3, #62]	; 0x3e
 800248a:	4618      	mov	r0, r3
 800248c:	f7ff ff30 	bl	80022f0 <HAL_I2C_ErrorCallback>
 8002490:	bd70      	pop	{r4, r5, r6, pc}
 8002492:	680c      	ldr	r4, [r1, #0]
 8002494:	f044 0401 	orr.w	r4, r4, #1
 8002498:	600c      	str	r4, [r1, #0]
 800249a:	680c      	ldr	r4, [r1, #0]
 800249c:	f444 6480 	orr.w	r4, r4, #1024	; 0x400
 80024a0:	600c      	str	r4, [r1, #0]
 80024a2:	631a      	str	r2, [r3, #48]	; 0x30
 80024a4:	f883 003d 	strb.w	r0, [r3, #61]	; 0x3d
 80024a8:	e7ef      	b.n	800248a <I2C_DMAAbort+0x46>
 80024aa:	2120      	movs	r1, #32
 80024ac:	f883 103d 	strb.w	r1, [r3, #61]	; 0x3d
 80024b0:	4618      	mov	r0, r3
 80024b2:	f883 203e 	strb.w	r2, [r3, #62]	; 0x3e
 80024b6:	641a      	str	r2, [r3, #64]	; 0x40
 80024b8:	f7ff ffc2 	bl	8002440 <HAL_I2C_AbortCpltCallback>
 80024bc:	bd70      	pop	{r4, r5, r6, pc}
 80024be:	bf00      	nop

080024c0 <HAL_I2C_EV_IRQHandler>:
 80024c0:	b570      	push	{r4, r5, r6, lr}
 80024c2:	6803      	ldr	r3, [r0, #0]
 80024c4:	4604      	mov	r4, r0
 80024c6:	6858      	ldr	r0, [r3, #4]
 80024c8:	6ae5      	ldr	r5, [r4, #44]	; 0x2c
 80024ca:	f894 203e 	ldrb.w	r2, [r4, #62]	; 0x3e
 80024ce:	f894 103d 	ldrb.w	r1, [r4, #61]	; 0x3d
 80024d2:	b2d2      	uxtb	r2, r2
 80024d4:	2a10      	cmp	r2, #16
 80024d6:	b08c      	sub	sp, #48	; 0x30
 80024d8:	d022      	beq.n	8002520 <HAL_I2C_EV_IRQHandler+0x60>
 80024da:	2a40      	cmp	r2, #64	; 0x40
 80024dc:	d020      	beq.n	8002520 <HAL_I2C_EV_IRQHandler+0x60>
 80024de:	6c22      	ldr	r2, [r4, #64]	; 0x40
 80024e0:	b2c9      	uxtb	r1, r1
 80024e2:	2a00      	cmp	r2, #0
 80024e4:	f000 80cc 	beq.w	8002680 <HAL_I2C_EV_IRQHandler+0x1c0>
 80024e8:	695a      	ldr	r2, [r3, #20]
 80024ea:	2600      	movs	r6, #0
 80024ec:	f3c2 0540 	ubfx	r5, r2, #1, #1
 80024f0:	2d00      	cmp	r5, #0
 80024f2:	f000 8089 	beq.w	8002608 <HAL_I2C_EV_IRQHandler+0x148>
 80024f6:	0585      	lsls	r5, r0, #22
 80024f8:	f140 808b 	bpl.w	8002612 <HAL_I2C_EV_IRQHandler+0x152>
 80024fc:	6c22      	ldr	r2, [r4, #64]	; 0x40
 80024fe:	b102      	cbz	r2, 8002502 <HAL_I2C_EV_IRQHandler+0x42>
 8002500:	699e      	ldr	r6, [r3, #24]
 8002502:	f894 203d 	ldrb.w	r2, [r4, #61]	; 0x3d
 8002506:	f002 0228 	and.w	r2, r2, #40	; 0x28
 800250a:	2a28      	cmp	r2, #40	; 0x28
 800250c:	f000 8243 	beq.w	8002996 <HAL_I2C_EV_IRQHandler+0x4d6>
 8002510:	f06f 0102 	mvn.w	r1, #2
 8002514:	2200      	movs	r2, #0
 8002516:	6159      	str	r1, [r3, #20]
 8002518:	f884 203c 	strb.w	r2, [r4, #60]	; 0x3c
 800251c:	b00c      	add	sp, #48	; 0x30
 800251e:	bd70      	pop	{r4, r5, r6, pc}
 8002520:	6999      	ldr	r1, [r3, #24]
 8002522:	695a      	ldr	r2, [r3, #20]
 8002524:	07d6      	lsls	r6, r2, #31
 8002526:	d449      	bmi.n	80025bc <HAL_I2C_EV_IRQHandler+0xfc>
 8002528:	f5b5 0f2a 	cmp.w	r5, #11141120	; 0xaa0000
 800252c:	d0f6      	beq.n	800251c <HAL_I2C_EV_IRQHandler+0x5c>
 800252e:	f1b5 4f2a 	cmp.w	r5, #2852126720	; 0xaa000000
 8002532:	d0f3      	beq.n	800251c <HAL_I2C_EV_IRQHandler+0x5c>
 8002534:	0716      	lsls	r6, r2, #28
 8002536:	f140 80a9 	bpl.w	800268c <HAL_I2C_EV_IRQHandler+0x1cc>
 800253a:	0585      	lsls	r5, r0, #22
 800253c:	f100 821c 	bmi.w	8002978 <HAL_I2C_EV_IRQHandler+0x4b8>
 8002540:	f011 0f04 	tst.w	r1, #4
 8002544:	6859      	ldr	r1, [r3, #4]
 8002546:	f000 810e 	beq.w	8002766 <HAL_I2C_EV_IRQHandler+0x2a6>
 800254a:	0509      	lsls	r1, r1, #20
 800254c:	d4e6      	bmi.n	800251c <HAL_I2C_EV_IRQHandler+0x5c>
 800254e:	0616      	lsls	r6, r2, #24
 8002550:	f3c2 0180 	ubfx	r1, r2, #2, #1
 8002554:	f140 81af 	bpl.w	80028b6 <HAL_I2C_EV_IRQHandler+0x3f6>
 8002558:	0545      	lsls	r5, r0, #21
 800255a:	f140 81ac 	bpl.w	80028b6 <HAL_I2C_EV_IRQHandler+0x3f6>
 800255e:	2900      	cmp	r1, #0
 8002560:	f040 81ac 	bne.w	80028bc <HAL_I2C_EV_IRQHandler+0x3fc>
 8002564:	f894 203d 	ldrb.w	r2, [r4, #61]	; 0x3d
 8002568:	8d20      	ldrh	r0, [r4, #40]	; 0x28
 800256a:	f894 103e 	ldrb.w	r1, [r4, #62]	; 0x3e
 800256e:	6ae5      	ldr	r5, [r4, #44]	; 0x2c
 8002570:	b2d2      	uxtb	r2, r2
 8002572:	b2c9      	uxtb	r1, r1
 8002574:	2800      	cmp	r0, #0
 8002576:	f040 8383 	bne.w	8002c80 <HAL_I2C_EV_IRQHandler+0x7c0>
 800257a:	2a21      	cmp	r2, #33	; 0x21
 800257c:	f000 8427 	beq.w	8002dce <HAL_I2C_EV_IRQHandler+0x90e>
 8002580:	2940      	cmp	r1, #64	; 0x40
 8002582:	d1cb      	bne.n	800251c <HAL_I2C_EV_IRQHandler+0x5c>
 8002584:	2a22      	cmp	r2, #34	; 0x22
 8002586:	d1c9      	bne.n	800251c <HAL_I2C_EV_IRQHandler+0x5c>
 8002588:	8d62      	ldrh	r2, [r4, #42]	; 0x2a
 800258a:	b292      	uxth	r2, r2
 800258c:	2a00      	cmp	r2, #0
 800258e:	f000 8439 	beq.w	8002e04 <HAL_I2C_EV_IRQHandler+0x944>
 8002592:	f894 203e 	ldrb.w	r2, [r4, #62]	; 0x3e
 8002596:	2a40      	cmp	r2, #64	; 0x40
 8002598:	f040 80c5 	bne.w	8002726 <HAL_I2C_EV_IRQHandler+0x266>
 800259c:	6d22      	ldr	r2, [r4, #80]	; 0x50
 800259e:	2a00      	cmp	r2, #0
 80025a0:	f040 84ae 	bne.w	8002f00 <HAL_I2C_EV_IRQHandler+0xa40>
 80025a4:	6ce2      	ldr	r2, [r4, #76]	; 0x4c
 80025a6:	2a01      	cmp	r2, #1
 80025a8:	6ca2      	ldr	r2, [r4, #72]	; 0x48
 80025aa:	f000 84ba 	beq.w	8002f22 <HAL_I2C_EV_IRQHandler+0xa62>
 80025ae:	f3c2 2207 	ubfx	r2, r2, #8, #8
 80025b2:	611a      	str	r2, [r3, #16]
 80025b4:	6d23      	ldr	r3, [r4, #80]	; 0x50
 80025b6:	3301      	adds	r3, #1
 80025b8:	6523      	str	r3, [r4, #80]	; 0x50
 80025ba:	e7af      	b.n	800251c <HAL_I2C_EV_IRQHandler+0x5c>
 80025bc:	0585      	lsls	r5, r0, #22
 80025be:	d562      	bpl.n	8002686 <HAL_I2C_EV_IRQHandler+0x1c6>
 80025c0:	6ae2      	ldr	r2, [r4, #44]	; 0x2c
 80025c2:	f5b2 0f2a 	cmp.w	r2, #11141120	; 0xaa0000
 80025c6:	f000 81fa 	beq.w	80029be <HAL_I2C_EV_IRQHandler+0x4fe>
 80025ca:	6ae2      	ldr	r2, [r4, #44]	; 0x2c
 80025cc:	f1b2 4f2a 	cmp.w	r2, #2852126720	; 0xaa000000
 80025d0:	bf04      	itt	eq
 80025d2:	2208      	moveq	r2, #8
 80025d4:	62e2      	streq	r2, [r4, #44]	; 0x2c
 80025d6:	f894 203e 	ldrb.w	r2, [r4, #62]	; 0x3e
 80025da:	2a40      	cmp	r2, #64	; 0x40
 80025dc:	f000 81f2 	beq.w	80029c4 <HAL_I2C_EV_IRQHandler+0x504>
 80025e0:	6922      	ldr	r2, [r4, #16]
 80025e2:	f5b2 4f80 	cmp.w	r2, #16384	; 0x4000
 80025e6:	f000 81b1 	beq.w	800294c <HAL_I2C_EV_IRQHandler+0x48c>
 80025ea:	6d22      	ldr	r2, [r4, #80]	; 0x50
 80025ec:	2a00      	cmp	r2, #0
 80025ee:	f000 81f0 	beq.w	80029d2 <HAL_I2C_EV_IRQHandler+0x512>
 80025f2:	6d22      	ldr	r2, [r4, #80]	; 0x50
 80025f4:	2a01      	cmp	r2, #1
 80025f6:	d191      	bne.n	800251c <HAL_I2C_EV_IRQHandler+0x5c>
 80025f8:	6c62      	ldr	r2, [r4, #68]	; 0x44
 80025fa:	11d2      	asrs	r2, r2, #7
 80025fc:	f002 0206 	and.w	r2, r2, #6
 8002600:	f042 02f1 	orr.w	r2, r2, #241	; 0xf1
 8002604:	611a      	str	r2, [r3, #16]
 8002606:	e789      	b.n	800251c <HAL_I2C_EV_IRQHandler+0x5c>
 8002608:	06d6      	lsls	r6, r2, #27
 800260a:	d502      	bpl.n	8002612 <HAL_I2C_EV_IRQHandler+0x152>
 800260c:	0586      	lsls	r6, r0, #22
 800260e:	f100 80d7 	bmi.w	80027c0 <HAL_I2C_EV_IRQHandler+0x300>
 8002612:	f001 01f7 	and.w	r1, r1, #247	; 0xf7
 8002616:	2921      	cmp	r1, #33	; 0x21
 8002618:	f3c2 0580 	ubfx	r5, r2, #2, #1
 800261c:	d04e      	beq.n	80026bc <HAL_I2C_EV_IRQHandler+0x1fc>
 800261e:	0651      	lsls	r1, r2, #25
 8002620:	f140 808b 	bpl.w	800273a <HAL_I2C_EV_IRQHandler+0x27a>
 8002624:	0542      	lsls	r2, r0, #21
 8002626:	f140 8088 	bpl.w	800273a <HAL_I2C_EV_IRQHandler+0x27a>
 800262a:	2d00      	cmp	r5, #0
 800262c:	f040 8088 	bne.w	8002740 <HAL_I2C_EV_IRQHandler+0x280>
 8002630:	f894 103d 	ldrb.w	r1, [r4, #61]	; 0x3d
 8002634:	8d62      	ldrh	r2, [r4, #42]	; 0x2a
 8002636:	b292      	uxth	r2, r2
 8002638:	b2c9      	uxtb	r1, r1
 800263a:	2a00      	cmp	r2, #0
 800263c:	f43f af6e 	beq.w	800251c <HAL_I2C_EV_IRQHandler+0x5c>
 8002640:	6a62      	ldr	r2, [r4, #36]	; 0x24
 8002642:	691b      	ldr	r3, [r3, #16]
 8002644:	7013      	strb	r3, [r2, #0]
 8002646:	8d63      	ldrh	r3, [r4, #42]	; 0x2a
 8002648:	6a62      	ldr	r2, [r4, #36]	; 0x24
 800264a:	3b01      	subs	r3, #1
 800264c:	b29b      	uxth	r3, r3
 800264e:	8563      	strh	r3, [r4, #42]	; 0x2a
 8002650:	8d63      	ldrh	r3, [r4, #42]	; 0x2a
 8002652:	3201      	adds	r2, #1
 8002654:	b29b      	uxth	r3, r3
 8002656:	6262      	str	r2, [r4, #36]	; 0x24
 8002658:	2b00      	cmp	r3, #0
 800265a:	f47f af5f 	bne.w	800251c <HAL_I2C_EV_IRQHandler+0x5c>
 800265e:	292a      	cmp	r1, #42	; 0x2a
 8002660:	f47f af5c 	bne.w	800251c <HAL_I2C_EV_IRQHandler+0x5c>
 8002664:	6822      	ldr	r2, [r4, #0]
 8002666:	6853      	ldr	r3, [r2, #4]
 8002668:	2522      	movs	r5, #34	; 0x22
 800266a:	f423 6380 	bic.w	r3, r3, #1024	; 0x400
 800266e:	2128      	movs	r1, #40	; 0x28
 8002670:	6053      	str	r3, [r2, #4]
 8002672:	4620      	mov	r0, r4
 8002674:	6325      	str	r5, [r4, #48]	; 0x30
 8002676:	f884 103d 	strb.w	r1, [r4, #61]	; 0x3d
 800267a:	f7ff fe31 	bl	80022e0 <HAL_I2C_SlaveRxCpltCallback>
 800267e:	e74d      	b.n	800251c <HAL_I2C_EV_IRQHandler+0x5c>
 8002680:	699e      	ldr	r6, [r3, #24]
 8002682:	695a      	ldr	r2, [r3, #20]
 8002684:	e732      	b.n	80024ec <HAL_I2C_EV_IRQHandler+0x2c>
 8002686:	0715      	lsls	r5, r2, #28
 8002688:	f53f af5a 	bmi.w	8002540 <HAL_I2C_EV_IRQHandler+0x80>
 800268c:	0796      	lsls	r6, r2, #30
 800268e:	f57f af57 	bpl.w	8002540 <HAL_I2C_EV_IRQHandler+0x80>
 8002692:	0585      	lsls	r5, r0, #22
 8002694:	f57f af54 	bpl.w	8002540 <HAL_I2C_EV_IRQHandler+0x80>
 8002698:	f894 203e 	ldrb.w	r2, [r4, #62]	; 0x3e
 800269c:	6ae0      	ldr	r0, [r4, #44]	; 0x2c
 800269e:	6b25      	ldr	r5, [r4, #48]	; 0x30
 80026a0:	f894 103d 	ldrb.w	r1, [r4, #61]	; 0x3d
 80026a4:	2922      	cmp	r1, #34	; 0x22
 80026a6:	b2d2      	uxtb	r2, r2
 80026a8:	f000 821f 	beq.w	8002aea <HAL_I2C_EV_IRQHandler+0x62a>
 80026ac:	2200      	movs	r2, #0
 80026ae:	920a      	str	r2, [sp, #40]	; 0x28
 80026b0:	695a      	ldr	r2, [r3, #20]
 80026b2:	920a      	str	r2, [sp, #40]	; 0x28
 80026b4:	699b      	ldr	r3, [r3, #24]
 80026b6:	930a      	str	r3, [sp, #40]	; 0x28
 80026b8:	9b0a      	ldr	r3, [sp, #40]	; 0x28
 80026ba:	e72f      	b.n	800251c <HAL_I2C_EV_IRQHandler+0x5c>
 80026bc:	0612      	lsls	r2, r2, #24
 80026be:	d527      	bpl.n	8002710 <HAL_I2C_EV_IRQHandler+0x250>
 80026c0:	0546      	lsls	r6, r0, #21
 80026c2:	d525      	bpl.n	8002710 <HAL_I2C_EV_IRQHandler+0x250>
 80026c4:	bb3d      	cbnz	r5, 8002716 <HAL_I2C_EV_IRQHandler+0x256>
 80026c6:	f894 003d 	ldrb.w	r0, [r4, #61]	; 0x3d
 80026ca:	8d62      	ldrh	r2, [r4, #42]	; 0x2a
 80026cc:	b292      	uxth	r2, r2
 80026ce:	b2c0      	uxtb	r0, r0
 80026d0:	2a00      	cmp	r2, #0
 80026d2:	f43f af23 	beq.w	800251c <HAL_I2C_EV_IRQHandler+0x5c>
 80026d6:	6a65      	ldr	r5, [r4, #36]	; 0x24
 80026d8:	f815 2b01 	ldrb.w	r2, [r5], #1
 80026dc:	611a      	str	r2, [r3, #16]
 80026de:	8d62      	ldrh	r2, [r4, #42]	; 0x2a
 80026e0:	6265      	str	r5, [r4, #36]	; 0x24
 80026e2:	3a01      	subs	r2, #1
 80026e4:	b292      	uxth	r2, r2
 80026e6:	8562      	strh	r2, [r4, #42]	; 0x2a
 80026e8:	8d62      	ldrh	r2, [r4, #42]	; 0x2a
 80026ea:	b292      	uxth	r2, r2
 80026ec:	2a00      	cmp	r2, #0
 80026ee:	f47f af15 	bne.w	800251c <HAL_I2C_EV_IRQHandler+0x5c>
 80026f2:	2829      	cmp	r0, #41	; 0x29
 80026f4:	f47f af12 	bne.w	800251c <HAL_I2C_EV_IRQHandler+0x5c>
 80026f8:	685a      	ldr	r2, [r3, #4]
 80026fa:	2528      	movs	r5, #40	; 0x28
 80026fc:	f422 6280 	bic.w	r2, r2, #1024	; 0x400
 8002700:	605a      	str	r2, [r3, #4]
 8002702:	4620      	mov	r0, r4
 8002704:	6321      	str	r1, [r4, #48]	; 0x30
 8002706:	f884 503d 	strb.w	r5, [r4, #61]	; 0x3d
 800270a:	f7ff fde7 	bl	80022dc <HAL_I2C_SlaveTxCpltCallback>
 800270e:	e705      	b.n	800251c <HAL_I2C_EV_IRQHandler+0x5c>
 8002710:	2d00      	cmp	r5, #0
 8002712:	f43f af03 	beq.w	800251c <HAL_I2C_EV_IRQHandler+0x5c>
 8002716:	0580      	lsls	r0, r0, #22
 8002718:	f57f af00 	bpl.w	800251c <HAL_I2C_EV_IRQHandler+0x5c>
 800271c:	8d62      	ldrh	r2, [r4, #42]	; 0x2a
 800271e:	b292      	uxth	r2, r2
 8002720:	2a00      	cmp	r2, #0
 8002722:	f43f aefb 	beq.w	800251c <HAL_I2C_EV_IRQHandler+0x5c>
 8002726:	6a62      	ldr	r2, [r4, #36]	; 0x24
 8002728:	f812 1b01 	ldrb.w	r1, [r2], #1
 800272c:	6119      	str	r1, [r3, #16]
 800272e:	8d63      	ldrh	r3, [r4, #42]	; 0x2a
 8002730:	6262      	str	r2, [r4, #36]	; 0x24
 8002732:	3b01      	subs	r3, #1
 8002734:	b29b      	uxth	r3, r3
 8002736:	8563      	strh	r3, [r4, #42]	; 0x2a
 8002738:	e6f0      	b.n	800251c <HAL_I2C_EV_IRQHandler+0x5c>
 800273a:	2d00      	cmp	r5, #0
 800273c:	f43f aeee 	beq.w	800251c <HAL_I2C_EV_IRQHandler+0x5c>
 8002740:	0586      	lsls	r6, r0, #22
 8002742:	f57f aeeb 	bpl.w	800251c <HAL_I2C_EV_IRQHandler+0x5c>
 8002746:	8d62      	ldrh	r2, [r4, #42]	; 0x2a
 8002748:	b292      	uxth	r2, r2
 800274a:	2a00      	cmp	r2, #0
 800274c:	f43f aee6 	beq.w	800251c <HAL_I2C_EV_IRQHandler+0x5c>
 8002750:	6a62      	ldr	r2, [r4, #36]	; 0x24
 8002752:	691b      	ldr	r3, [r3, #16]
 8002754:	7013      	strb	r3, [r2, #0]
 8002756:	8d63      	ldrh	r3, [r4, #42]	; 0x2a
 8002758:	6a62      	ldr	r2, [r4, #36]	; 0x24
 800275a:	3b01      	subs	r3, #1
 800275c:	b29b      	uxth	r3, r3
 800275e:	3201      	adds	r2, #1
 8002760:	8563      	strh	r3, [r4, #42]	; 0x2a
 8002762:	6262      	str	r2, [r4, #36]	; 0x24
 8002764:	e6da      	b.n	800251c <HAL_I2C_EV_IRQHandler+0x5c>
 8002766:	050e      	lsls	r6, r1, #20
 8002768:	f53f aed8 	bmi.w	800251c <HAL_I2C_EV_IRQHandler+0x5c>
 800276c:	0655      	lsls	r5, r2, #25
 800276e:	f3c2 0180 	ubfx	r1, r2, #2, #1
 8002772:	f140 80d1 	bpl.w	8002918 <HAL_I2C_EV_IRQHandler+0x458>
 8002776:	0542      	lsls	r2, r0, #21
 8002778:	f140 80ce 	bpl.w	8002918 <HAL_I2C_EV_IRQHandler+0x458>
 800277c:	2900      	cmp	r1, #0
 800277e:	f040 80ce 	bne.w	800291e <HAL_I2C_EV_IRQHandler+0x45e>
 8002782:	f894 203d 	ldrb.w	r2, [r4, #61]	; 0x3d
 8002786:	2a22      	cmp	r2, #34	; 0x22
 8002788:	f47f aec8 	bne.w	800251c <HAL_I2C_EV_IRQHandler+0x5c>
 800278c:	8d62      	ldrh	r2, [r4, #42]	; 0x2a
 800278e:	b292      	uxth	r2, r2
 8002790:	2a03      	cmp	r2, #3
 8002792:	f240 82ef 	bls.w	8002d74 <HAL_I2C_EV_IRQHandler+0x8b4>
 8002796:	6a62      	ldr	r2, [r4, #36]	; 0x24
 8002798:	691b      	ldr	r3, [r3, #16]
 800279a:	7013      	strb	r3, [r2, #0]
 800279c:	8d63      	ldrh	r3, [r4, #42]	; 0x2a
 800279e:	6a62      	ldr	r2, [r4, #36]	; 0x24
 80027a0:	3b01      	subs	r3, #1
 80027a2:	b29b      	uxth	r3, r3
 80027a4:	8563      	strh	r3, [r4, #42]	; 0x2a
 80027a6:	8d63      	ldrh	r3, [r4, #42]	; 0x2a
 80027a8:	b29b      	uxth	r3, r3
 80027aa:	3201      	adds	r2, #1
 80027ac:	2b03      	cmp	r3, #3
 80027ae:	6262      	str	r2, [r4, #36]	; 0x24
 80027b0:	f47f aeb4 	bne.w	800251c <HAL_I2C_EV_IRQHandler+0x5c>
 80027b4:	6822      	ldr	r2, [r4, #0]
 80027b6:	6853      	ldr	r3, [r2, #4]
 80027b8:	f423 6380 	bic.w	r3, r3, #1024	; 0x400
 80027bc:	6053      	str	r3, [r2, #4]
 80027be:	e6ad      	b.n	800251c <HAL_I2C_EV_IRQHandler+0x5c>
 80027c0:	f894 103d 	ldrb.w	r1, [r4, #61]	; 0x3d
 80027c4:	685a      	ldr	r2, [r3, #4]
 80027c6:	f422 62e0 	bic.w	r2, r2, #1792	; 0x700
 80027ca:	605a      	str	r2, [r3, #4]
 80027cc:	950b      	str	r5, [sp, #44]	; 0x2c
 80027ce:	695a      	ldr	r2, [r3, #20]
 80027d0:	920b      	str	r2, [sp, #44]	; 0x2c
 80027d2:	681a      	ldr	r2, [r3, #0]
 80027d4:	f042 0201 	orr.w	r2, r2, #1
 80027d8:	601a      	str	r2, [r3, #0]
 80027da:	9a0b      	ldr	r2, [sp, #44]	; 0x2c
 80027dc:	681a      	ldr	r2, [r3, #0]
 80027de:	f422 6280 	bic.w	r2, r2, #1024	; 0x400
 80027e2:	601a      	str	r2, [r3, #0]
 80027e4:	685a      	ldr	r2, [r3, #4]
 80027e6:	b2cd      	uxtb	r5, r1
 80027e8:	0511      	lsls	r1, r2, #20
 80027ea:	d521      	bpl.n	8002830 <HAL_I2C_EV_IRQHandler+0x370>
 80027ec:	f005 02f7 	and.w	r2, r5, #247	; 0xf7
 80027f0:	2a22      	cmp	r2, #34	; 0x22
 80027f2:	f000 8159 	beq.w	8002aa8 <HAL_I2C_EV_IRQHandler+0x5e8>
 80027f6:	6b60      	ldr	r0, [r4, #52]	; 0x34
 80027f8:	6802      	ldr	r2, [r0, #0]
 80027fa:	6852      	ldr	r2, [r2, #4]
 80027fc:	b292      	uxth	r2, r2
 80027fe:	8562      	strh	r2, [r4, #42]	; 0x2a
 8002800:	8d62      	ldrh	r2, [r4, #42]	; 0x2a
 8002802:	b292      	uxth	r2, r2
 8002804:	b11a      	cbz	r2, 800280e <HAL_I2C_EV_IRQHandler+0x34e>
 8002806:	6c22      	ldr	r2, [r4, #64]	; 0x40
 8002808:	f042 0204 	orr.w	r2, r2, #4
 800280c:	6422      	str	r2, [r4, #64]	; 0x40
 800280e:	685a      	ldr	r2, [r3, #4]
 8002810:	f422 6200 	bic.w	r2, r2, #2048	; 0x800
 8002814:	605a      	str	r2, [r3, #4]
 8002816:	f7fe fe2d 	bl	8001474 <HAL_DMA_GetState>
 800281a:	2801      	cmp	r0, #1
 800281c:	d008      	beq.n	8002830 <HAL_I2C_EV_IRQHandler+0x370>
 800281e:	6b60      	ldr	r0, [r4, #52]	; 0x34
 8002820:	4b9f      	ldr	r3, [pc, #636]	; (8002aa0 <HAL_I2C_EV_IRQHandler+0x5e0>)
 8002822:	6503      	str	r3, [r0, #80]	; 0x50
 8002824:	f7fe fd3e 	bl	80012a4 <HAL_DMA_Abort_IT>
 8002828:	b110      	cbz	r0, 8002830 <HAL_I2C_EV_IRQHandler+0x370>
 800282a:	6b60      	ldr	r0, [r4, #52]	; 0x34
 800282c:	6d03      	ldr	r3, [r0, #80]	; 0x50
 800282e:	4798      	blx	r3
 8002830:	8d63      	ldrh	r3, [r4, #42]	; 0x2a
 8002832:	b29b      	uxth	r3, r3
 8002834:	b313      	cbz	r3, 800287c <HAL_I2C_EV_IRQHandler+0x3bc>
 8002836:	6823      	ldr	r3, [r4, #0]
 8002838:	695a      	ldr	r2, [r3, #20]
 800283a:	0752      	lsls	r2, r2, #29
 800283c:	d50a      	bpl.n	8002854 <HAL_I2C_EV_IRQHandler+0x394>
 800283e:	6a62      	ldr	r2, [r4, #36]	; 0x24
 8002840:	691b      	ldr	r3, [r3, #16]
 8002842:	7013      	strb	r3, [r2, #0]
 8002844:	8d62      	ldrh	r2, [r4, #42]	; 0x2a
 8002846:	6a61      	ldr	r1, [r4, #36]	; 0x24
 8002848:	6823      	ldr	r3, [r4, #0]
 800284a:	3a01      	subs	r2, #1
 800284c:	b292      	uxth	r2, r2
 800284e:	3101      	adds	r1, #1
 8002850:	8562      	strh	r2, [r4, #42]	; 0x2a
 8002852:	6261      	str	r1, [r4, #36]	; 0x24
 8002854:	695a      	ldr	r2, [r3, #20]
 8002856:	0656      	lsls	r6, r2, #25
 8002858:	d509      	bpl.n	800286e <HAL_I2C_EV_IRQHandler+0x3ae>
 800285a:	6a62      	ldr	r2, [r4, #36]	; 0x24
 800285c:	691b      	ldr	r3, [r3, #16]
 800285e:	7013      	strb	r3, [r2, #0]
 8002860:	8d63      	ldrh	r3, [r4, #42]	; 0x2a
 8002862:	6a62      	ldr	r2, [r4, #36]	; 0x24
 8002864:	3b01      	subs	r3, #1
 8002866:	b29b      	uxth	r3, r3
 8002868:	3201      	adds	r2, #1
 800286a:	8563      	strh	r3, [r4, #42]	; 0x2a
 800286c:	6262      	str	r2, [r4, #36]	; 0x24
 800286e:	8d63      	ldrh	r3, [r4, #42]	; 0x2a
 8002870:	b29b      	uxth	r3, r3
 8002872:	b11b      	cbz	r3, 800287c <HAL_I2C_EV_IRQHandler+0x3bc>
 8002874:	6c23      	ldr	r3, [r4, #64]	; 0x40
 8002876:	f043 0304 	orr.w	r3, r3, #4
 800287a:	6423      	str	r3, [r4, #64]	; 0x40
 800287c:	6c23      	ldr	r3, [r4, #64]	; 0x40
 800287e:	2b00      	cmp	r3, #0
 8002880:	f040 80b5 	bne.w	80029ee <HAL_I2C_EV_IRQHandler+0x52e>
 8002884:	2d2a      	cmp	r5, #42	; 0x2a
 8002886:	f000 8163 	beq.w	8002b50 <HAL_I2C_EV_IRQHandler+0x690>
 800288a:	f894 303d 	ldrb.w	r3, [r4, #61]	; 0x3d
 800288e:	2b28      	cmp	r3, #40	; 0x28
 8002890:	f000 8166 	beq.w	8002b60 <HAL_I2C_EV_IRQHandler+0x6a0>
 8002894:	6b23      	ldr	r3, [r4, #48]	; 0x30
 8002896:	2b22      	cmp	r3, #34	; 0x22
 8002898:	d002      	beq.n	80028a0 <HAL_I2C_EV_IRQHandler+0x3e0>
 800289a:	2d22      	cmp	r5, #34	; 0x22
 800289c:	f47f ae3e 	bne.w	800251c <HAL_I2C_EV_IRQHandler+0x5c>
 80028a0:	2300      	movs	r3, #0
 80028a2:	2220      	movs	r2, #32
 80028a4:	6323      	str	r3, [r4, #48]	; 0x30
 80028a6:	4620      	mov	r0, r4
 80028a8:	f884 203d 	strb.w	r2, [r4, #61]	; 0x3d
 80028ac:	f884 303e 	strb.w	r3, [r4, #62]	; 0x3e
 80028b0:	f7ff fd16 	bl	80022e0 <HAL_I2C_SlaveRxCpltCallback>
 80028b4:	e632      	b.n	800251c <HAL_I2C_EV_IRQHandler+0x5c>
 80028b6:	2900      	cmp	r1, #0
 80028b8:	f43f ae30 	beq.w	800251c <HAL_I2C_EV_IRQHandler+0x5c>
 80028bc:	0582      	lsls	r2, r0, #22
 80028be:	f57f ae2d 	bpl.w	800251c <HAL_I2C_EV_IRQHandler+0x5c>
 80028c2:	6ae1      	ldr	r1, [r4, #44]	; 0x2c
 80028c4:	f894 203d 	ldrb.w	r2, [r4, #61]	; 0x3d
 80028c8:	2a21      	cmp	r2, #33	; 0x21
 80028ca:	f47f ae27 	bne.w	800251c <HAL_I2C_EV_IRQHandler+0x5c>
 80028ce:	8d62      	ldrh	r2, [r4, #42]	; 0x2a
 80028d0:	b292      	uxth	r2, r2
 80028d2:	2a00      	cmp	r2, #0
 80028d4:	f47f af27 	bne.w	8002726 <HAL_I2C_EV_IRQHandler+0x266>
 80028d8:	2908      	cmp	r1, #8
 80028da:	d005      	beq.n	80028e8 <HAL_I2C_EV_IRQHandler+0x428>
 80028dc:	2920      	cmp	r1, #32
 80028de:	d003      	beq.n	80028e8 <HAL_I2C_EV_IRQHandler+0x428>
 80028e0:	f511 3f80 	cmn.w	r1, #65536	; 0x10000
 80028e4:	f040 82eb 	bne.w	8002ebe <HAL_I2C_EV_IRQHandler+0x9fe>
 80028e8:	685a      	ldr	r2, [r3, #4]
 80028ea:	f422 62e0 	bic.w	r2, r2, #1792	; 0x700
 80028ee:	605a      	str	r2, [r3, #4]
 80028f0:	6819      	ldr	r1, [r3, #0]
 80028f2:	2200      	movs	r2, #0
 80028f4:	2020      	movs	r0, #32
 80028f6:	f441 7100 	orr.w	r1, r1, #512	; 0x200
 80028fa:	6019      	str	r1, [r3, #0]
 80028fc:	6322      	str	r2, [r4, #48]	; 0x30
 80028fe:	f884 003d 	strb.w	r0, [r4, #61]	; 0x3d
 8002902:	f894 303e 	ldrb.w	r3, [r4, #62]	; 0x3e
 8002906:	f884 203e 	strb.w	r2, [r4, #62]	; 0x3e
 800290a:	2b40      	cmp	r3, #64	; 0x40
 800290c:	4620      	mov	r0, r4
 800290e:	f000 82ab 	beq.w	8002e68 <HAL_I2C_EV_IRQHandler+0x9a8>
 8002912:	f7ff fcdf 	bl	80022d4 <HAL_I2C_MasterTxCpltCallback>
 8002916:	e601      	b.n	800251c <HAL_I2C_EV_IRQHandler+0x5c>
 8002918:	2900      	cmp	r1, #0
 800291a:	f43f adff 	beq.w	800251c <HAL_I2C_EV_IRQHandler+0x5c>
 800291e:	0586      	lsls	r6, r0, #22
 8002920:	f57f adfc 	bpl.w	800251c <HAL_I2C_EV_IRQHandler+0x5c>
 8002924:	6ae0      	ldr	r0, [r4, #44]	; 0x2c
 8002926:	8d62      	ldrh	r2, [r4, #42]	; 0x2a
 8002928:	6a61      	ldr	r1, [r4, #36]	; 0x24
 800292a:	b292      	uxth	r2, r2
 800292c:	2a04      	cmp	r2, #4
 800292e:	f000 815d 	beq.w	8002bec <HAL_I2C_EV_IRQHandler+0x72c>
 8002932:	8d62      	ldrh	r2, [r4, #42]	; 0x2a
 8002934:	b292      	uxth	r2, r2
 8002936:	2a03      	cmp	r2, #3
 8002938:	f000 815f 	beq.w	8002bfa <HAL_I2C_EV_IRQHandler+0x73a>
 800293c:	8d62      	ldrh	r2, [r4, #42]	; 0x2a
 800293e:	b292      	uxth	r2, r2
 8002940:	2a02      	cmp	r2, #2
 8002942:	f000 81d7 	beq.w	8002cf4 <HAL_I2C_EV_IRQHandler+0x834>
 8002946:	691b      	ldr	r3, [r3, #16]
 8002948:	700b      	strb	r3, [r1, #0]
 800294a:	e704      	b.n	8002756 <HAL_I2C_EV_IRQHandler+0x296>
 800294c:	f894 203d 	ldrb.w	r2, [r4, #61]	; 0x3d
 8002950:	2a21      	cmp	r2, #33	; 0x21
 8002952:	6c62      	ldr	r2, [r4, #68]	; 0x44
 8002954:	bf16      	itet	ne
 8002956:	f042 0201 	orrne.w	r2, r2, #1
 800295a:	f002 02fe 	andeq.w	r2, r2, #254	; 0xfe
 800295e:	b2d2      	uxtbne	r2, r2
 8002960:	611a      	str	r2, [r3, #16]
 8002962:	6b62      	ldr	r2, [r4, #52]	; 0x34
 8002964:	2a00      	cmp	r2, #0
 8002966:	f000 80ee 	beq.w	8002b46 <HAL_I2C_EV_IRQHandler+0x686>
 800296a:	6bd2      	ldr	r2, [r2, #60]	; 0x3c
 800296c:	b172      	cbz	r2, 800298c <HAL_I2C_EV_IRQHandler+0x4cc>
 800296e:	685a      	ldr	r2, [r3, #4]
 8002970:	f442 6200 	orr.w	r2, r2, #2048	; 0x800
 8002974:	605a      	str	r2, [r3, #4]
 8002976:	e5d1      	b.n	800251c <HAL_I2C_EV_IRQHandler+0x5c>
 8002978:	6c62      	ldr	r2, [r4, #68]	; 0x44
 800297a:	6b61      	ldr	r1, [r4, #52]	; 0x34
 800297c:	b2d2      	uxtb	r2, r2
 800297e:	611a      	str	r2, [r3, #16]
 8002980:	2900      	cmp	r1, #0
 8002982:	f000 8088 	beq.w	8002a96 <HAL_I2C_EV_IRQHandler+0x5d6>
 8002986:	6bca      	ldr	r2, [r1, #60]	; 0x3c
 8002988:	2a00      	cmp	r2, #0
 800298a:	d1f0      	bne.n	800296e <HAL_I2C_EV_IRQHandler+0x4ae>
 800298c:	6ba2      	ldr	r2, [r4, #56]	; 0x38
 800298e:	6bd2      	ldr	r2, [r2, #60]	; 0x3c
 8002990:	2a00      	cmp	r2, #0
 8002992:	d1ec      	bne.n	800296e <HAL_I2C_EV_IRQHandler+0x4ae>
 8002994:	e5c2      	b.n	800251c <HAL_I2C_EV_IRQHandler+0x5c>
 8002996:	685a      	ldr	r2, [r3, #4]
 8002998:	f422 6280 	bic.w	r2, r2, #1024	; 0x400
 800299c:	605a      	str	r2, [r3, #4]
 800299e:	ea6f 0196 	mvn.w	r1, r6, lsr #2
 80029a2:	0633      	lsls	r3, r6, #24
 80029a4:	f04f 0300 	mov.w	r3, #0
 80029a8:	f001 0101 	and.w	r1, r1, #1
 80029ac:	bf54      	ite	pl
 80029ae:	89a2      	ldrhpl	r2, [r4, #12]
 80029b0:	8b22      	ldrhmi	r2, [r4, #24]
 80029b2:	f884 303c 	strb.w	r3, [r4, #60]	; 0x3c
 80029b6:	4620      	mov	r0, r4
 80029b8:	f7ff fc94 	bl	80022e4 <HAL_I2C_AddrCallback>
 80029bc:	e5ae      	b.n	800251c <HAL_I2C_EV_IRQHandler+0x5c>
 80029be:	2201      	movs	r2, #1
 80029c0:	62e2      	str	r2, [r4, #44]	; 0x2c
 80029c2:	e608      	b.n	80025d6 <HAL_I2C_EV_IRQHandler+0x116>
 80029c4:	6d22      	ldr	r2, [r4, #80]	; 0x50
 80029c6:	b962      	cbnz	r2, 80029e2 <HAL_I2C_EV_IRQHandler+0x522>
 80029c8:	6c62      	ldr	r2, [r4, #68]	; 0x44
 80029ca:	f002 02fe 	and.w	r2, r2, #254	; 0xfe
 80029ce:	611a      	str	r2, [r3, #16]
 80029d0:	e5a4      	b.n	800251c <HAL_I2C_EV_IRQHandler+0x5c>
 80029d2:	6c62      	ldr	r2, [r4, #68]	; 0x44
 80029d4:	11d2      	asrs	r2, r2, #7
 80029d6:	f002 0206 	and.w	r2, r2, #6
 80029da:	f042 02f0 	orr.w	r2, r2, #240	; 0xf0
 80029de:	611a      	str	r2, [r3, #16]
 80029e0:	e59c      	b.n	800251c <HAL_I2C_EV_IRQHandler+0x5c>
 80029e2:	6c62      	ldr	r2, [r4, #68]	; 0x44
 80029e4:	f042 0201 	orr.w	r2, r2, #1
 80029e8:	b2d2      	uxtb	r2, r2
 80029ea:	611a      	str	r2, [r3, #16]
 80029ec:	e596      	b.n	800251c <HAL_I2C_EV_IRQHandler+0x5c>
 80029ee:	f894 203d 	ldrb.w	r2, [r4, #61]	; 0x3d
 80029f2:	f894 103e 	ldrb.w	r1, [r4, #62]	; 0x3e
 80029f6:	6823      	ldr	r3, [r4, #0]
 80029f8:	2910      	cmp	r1, #16
 80029fa:	b2d2      	uxtb	r2, r2
 80029fc:	f000 80c2 	beq.w	8002b84 <HAL_I2C_EV_IRQHandler+0x6c4>
 8002a00:	f002 0128 	and.w	r1, r2, #40	; 0x28
 8002a04:	2928      	cmp	r1, #40	; 0x28
 8002a06:	f000 80b8 	beq.w	8002b7a <HAL_I2C_EV_IRQHandler+0x6ba>
 8002a0a:	6859      	ldr	r1, [r3, #4]
 8002a0c:	0509      	lsls	r1, r1, #20
 8002a0e:	d404      	bmi.n	8002a1a <HAL_I2C_EV_IRQHandler+0x55a>
 8002a10:	2a60      	cmp	r2, #96	; 0x60
 8002a12:	d002      	beq.n	8002a1a <HAL_I2C_EV_IRQHandler+0x55a>
 8002a14:	2220      	movs	r2, #32
 8002a16:	f884 203d 	strb.w	r2, [r4, #61]	; 0x3d
 8002a1a:	2200      	movs	r2, #0
 8002a1c:	6322      	str	r2, [r4, #48]	; 0x30
 8002a1e:	f884 203e 	strb.w	r2, [r4, #62]	; 0x3e
 8002a22:	685a      	ldr	r2, [r3, #4]
 8002a24:	f412 6200 	ands.w	r2, r2, #2048	; 0x800
 8002a28:	d07c      	beq.n	8002b24 <HAL_I2C_EV_IRQHandler+0x664>
 8002a2a:	685a      	ldr	r2, [r3, #4]
 8002a2c:	6b60      	ldr	r0, [r4, #52]	; 0x34
 8002a2e:	f422 6200 	bic.w	r2, r2, #2048	; 0x800
 8002a32:	605a      	str	r2, [r3, #4]
 8002a34:	f890 3035 	ldrb.w	r3, [r0, #53]	; 0x35
 8002a38:	2b01      	cmp	r3, #1
 8002a3a:	f000 8103 	beq.w	8002c44 <HAL_I2C_EV_IRQHandler+0x784>
 8002a3e:	4b18      	ldr	r3, [pc, #96]	; (8002aa0 <HAL_I2C_EV_IRQHandler+0x5e0>)
 8002a40:	6503      	str	r3, [r0, #80]	; 0x50
 8002a42:	f7fe fc2f 	bl	80012a4 <HAL_DMA_Abort_IT>
 8002a46:	b150      	cbz	r0, 8002a5e <HAL_I2C_EV_IRQHandler+0x59e>
 8002a48:	6822      	ldr	r2, [r4, #0]
 8002a4a:	6b60      	ldr	r0, [r4, #52]	; 0x34
 8002a4c:	6813      	ldr	r3, [r2, #0]
 8002a4e:	6d01      	ldr	r1, [r0, #80]	; 0x50
 8002a50:	f023 0301 	bic.w	r3, r3, #1
 8002a54:	2520      	movs	r5, #32
 8002a56:	6013      	str	r3, [r2, #0]
 8002a58:	f884 503d 	strb.w	r5, [r4, #61]	; 0x3d
 8002a5c:	4788      	blx	r1
 8002a5e:	f894 303d 	ldrb.w	r3, [r4, #61]	; 0x3d
 8002a62:	6c22      	ldr	r2, [r4, #64]	; 0x40
 8002a64:	0751      	lsls	r1, r2, #29
 8002a66:	b2db      	uxtb	r3, r3
 8002a68:	f57f ad58 	bpl.w	800251c <HAL_I2C_EV_IRQHandler+0x5c>
 8002a6c:	2b28      	cmp	r3, #40	; 0x28
 8002a6e:	f47f ad55 	bne.w	800251c <HAL_I2C_EV_IRQHandler+0x5c>
 8002a72:	6821      	ldr	r1, [r4, #0]
 8002a74:	4e0b      	ldr	r6, [pc, #44]	; (8002aa4 <HAL_I2C_EV_IRQHandler+0x5e4>)
 8002a76:	684b      	ldr	r3, [r1, #4]
 8002a78:	2200      	movs	r2, #0
 8002a7a:	f423 63e0 	bic.w	r3, r3, #1792	; 0x700
 8002a7e:	2520      	movs	r5, #32
 8002a80:	604b      	str	r3, [r1, #4]
 8002a82:	4620      	mov	r0, r4
 8002a84:	62e6      	str	r6, [r4, #44]	; 0x2c
 8002a86:	6322      	str	r2, [r4, #48]	; 0x30
 8002a88:	f884 503d 	strb.w	r5, [r4, #61]	; 0x3d
 8002a8c:	f884 203e 	strb.w	r2, [r4, #62]	; 0x3e
 8002a90:	f7ff fc2a 	bl	80022e8 <HAL_I2C_ListenCpltCallback>
 8002a94:	e542      	b.n	800251c <HAL_I2C_EV_IRQHandler+0x5c>
 8002a96:	6ba2      	ldr	r2, [r4, #56]	; 0x38
 8002a98:	2a00      	cmp	r2, #0
 8002a9a:	f47f af74 	bne.w	8002986 <HAL_I2C_EV_IRQHandler+0x4c6>
 8002a9e:	e53d      	b.n	800251c <HAL_I2C_EV_IRQHandler+0x5c>
 8002aa0:	08002445 	.word	0x08002445
 8002aa4:	ffff0000 	.word	0xffff0000
 8002aa8:	6ba0      	ldr	r0, [r4, #56]	; 0x38
 8002aaa:	6802      	ldr	r2, [r0, #0]
 8002aac:	6852      	ldr	r2, [r2, #4]
 8002aae:	b292      	uxth	r2, r2
 8002ab0:	8562      	strh	r2, [r4, #42]	; 0x2a
 8002ab2:	8d62      	ldrh	r2, [r4, #42]	; 0x2a
 8002ab4:	b292      	uxth	r2, r2
 8002ab6:	b11a      	cbz	r2, 8002ac0 <HAL_I2C_EV_IRQHandler+0x600>
 8002ab8:	6c22      	ldr	r2, [r4, #64]	; 0x40
 8002aba:	f042 0204 	orr.w	r2, r2, #4
 8002abe:	6422      	str	r2, [r4, #64]	; 0x40
 8002ac0:	685a      	ldr	r2, [r3, #4]
 8002ac2:	f422 6200 	bic.w	r2, r2, #2048	; 0x800
 8002ac6:	605a      	str	r2, [r3, #4]
 8002ac8:	f7fe fcd4 	bl	8001474 <HAL_DMA_GetState>
 8002acc:	2801      	cmp	r0, #1
 8002ace:	f43f aeaf 	beq.w	8002830 <HAL_I2C_EV_IRQHandler+0x370>
 8002ad2:	6ba0      	ldr	r0, [r4, #56]	; 0x38
 8002ad4:	4ba3      	ldr	r3, [pc, #652]	; (8002d64 <HAL_I2C_EV_IRQHandler+0x8a4>)
 8002ad6:	6503      	str	r3, [r0, #80]	; 0x50
 8002ad8:	f7fe fbe4 	bl	80012a4 <HAL_DMA_Abort_IT>
 8002adc:	2800      	cmp	r0, #0
 8002ade:	f43f aea7 	beq.w	8002830 <HAL_I2C_EV_IRQHandler+0x370>
 8002ae2:	6ba0      	ldr	r0, [r4, #56]	; 0x38
 8002ae4:	6d03      	ldr	r3, [r0, #80]	; 0x50
 8002ae6:	4798      	blx	r3
 8002ae8:	e6a2      	b.n	8002830 <HAL_I2C_EV_IRQHandler+0x370>
 8002aea:	6d21      	ldr	r1, [r4, #80]	; 0x50
 8002aec:	b911      	cbnz	r1, 8002af4 <HAL_I2C_EV_IRQHandler+0x634>
 8002aee:	2a40      	cmp	r2, #64	; 0x40
 8002af0:	f000 80ca 	beq.w	8002c88 <HAL_I2C_EV_IRQHandler+0x7c8>
 8002af4:	6d22      	ldr	r2, [r4, #80]	; 0x50
 8002af6:	b922      	cbnz	r2, 8002b02 <HAL_I2C_EV_IRQHandler+0x642>
 8002af8:	6921      	ldr	r1, [r4, #16]
 8002afa:	f5b1 4f40 	cmp.w	r1, #49152	; 0xc000
 8002afe:	f000 80ca 	beq.w	8002c96 <HAL_I2C_EV_IRQHandler+0x7d6>
 8002b02:	8d62      	ldrh	r2, [r4, #42]	; 0x2a
 8002b04:	b292      	uxth	r2, r2
 8002b06:	2a00      	cmp	r2, #0
 8002b08:	d148      	bne.n	8002b9c <HAL_I2C_EV_IRQHandler+0x6dc>
 8002b0a:	9203      	str	r2, [sp, #12]
 8002b0c:	695a      	ldr	r2, [r3, #20]
 8002b0e:	9203      	str	r2, [sp, #12]
 8002b10:	699a      	ldr	r2, [r3, #24]
 8002b12:	9203      	str	r2, [sp, #12]
 8002b14:	9a03      	ldr	r2, [sp, #12]
 8002b16:	681a      	ldr	r2, [r3, #0]
 8002b18:	f442 7200 	orr.w	r2, r2, #512	; 0x200
 8002b1c:	601a      	str	r2, [r3, #0]
 8002b1e:	2300      	movs	r3, #0
 8002b20:	6523      	str	r3, [r4, #80]	; 0x50
 8002b22:	e4fb      	b.n	800251c <HAL_I2C_EV_IRQHandler+0x5c>
 8002b24:	f894 103d 	ldrb.w	r1, [r4, #61]	; 0x3d
 8002b28:	2960      	cmp	r1, #96	; 0x60
 8002b2a:	d075      	beq.n	8002c18 <HAL_I2C_EV_IRQHandler+0x758>
 8002b2c:	695a      	ldr	r2, [r3, #20]
 8002b2e:	0650      	lsls	r0, r2, #25
 8002b30:	d505      	bpl.n	8002b3e <HAL_I2C_EV_IRQHandler+0x67e>
 8002b32:	6a62      	ldr	r2, [r4, #36]	; 0x24
 8002b34:	691b      	ldr	r3, [r3, #16]
 8002b36:	7013      	strb	r3, [r2, #0]
 8002b38:	6a63      	ldr	r3, [r4, #36]	; 0x24
 8002b3a:	3301      	adds	r3, #1
 8002b3c:	6263      	str	r3, [r4, #36]	; 0x24
 8002b3e:	4620      	mov	r0, r4
 8002b40:	f7ff fbd6 	bl	80022f0 <HAL_I2C_ErrorCallback>
 8002b44:	e78b      	b.n	8002a5e <HAL_I2C_EV_IRQHandler+0x59e>
 8002b46:	6ba1      	ldr	r1, [r4, #56]	; 0x38
 8002b48:	2900      	cmp	r1, #0
 8002b4a:	f47f af0e 	bne.w	800296a <HAL_I2C_EV_IRQHandler+0x4aa>
 8002b4e:	e4e5      	b.n	800251c <HAL_I2C_EV_IRQHandler+0x5c>
 8002b50:	2228      	movs	r2, #40	; 0x28
 8002b52:	6323      	str	r3, [r4, #48]	; 0x30
 8002b54:	4620      	mov	r0, r4
 8002b56:	f884 203d 	strb.w	r2, [r4, #61]	; 0x3d
 8002b5a:	f7ff fbc1 	bl	80022e0 <HAL_I2C_SlaveRxCpltCallback>
 8002b5e:	e694      	b.n	800288a <HAL_I2C_EV_IRQHandler+0x3ca>
 8002b60:	4b81      	ldr	r3, [pc, #516]	; (8002d68 <HAL_I2C_EV_IRQHandler+0x8a8>)
 8002b62:	62e3      	str	r3, [r4, #44]	; 0x2c
 8002b64:	2220      	movs	r2, #32
 8002b66:	2300      	movs	r3, #0
 8002b68:	6323      	str	r3, [r4, #48]	; 0x30
 8002b6a:	4620      	mov	r0, r4
 8002b6c:	f884 203d 	strb.w	r2, [r4, #61]	; 0x3d
 8002b70:	f884 303e 	strb.w	r3, [r4, #62]	; 0x3e
 8002b74:	f7ff fbb8 	bl	80022e8 <HAL_I2C_ListenCpltCallback>
 8002b78:	e4d0      	b.n	800251c <HAL_I2C_EV_IRQHandler+0x5c>
 8002b7a:	2200      	movs	r2, #0
 8002b7c:	6322      	str	r2, [r4, #48]	; 0x30
 8002b7e:	f884 103d 	strb.w	r1, [r4, #61]	; 0x3d
 8002b82:	e74e      	b.n	8002a22 <HAL_I2C_EV_IRQHandler+0x562>
 8002b84:	2a22      	cmp	r2, #34	; 0x22
 8002b86:	f47f af3b 	bne.w	8002a00 <HAL_I2C_EV_IRQHandler+0x540>
 8002b8a:	681a      	ldr	r2, [r3, #0]
 8002b8c:	f422 6200 	bic.w	r2, r2, #2048	; 0x800
 8002b90:	601a      	str	r2, [r3, #0]
 8002b92:	685a      	ldr	r2, [r3, #4]
 8002b94:	0510      	lsls	r0, r2, #20
 8002b96:	f57f af3d 	bpl.w	8002a14 <HAL_I2C_EV_IRQHandler+0x554>
 8002b9a:	e73e      	b.n	8002a1a <HAL_I2C_EV_IRQHandler+0x55a>
 8002b9c:	8d62      	ldrh	r2, [r4, #42]	; 0x2a
 8002b9e:	b292      	uxth	r2, r2
 8002ba0:	2a01      	cmp	r2, #1
 8002ba2:	f000 8086 	beq.w	8002cb2 <HAL_I2C_EV_IRQHandler+0x7f2>
 8002ba6:	8d62      	ldrh	r2, [r4, #42]	; 0x2a
 8002ba8:	b292      	uxth	r2, r2
 8002baa:	2a02      	cmp	r2, #2
 8002bac:	f000 8130 	beq.w	8002e10 <HAL_I2C_EV_IRQHandler+0x950>
 8002bb0:	681a      	ldr	r2, [r3, #0]
 8002bb2:	f442 6280 	orr.w	r2, r2, #1024	; 0x400
 8002bb6:	601a      	str	r2, [r3, #0]
 8002bb8:	685a      	ldr	r2, [r3, #4]
 8002bba:	0515      	lsls	r5, r2, #20
 8002bbc:	d50e      	bpl.n	8002bdc <HAL_I2C_EV_IRQHandler+0x71c>
 8002bbe:	f510 3f80 	cmn.w	r0, #65536	; 0x10000
 8002bc2:	d007      	beq.n	8002bd4 <HAL_I2C_EV_IRQHandler+0x714>
 8002bc4:	3801      	subs	r0, #1
 8002bc6:	281f      	cmp	r0, #31
 8002bc8:	d808      	bhi.n	8002bdc <HAL_I2C_EV_IRQHandler+0x71c>
 8002bca:	4a68      	ldr	r2, [pc, #416]	; (8002d6c <HAL_I2C_EV_IRQHandler+0x8ac>)
 8002bcc:	fa22 f000 	lsr.w	r0, r2, r0
 8002bd0:	07c0      	lsls	r0, r0, #31
 8002bd2:	d503      	bpl.n	8002bdc <HAL_I2C_EV_IRQHandler+0x71c>
 8002bd4:	685a      	ldr	r2, [r3, #4]
 8002bd6:	f442 5280 	orr.w	r2, r2, #4096	; 0x1000
 8002bda:	605a      	str	r2, [r3, #4]
 8002bdc:	2200      	movs	r2, #0
 8002bde:	9209      	str	r2, [sp, #36]	; 0x24
 8002be0:	695a      	ldr	r2, [r3, #20]
 8002be2:	9209      	str	r2, [sp, #36]	; 0x24
 8002be4:	699b      	ldr	r3, [r3, #24]
 8002be6:	9309      	str	r3, [sp, #36]	; 0x24
 8002be8:	9b09      	ldr	r3, [sp, #36]	; 0x24
 8002bea:	e798      	b.n	8002b1e <HAL_I2C_EV_IRQHandler+0x65e>
 8002bec:	685a      	ldr	r2, [r3, #4]
 8002bee:	f422 6280 	bic.w	r2, r2, #1024	; 0x400
 8002bf2:	605a      	str	r2, [r3, #4]
 8002bf4:	691b      	ldr	r3, [r3, #16]
 8002bf6:	700b      	strb	r3, [r1, #0]
 8002bf8:	e5ad      	b.n	8002756 <HAL_I2C_EV_IRQHandler+0x296>
 8002bfa:	685a      	ldr	r2, [r3, #4]
 8002bfc:	2804      	cmp	r0, #4
 8002bfe:	f422 6280 	bic.w	r2, r2, #1024	; 0x400
 8002c02:	605a      	str	r2, [r3, #4]
 8002c04:	f43f ae9f 	beq.w	8002946 <HAL_I2C_EV_IRQHandler+0x486>
 8002c08:	2802      	cmp	r0, #2
 8002c0a:	f43f ae9c 	beq.w	8002946 <HAL_I2C_EV_IRQHandler+0x486>
 8002c0e:	681a      	ldr	r2, [r3, #0]
 8002c10:	f422 6280 	bic.w	r2, r2, #1024	; 0x400
 8002c14:	601a      	str	r2, [r3, #0]
 8002c16:	e696      	b.n	8002946 <HAL_I2C_EV_IRQHandler+0x486>
 8002c18:	2120      	movs	r1, #32
 8002c1a:	f884 103d 	strb.w	r1, [r4, #61]	; 0x3d
 8002c1e:	6422      	str	r2, [r4, #64]	; 0x40
 8002c20:	695a      	ldr	r2, [r3, #20]
 8002c22:	0655      	lsls	r5, r2, #25
 8002c24:	d506      	bpl.n	8002c34 <HAL_I2C_EV_IRQHandler+0x774>
 8002c26:	6a62      	ldr	r2, [r4, #36]	; 0x24
 8002c28:	691b      	ldr	r3, [r3, #16]
 8002c2a:	7013      	strb	r3, [r2, #0]
 8002c2c:	6a62      	ldr	r2, [r4, #36]	; 0x24
 8002c2e:	6823      	ldr	r3, [r4, #0]
 8002c30:	3201      	adds	r2, #1
 8002c32:	6262      	str	r2, [r4, #36]	; 0x24
 8002c34:	681a      	ldr	r2, [r3, #0]
 8002c36:	f022 0201 	bic.w	r2, r2, #1
 8002c3a:	601a      	str	r2, [r3, #0]
 8002c3c:	4620      	mov	r0, r4
 8002c3e:	f7ff fbff 	bl	8002440 <HAL_I2C_AbortCpltCallback>
 8002c42:	e70c      	b.n	8002a5e <HAL_I2C_EV_IRQHandler+0x59e>
 8002c44:	6ba0      	ldr	r0, [r4, #56]	; 0x38
 8002c46:	4b47      	ldr	r3, [pc, #284]	; (8002d64 <HAL_I2C_EV_IRQHandler+0x8a4>)
 8002c48:	6503      	str	r3, [r0, #80]	; 0x50
 8002c4a:	f7fe fb2b 	bl	80012a4 <HAL_DMA_Abort_IT>
 8002c4e:	2800      	cmp	r0, #0
 8002c50:	f43f af05 	beq.w	8002a5e <HAL_I2C_EV_IRQHandler+0x59e>
 8002c54:	6823      	ldr	r3, [r4, #0]
 8002c56:	695a      	ldr	r2, [r3, #20]
 8002c58:	0656      	lsls	r6, r2, #25
 8002c5a:	d506      	bpl.n	8002c6a <HAL_I2C_EV_IRQHandler+0x7aa>
 8002c5c:	6a62      	ldr	r2, [r4, #36]	; 0x24
 8002c5e:	691b      	ldr	r3, [r3, #16]
 8002c60:	7013      	strb	r3, [r2, #0]
 8002c62:	6a62      	ldr	r2, [r4, #36]	; 0x24
 8002c64:	6823      	ldr	r3, [r4, #0]
 8002c66:	3201      	adds	r2, #1
 8002c68:	6262      	str	r2, [r4, #36]	; 0x24
 8002c6a:	681a      	ldr	r2, [r3, #0]
 8002c6c:	6ba0      	ldr	r0, [r4, #56]	; 0x38
 8002c6e:	f022 0201 	bic.w	r2, r2, #1
 8002c72:	2120      	movs	r1, #32
 8002c74:	601a      	str	r2, [r3, #0]
 8002c76:	6d03      	ldr	r3, [r0, #80]	; 0x50
 8002c78:	f884 103d 	strb.w	r1, [r4, #61]	; 0x3d
 8002c7c:	4798      	blx	r3
 8002c7e:	e6ee      	b.n	8002a5e <HAL_I2C_EV_IRQHandler+0x59e>
 8002c80:	2a21      	cmp	r2, #33	; 0x21
 8002c82:	f43f ac81 	beq.w	8002588 <HAL_I2C_EV_IRQHandler+0xc8>
 8002c86:	e47b      	b.n	8002580 <HAL_I2C_EV_IRQHandler+0xc0>
 8002c88:	9101      	str	r1, [sp, #4]
 8002c8a:	695a      	ldr	r2, [r3, #20]
 8002c8c:	9201      	str	r2, [sp, #4]
 8002c8e:	699b      	ldr	r3, [r3, #24]
 8002c90:	9301      	str	r3, [sp, #4]
 8002c92:	9b01      	ldr	r3, [sp, #4]
 8002c94:	e442      	b.n	800251c <HAL_I2C_EV_IRQHandler+0x5c>
 8002c96:	9202      	str	r2, [sp, #8]
 8002c98:	695a      	ldr	r2, [r3, #20]
 8002c9a:	9202      	str	r2, [sp, #8]
 8002c9c:	699a      	ldr	r2, [r3, #24]
 8002c9e:	9202      	str	r2, [sp, #8]
 8002ca0:	9a02      	ldr	r2, [sp, #8]
 8002ca2:	681a      	ldr	r2, [r3, #0]
 8002ca4:	f442 7280 	orr.w	r2, r2, #256	; 0x100
 8002ca8:	601a      	str	r2, [r3, #0]
 8002caa:	6d23      	ldr	r3, [r4, #80]	; 0x50
 8002cac:	3301      	adds	r3, #1
 8002cae:	6523      	str	r3, [r4, #80]	; 0x50
 8002cb0:	e434      	b.n	800251c <HAL_I2C_EV_IRQHandler+0x5c>
 8002cb2:	f510 3f80 	cmn.w	r0, #65536	; 0x10000
 8002cb6:	f000 80ee 	beq.w	8002e96 <HAL_I2C_EV_IRQHandler+0x9d6>
 8002cba:	2808      	cmp	r0, #8
 8002cbc:	f000 80db 	beq.w	8002e76 <HAL_I2C_EV_IRQHandler+0x9b6>
 8002cc0:	2820      	cmp	r0, #32
 8002cc2:	f000 80d8 	beq.w	8002e76 <HAL_I2C_EV_IRQHandler+0x9b6>
 8002cc6:	2d12      	cmp	r5, #18
 8002cc8:	f000 80d2 	beq.w	8002e70 <HAL_I2C_EV_IRQHandler+0x9b0>
 8002ccc:	2810      	cmp	r0, #16
 8002cce:	d805      	bhi.n	8002cdc <HAL_I2C_EV_IRQHandler+0x81c>
 8002cd0:	4a27      	ldr	r2, [pc, #156]	; (8002d70 <HAL_I2C_EV_IRQHandler+0x8b0>)
 8002cd2:	fa22 f000 	lsr.w	r0, r2, r0
 8002cd6:	07c0      	lsls	r0, r0, #31
 8002cd8:	f100 810d 	bmi.w	8002ef6 <HAL_I2C_EV_IRQHandler+0xa36>
 8002cdc:	681a      	ldr	r2, [r3, #0]
 8002cde:	f422 6280 	bic.w	r2, r2, #1024	; 0x400
 8002ce2:	601a      	str	r2, [r3, #0]
 8002ce4:	2200      	movs	r2, #0
 8002ce6:	9206      	str	r2, [sp, #24]
 8002ce8:	695a      	ldr	r2, [r3, #20]
 8002cea:	9206      	str	r2, [sp, #24]
 8002cec:	699b      	ldr	r3, [r3, #24]
 8002cee:	9306      	str	r3, [sp, #24]
 8002cf0:	9b06      	ldr	r3, [sp, #24]
 8002cf2:	e714      	b.n	8002b1e <HAL_I2C_EV_IRQHandler+0x65e>
 8002cf4:	2801      	cmp	r0, #1
 8002cf6:	681a      	ldr	r2, [r3, #0]
 8002cf8:	d065      	beq.n	8002dc6 <HAL_I2C_EV_IRQHandler+0x906>
 8002cfa:	2810      	cmp	r0, #16
 8002cfc:	d063      	beq.n	8002dc6 <HAL_I2C_EV_IRQHandler+0x906>
 8002cfe:	2804      	cmp	r0, #4
 8002d00:	f000 80ea 	beq.w	8002ed8 <HAL_I2C_EV_IRQHandler+0xa18>
 8002d04:	2802      	cmp	r0, #2
 8002d06:	f000 80e7 	beq.w	8002ed8 <HAL_I2C_EV_IRQHandler+0xa18>
 8002d0a:	f442 7200 	orr.w	r2, r2, #512	; 0x200
 8002d0e:	601a      	str	r2, [r3, #0]
 8002d10:	691b      	ldr	r3, [r3, #16]
 8002d12:	700b      	strb	r3, [r1, #0]
 8002d14:	8d63      	ldrh	r3, [r4, #42]	; 0x2a
 8002d16:	6a62      	ldr	r2, [r4, #36]	; 0x24
 8002d18:	6821      	ldr	r1, [r4, #0]
 8002d1a:	3b01      	subs	r3, #1
 8002d1c:	b29b      	uxth	r3, r3
 8002d1e:	8563      	strh	r3, [r4, #42]	; 0x2a
 8002d20:	690b      	ldr	r3, [r1, #16]
 8002d22:	1c51      	adds	r1, r2, #1
 8002d24:	6261      	str	r1, [r4, #36]	; 0x24
 8002d26:	7053      	strb	r3, [r2, #1]
 8002d28:	8d63      	ldrh	r3, [r4, #42]	; 0x2a
 8002d2a:	6821      	ldr	r1, [r4, #0]
 8002d2c:	6a62      	ldr	r2, [r4, #36]	; 0x24
 8002d2e:	3b01      	subs	r3, #1
 8002d30:	b29b      	uxth	r3, r3
 8002d32:	8563      	strh	r3, [r4, #42]	; 0x2a
 8002d34:	684b      	ldr	r3, [r1, #4]
 8002d36:	3201      	adds	r2, #1
 8002d38:	f423 7340 	bic.w	r3, r3, #768	; 0x300
 8002d3c:	2020      	movs	r0, #32
 8002d3e:	6262      	str	r2, [r4, #36]	; 0x24
 8002d40:	604b      	str	r3, [r1, #4]
 8002d42:	f884 003d 	strb.w	r0, [r4, #61]	; 0x3d
 8002d46:	f894 303e 	ldrb.w	r3, [r4, #62]	; 0x3e
 8002d4a:	2b40      	cmp	r3, #64	; 0x40
 8002d4c:	d032      	beq.n	8002db4 <HAL_I2C_EV_IRQHandler+0x8f4>
 8002d4e:	2200      	movs	r2, #0
 8002d50:	2312      	movs	r3, #18
 8002d52:	f884 203e 	strb.w	r2, [r4, #62]	; 0x3e
 8002d56:	4620      	mov	r0, r4
 8002d58:	6323      	str	r3, [r4, #48]	; 0x30
 8002d5a:	f7ff fabd 	bl	80022d8 <HAL_I2C_MasterRxCpltCallback>
 8002d5e:	f7ff bbdd 	b.w	800251c <HAL_I2C_EV_IRQHandler+0x5c>
 8002d62:	bf00      	nop
 8002d64:	08002445 	.word	0x08002445
 8002d68:	ffff0000 	.word	0xffff0000
 8002d6c:	80008081 	.word	0x80008081
 8002d70:	00010014 	.word	0x00010014
 8002d74:	6ae1      	ldr	r1, [r4, #44]	; 0x2c
 8002d76:	2902      	cmp	r1, #2
 8002d78:	f43f abd0 	beq.w	800251c <HAL_I2C_EV_IRQHandler+0x5c>
 8002d7c:	2a01      	cmp	r2, #1
 8002d7e:	f63f abcd 	bhi.w	800251c <HAL_I2C_EV_IRQHandler+0x5c>
 8002d82:	681a      	ldr	r2, [r3, #0]
 8002d84:	6a61      	ldr	r1, [r4, #36]	; 0x24
 8002d86:	f422 6280 	bic.w	r2, r2, #1024	; 0x400
 8002d8a:	601a      	str	r2, [r3, #0]
 8002d8c:	685a      	ldr	r2, [r3, #4]
 8002d8e:	f422 62e0 	bic.w	r2, r2, #1792	; 0x700
 8002d92:	605a      	str	r2, [r3, #4]
 8002d94:	691b      	ldr	r3, [r3, #16]
 8002d96:	700b      	strb	r3, [r1, #0]
 8002d98:	8d63      	ldrh	r3, [r4, #42]	; 0x2a
 8002d9a:	6a62      	ldr	r2, [r4, #36]	; 0x24
 8002d9c:	3b01      	subs	r3, #1
 8002d9e:	b29b      	uxth	r3, r3
 8002da0:	2120      	movs	r1, #32
 8002da2:	8563      	strh	r3, [r4, #42]	; 0x2a
 8002da4:	f884 103d 	strb.w	r1, [r4, #61]	; 0x3d
 8002da8:	f894 303e 	ldrb.w	r3, [r4, #62]	; 0x3e
 8002dac:	3201      	adds	r2, #1
 8002dae:	2b40      	cmp	r3, #64	; 0x40
 8002db0:	6262      	str	r2, [r4, #36]	; 0x24
 8002db2:	d1cc      	bne.n	8002d4e <HAL_I2C_EV_IRQHandler+0x88e>
 8002db4:	2300      	movs	r3, #0
 8002db6:	f884 303e 	strb.w	r3, [r4, #62]	; 0x3e
 8002dba:	4620      	mov	r0, r4
 8002dbc:	6323      	str	r3, [r4, #48]	; 0x30
 8002dbe:	f001 fb07 	bl	80043d0 <HAL_I2C_MemRxCpltCallback>
 8002dc2:	f7ff bbab 	b.w	800251c <HAL_I2C_EV_IRQHandler+0x5c>
 8002dc6:	f422 6280 	bic.w	r2, r2, #1024	; 0x400
 8002dca:	601a      	str	r2, [r3, #0]
 8002dcc:	e7a0      	b.n	8002d10 <HAL_I2C_EV_IRQHandler+0x850>
 8002dce:	2d08      	cmp	r5, #8
 8002dd0:	f43f ad8a 	beq.w	80028e8 <HAL_I2C_EV_IRQHandler+0x428>
 8002dd4:	2d20      	cmp	r5, #32
 8002dd6:	f43f ad87 	beq.w	80028e8 <HAL_I2C_EV_IRQHandler+0x428>
 8002dda:	f515 3f80 	cmn.w	r5, #65536	; 0x10000
 8002dde:	f43f ad83 	beq.w	80028e8 <HAL_I2C_EV_IRQHandler+0x428>
 8002de2:	685a      	ldr	r2, [r3, #4]
 8002de4:	2611      	movs	r6, #17
 8002de6:	f422 62e0 	bic.w	r2, r2, #1792	; 0x700
 8002dea:	2500      	movs	r5, #0
 8002dec:	2120      	movs	r1, #32
 8002dee:	605a      	str	r2, [r3, #4]
 8002df0:	4620      	mov	r0, r4
 8002df2:	6326      	str	r6, [r4, #48]	; 0x30
 8002df4:	f884 503e 	strb.w	r5, [r4, #62]	; 0x3e
 8002df8:	f884 103d 	strb.w	r1, [r4, #61]	; 0x3d
 8002dfc:	f7ff fa6a 	bl	80022d4 <HAL_I2C_MasterTxCpltCallback>
 8002e00:	f7ff bb8c 	b.w	800251c <HAL_I2C_EV_IRQHandler+0x5c>
 8002e04:	685a      	ldr	r2, [r3, #4]
 8002e06:	f422 6280 	bic.w	r2, r2, #1024	; 0x400
 8002e0a:	605a      	str	r2, [r3, #4]
 8002e0c:	f7ff bb86 	b.w	800251c <HAL_I2C_EV_IRQHandler+0x5c>
 8002e10:	2810      	cmp	r0, #16
 8002e12:	d920      	bls.n	8002e56 <HAL_I2C_EV_IRQHandler+0x996>
 8002e14:	681a      	ldr	r2, [r3, #0]
 8002e16:	f422 6280 	bic.w	r2, r2, #1024	; 0x400
 8002e1a:	601a      	str	r2, [r3, #0]
 8002e1c:	681a      	ldr	r2, [r3, #0]
 8002e1e:	f442 6200 	orr.w	r2, r2, #2048	; 0x800
 8002e22:	601a      	str	r2, [r3, #0]
 8002e24:	685a      	ldr	r2, [r3, #4]
 8002e26:	0512      	lsls	r2, r2, #20
 8002e28:	d50d      	bpl.n	8002e46 <HAL_I2C_EV_IRQHandler+0x986>
 8002e2a:	f510 3f80 	cmn.w	r0, #65536	; 0x10000
 8002e2e:	d006      	beq.n	8002e3e <HAL_I2C_EV_IRQHandler+0x97e>
 8002e30:	3801      	subs	r0, #1
 8002e32:	281f      	cmp	r0, #31
 8002e34:	d807      	bhi.n	8002e46 <HAL_I2C_EV_IRQHandler+0x986>
 8002e36:	4a45      	ldr	r2, [pc, #276]	; (8002f4c <HAL_I2C_EV_IRQHandler+0xa8c>)
 8002e38:	40c2      	lsrs	r2, r0
 8002e3a:	07d6      	lsls	r6, r2, #31
 8002e3c:	d503      	bpl.n	8002e46 <HAL_I2C_EV_IRQHandler+0x986>
 8002e3e:	685a      	ldr	r2, [r3, #4]
 8002e40:	f442 5280 	orr.w	r2, r2, #4096	; 0x1000
 8002e44:	605a      	str	r2, [r3, #4]
 8002e46:	2200      	movs	r2, #0
 8002e48:	9208      	str	r2, [sp, #32]
 8002e4a:	695a      	ldr	r2, [r3, #20]
 8002e4c:	9208      	str	r2, [sp, #32]
 8002e4e:	699b      	ldr	r3, [r3, #24]
 8002e50:	9308      	str	r3, [sp, #32]
 8002e52:	9b08      	ldr	r3, [sp, #32]
 8002e54:	e663      	b.n	8002b1e <HAL_I2C_EV_IRQHandler+0x65e>
 8002e56:	4a3e      	ldr	r2, [pc, #248]	; (8002f50 <HAL_I2C_EV_IRQHandler+0xa90>)
 8002e58:	40c2      	lsrs	r2, r0
 8002e5a:	07d1      	lsls	r1, r2, #31
 8002e5c:	d5da      	bpl.n	8002e14 <HAL_I2C_EV_IRQHandler+0x954>
 8002e5e:	681a      	ldr	r2, [r3, #0]
 8002e60:	f442 6280 	orr.w	r2, r2, #1024	; 0x400
 8002e64:	601a      	str	r2, [r3, #0]
 8002e66:	e7dd      	b.n	8002e24 <HAL_I2C_EV_IRQHandler+0x964>
 8002e68:	f7ff fa40 	bl	80022ec <HAL_I2C_MemTxCpltCallback>
 8002e6c:	f7ff bb56 	b.w	800251c <HAL_I2C_EV_IRQHandler+0x5c>
 8002e70:	2801      	cmp	r0, #1
 8002e72:	f43f af33 	beq.w	8002cdc <HAL_I2C_EV_IRQHandler+0x81c>
 8002e76:	681a      	ldr	r2, [r3, #0]
 8002e78:	2100      	movs	r1, #0
 8002e7a:	f422 6280 	bic.w	r2, r2, #1024	; 0x400
 8002e7e:	601a      	str	r2, [r3, #0]
 8002e80:	9107      	str	r1, [sp, #28]
 8002e82:	695a      	ldr	r2, [r3, #20]
 8002e84:	9207      	str	r2, [sp, #28]
 8002e86:	699a      	ldr	r2, [r3, #24]
 8002e88:	9207      	str	r2, [sp, #28]
 8002e8a:	9a07      	ldr	r2, [sp, #28]
 8002e8c:	681a      	ldr	r2, [r3, #0]
 8002e8e:	f442 7200 	orr.w	r2, r2, #512	; 0x200
 8002e92:	601a      	str	r2, [r3, #0]
 8002e94:	e643      	b.n	8002b1e <HAL_I2C_EV_IRQHandler+0x65e>
 8002e96:	681a      	ldr	r2, [r3, #0]
 8002e98:	f422 6280 	bic.w	r2, r2, #1024	; 0x400
 8002e9c:	601a      	str	r2, [r3, #0]
 8002e9e:	685a      	ldr	r2, [r3, #4]
 8002ea0:	f412 6200 	ands.w	r2, r2, #2048	; 0x800
 8002ea4:	d01c      	beq.n	8002ee0 <HAL_I2C_EV_IRQHandler+0xa20>
 8002ea6:	681a      	ldr	r2, [r3, #0]
 8002ea8:	2100      	movs	r1, #0
 8002eaa:	f422 6280 	bic.w	r2, r2, #1024	; 0x400
 8002eae:	601a      	str	r2, [r3, #0]
 8002eb0:	9104      	str	r1, [sp, #16]
 8002eb2:	695a      	ldr	r2, [r3, #20]
 8002eb4:	9204      	str	r2, [sp, #16]
 8002eb6:	699b      	ldr	r3, [r3, #24]
 8002eb8:	9304      	str	r3, [sp, #16]
 8002eba:	9b04      	ldr	r3, [sp, #16]
 8002ebc:	e62f      	b.n	8002b1e <HAL_I2C_EV_IRQHandler+0x65e>
 8002ebe:	6859      	ldr	r1, [r3, #4]
 8002ec0:	2611      	movs	r6, #17
 8002ec2:	f421 61e0 	bic.w	r1, r1, #1792	; 0x700
 8002ec6:	2520      	movs	r5, #32
 8002ec8:	6059      	str	r1, [r3, #4]
 8002eca:	4620      	mov	r0, r4
 8002ecc:	6326      	str	r6, [r4, #48]	; 0x30
 8002ece:	f884 203e 	strb.w	r2, [r4, #62]	; 0x3e
 8002ed2:	f884 503d 	strb.w	r5, [r4, #61]	; 0x3d
 8002ed6:	e51c      	b.n	8002912 <HAL_I2C_EV_IRQHandler+0x452>
 8002ed8:	f442 6280 	orr.w	r2, r2, #1024	; 0x400
 8002edc:	601a      	str	r2, [r3, #0]
 8002ede:	e717      	b.n	8002d10 <HAL_I2C_EV_IRQHandler+0x850>
 8002ee0:	9205      	str	r2, [sp, #20]
 8002ee2:	695a      	ldr	r2, [r3, #20]
 8002ee4:	9205      	str	r2, [sp, #20]
 8002ee6:	699a      	ldr	r2, [r3, #24]
 8002ee8:	9205      	str	r2, [sp, #20]
 8002eea:	9a05      	ldr	r2, [sp, #20]
 8002eec:	681a      	ldr	r2, [r3, #0]
 8002eee:	f442 7200 	orr.w	r2, r2, #512	; 0x200
 8002ef2:	601a      	str	r2, [r3, #0]
 8002ef4:	e613      	b.n	8002b1e <HAL_I2C_EV_IRQHandler+0x65e>
 8002ef6:	681a      	ldr	r2, [r3, #0]
 8002ef8:	f442 6280 	orr.w	r2, r2, #1024	; 0x400
 8002efc:	601a      	str	r2, [r3, #0]
 8002efe:	e6f1      	b.n	8002ce4 <HAL_I2C_EV_IRQHandler+0x824>
 8002f00:	6d22      	ldr	r2, [r4, #80]	; 0x50
 8002f02:	2a01      	cmp	r2, #1
 8002f04:	d01a      	beq.n	8002f3c <HAL_I2C_EV_IRQHandler+0xa7c>
 8002f06:	6d22      	ldr	r2, [r4, #80]	; 0x50
 8002f08:	2a02      	cmp	r2, #2
 8002f0a:	f47f ab07 	bne.w	800251c <HAL_I2C_EV_IRQHandler+0x5c>
 8002f0e:	f894 203d 	ldrb.w	r2, [r4, #61]	; 0x3d
 8002f12:	2a22      	cmp	r2, #34	; 0x22
 8002f14:	d00c      	beq.n	8002f30 <HAL_I2C_EV_IRQHandler+0xa70>
 8002f16:	f894 203d 	ldrb.w	r2, [r4, #61]	; 0x3d
 8002f1a:	2a21      	cmp	r2, #33	; 0x21
 8002f1c:	f47f aafe 	bne.w	800251c <HAL_I2C_EV_IRQHandler+0x5c>
 8002f20:	e401      	b.n	8002726 <HAL_I2C_EV_IRQHandler+0x266>
 8002f22:	b2d2      	uxtb	r2, r2
 8002f24:	611a      	str	r2, [r3, #16]
 8002f26:	6d23      	ldr	r3, [r4, #80]	; 0x50
 8002f28:	3302      	adds	r3, #2
 8002f2a:	6523      	str	r3, [r4, #80]	; 0x50
 8002f2c:	f7ff baf6 	b.w	800251c <HAL_I2C_EV_IRQHandler+0x5c>
 8002f30:	681a      	ldr	r2, [r3, #0]
 8002f32:	f442 7280 	orr.w	r2, r2, #256	; 0x100
 8002f36:	601a      	str	r2, [r3, #0]
 8002f38:	f7ff baf0 	b.w	800251c <HAL_I2C_EV_IRQHandler+0x5c>
 8002f3c:	6ca2      	ldr	r2, [r4, #72]	; 0x48
 8002f3e:	b2d2      	uxtb	r2, r2
 8002f40:	611a      	str	r2, [r3, #16]
 8002f42:	6d23      	ldr	r3, [r4, #80]	; 0x50
 8002f44:	3301      	adds	r3, #1
 8002f46:	6523      	str	r3, [r4, #80]	; 0x50
 8002f48:	f7ff bae8 	b.w	800251c <HAL_I2C_EV_IRQHandler+0x5c>
 8002f4c:	80008081 	.word	0x80008081
 8002f50:	00010014 	.word	0x00010014

08002f54 <HAL_RCC_OscConfig>:
 8002f54:	2800      	cmp	r0, #0
 8002f56:	f000 8132 	beq.w	80031be <HAL_RCC_OscConfig+0x26a>
 8002f5a:	e92d 41f0 	stmdb	sp!, {r4, r5, r6, r7, r8, lr}
 8002f5e:	6803      	ldr	r3, [r0, #0]
 8002f60:	07dd      	lsls	r5, r3, #31
 8002f62:	b082      	sub	sp, #8
 8002f64:	4604      	mov	r4, r0
 8002f66:	d52f      	bpl.n	8002fc8 <HAL_RCC_OscConfig+0x74>
 8002f68:	49ac      	ldr	r1, [pc, #688]	; (800321c <HAL_RCC_OscConfig+0x2c8>)
 8002f6a:	688a      	ldr	r2, [r1, #8]
 8002f6c:	f002 020c 	and.w	r2, r2, #12
 8002f70:	2a04      	cmp	r2, #4
 8002f72:	f000 80ea 	beq.w	800314a <HAL_RCC_OscConfig+0x1f6>
 8002f76:	688a      	ldr	r2, [r1, #8]
 8002f78:	f002 020c 	and.w	r2, r2, #12
 8002f7c:	2a08      	cmp	r2, #8
 8002f7e:	f000 80e0 	beq.w	8003142 <HAL_RCC_OscConfig+0x1ee>
 8002f82:	6863      	ldr	r3, [r4, #4]
 8002f84:	f5b3 3f80 	cmp.w	r3, #65536	; 0x10000
 8002f88:	f000 80e9 	beq.w	800315e <HAL_RCC_OscConfig+0x20a>
 8002f8c:	f5b3 2fa0 	cmp.w	r3, #327680	; 0x50000
 8002f90:	f000 8154 	beq.w	800323c <HAL_RCC_OscConfig+0x2e8>
 8002f94:	4da1      	ldr	r5, [pc, #644]	; (800321c <HAL_RCC_OscConfig+0x2c8>)
 8002f96:	682a      	ldr	r2, [r5, #0]
 8002f98:	f422 3280 	bic.w	r2, r2, #65536	; 0x10000
 8002f9c:	602a      	str	r2, [r5, #0]
 8002f9e:	682a      	ldr	r2, [r5, #0]
 8002fa0:	f422 2280 	bic.w	r2, r2, #262144	; 0x40000
 8002fa4:	602a      	str	r2, [r5, #0]
 8002fa6:	2b00      	cmp	r3, #0
 8002fa8:	f040 80de 	bne.w	8003168 <HAL_RCC_OscConfig+0x214>
 8002fac:	f7fd ffba 	bl	8000f24 <HAL_GetTick>
 8002fb0:	4606      	mov	r6, r0
 8002fb2:	e005      	b.n	8002fc0 <HAL_RCC_OscConfig+0x6c>
 8002fb4:	f7fd ffb6 	bl	8000f24 <HAL_GetTick>
 8002fb8:	1b80      	subs	r0, r0, r6
 8002fba:	2864      	cmp	r0, #100	; 0x64
 8002fbc:	f200 80f2 	bhi.w	80031a4 <HAL_RCC_OscConfig+0x250>
 8002fc0:	682b      	ldr	r3, [r5, #0]
 8002fc2:	039b      	lsls	r3, r3, #14
 8002fc4:	d4f6      	bmi.n	8002fb4 <HAL_RCC_OscConfig+0x60>
 8002fc6:	6823      	ldr	r3, [r4, #0]
 8002fc8:	079f      	lsls	r7, r3, #30
 8002fca:	d475      	bmi.n	80030b8 <HAL_RCC_OscConfig+0x164>
 8002fcc:	071a      	lsls	r2, r3, #28
 8002fce:	d515      	bpl.n	8002ffc <HAL_RCC_OscConfig+0xa8>
 8002fd0:	6963      	ldr	r3, [r4, #20]
 8002fd2:	2b00      	cmp	r3, #0
 8002fd4:	f000 80a5 	beq.w	8003122 <HAL_RCC_OscConfig+0x1ce>
 8002fd8:	4b91      	ldr	r3, [pc, #580]	; (8003220 <HAL_RCC_OscConfig+0x2cc>)
 8002fda:	4d90      	ldr	r5, [pc, #576]	; (800321c <HAL_RCC_OscConfig+0x2c8>)
 8002fdc:	2201      	movs	r2, #1
 8002fde:	601a      	str	r2, [r3, #0]
 8002fe0:	f7fd ffa0 	bl	8000f24 <HAL_GetTick>
 8002fe4:	4606      	mov	r6, r0
 8002fe6:	e005      	b.n	8002ff4 <HAL_RCC_OscConfig+0xa0>
 8002fe8:	f7fd ff9c 	bl	8000f24 <HAL_GetTick>
 8002fec:	1b80      	subs	r0, r0, r6
 8002fee:	2802      	cmp	r0, #2
 8002ff0:	f200 80d8 	bhi.w	80031a4 <HAL_RCC_OscConfig+0x250>
 8002ff4:	6f6b      	ldr	r3, [r5, #116]	; 0x74
 8002ff6:	079b      	lsls	r3, r3, #30
 8002ff8:	d5f6      	bpl.n	8002fe8 <HAL_RCC_OscConfig+0x94>
 8002ffa:	6823      	ldr	r3, [r4, #0]
 8002ffc:	0758      	lsls	r0, r3, #29
 8002ffe:	d53b      	bpl.n	8003078 <HAL_RCC_OscConfig+0x124>
 8003000:	4a86      	ldr	r2, [pc, #536]	; (800321c <HAL_RCC_OscConfig+0x2c8>)
 8003002:	6c13      	ldr	r3, [r2, #64]	; 0x40
 8003004:	f013 5380 	ands.w	r3, r3, #268435456	; 0x10000000
 8003008:	f040 80db 	bne.w	80031c2 <HAL_RCC_OscConfig+0x26e>
 800300c:	9301      	str	r3, [sp, #4]
 800300e:	6c13      	ldr	r3, [r2, #64]	; 0x40
 8003010:	f043 5380 	orr.w	r3, r3, #268435456	; 0x10000000
 8003014:	6413      	str	r3, [r2, #64]	; 0x40
 8003016:	6c13      	ldr	r3, [r2, #64]	; 0x40
 8003018:	f003 5380 	and.w	r3, r3, #268435456	; 0x10000000
 800301c:	9301      	str	r3, [sp, #4]
 800301e:	9b01      	ldr	r3, [sp, #4]
 8003020:	2601      	movs	r6, #1
 8003022:	4d80      	ldr	r5, [pc, #512]	; (8003224 <HAL_RCC_OscConfig+0x2d0>)
 8003024:	682a      	ldr	r2, [r5, #0]
 8003026:	05d1      	lsls	r1, r2, #23
 8003028:	f140 80ac 	bpl.w	8003184 <HAL_RCC_OscConfig+0x230>
 800302c:	68a3      	ldr	r3, [r4, #8]
 800302e:	2b01      	cmp	r3, #1
 8003030:	f000 80c9 	beq.w	80031c6 <HAL_RCC_OscConfig+0x272>
 8003034:	2b05      	cmp	r3, #5
 8003036:	f000 810b 	beq.w	8003250 <HAL_RCC_OscConfig+0x2fc>
 800303a:	4d78      	ldr	r5, [pc, #480]	; (800321c <HAL_RCC_OscConfig+0x2c8>)
 800303c:	6f2a      	ldr	r2, [r5, #112]	; 0x70
 800303e:	f022 0201 	bic.w	r2, r2, #1
 8003042:	672a      	str	r2, [r5, #112]	; 0x70
 8003044:	6f2a      	ldr	r2, [r5, #112]	; 0x70
 8003046:	f022 0204 	bic.w	r2, r2, #4
 800304a:	672a      	str	r2, [r5, #112]	; 0x70
 800304c:	2b00      	cmp	r3, #0
 800304e:	f040 80bf 	bne.w	80031d0 <HAL_RCC_OscConfig+0x27c>
 8003052:	f7fd ff67 	bl	8000f24 <HAL_GetTick>
 8003056:	f241 3788 	movw	r7, #5000	; 0x1388
 800305a:	4680      	mov	r8, r0
 800305c:	e006      	b.n	800306c <HAL_RCC_OscConfig+0x118>
 800305e:	f7fd ff61 	bl	8000f24 <HAL_GetTick>
 8003062:	eba0 0008 	sub.w	r0, r0, r8
 8003066:	42b8      	cmp	r0, r7
 8003068:	f200 809c 	bhi.w	80031a4 <HAL_RCC_OscConfig+0x250>
 800306c:	6f2b      	ldr	r3, [r5, #112]	; 0x70
 800306e:	0798      	lsls	r0, r3, #30
 8003070:	d4f5      	bmi.n	800305e <HAL_RCC_OscConfig+0x10a>
 8003072:	2e00      	cmp	r6, #0
 8003074:	f040 80dc 	bne.w	8003230 <HAL_RCC_OscConfig+0x2dc>
 8003078:	69a2      	ldr	r2, [r4, #24]
 800307a:	b1ca      	cbz	r2, 80030b0 <HAL_RCC_OscConfig+0x15c>
 800307c:	4d67      	ldr	r5, [pc, #412]	; (800321c <HAL_RCC_OscConfig+0x2c8>)
 800307e:	68a9      	ldr	r1, [r5, #8]
 8003080:	f001 010c 	and.w	r1, r1, #12
 8003084:	2908      	cmp	r1, #8
 8003086:	d048      	beq.n	800311a <HAL_RCC_OscConfig+0x1c6>
 8003088:	2a02      	cmp	r2, #2
 800308a:	4a67      	ldr	r2, [pc, #412]	; (8003228 <HAL_RCC_OscConfig+0x2d4>)
 800308c:	f04f 0100 	mov.w	r1, #0
 8003090:	6011      	str	r1, [r2, #0]
 8003092:	f000 80e7 	beq.w	8003264 <HAL_RCC_OscConfig+0x310>
 8003096:	f7fd ff45 	bl	8000f24 <HAL_GetTick>
 800309a:	462c      	mov	r4, r5
 800309c:	4605      	mov	r5, r0
 800309e:	e004      	b.n	80030aa <HAL_RCC_OscConfig+0x156>
 80030a0:	f7fd ff40 	bl	8000f24 <HAL_GetTick>
 80030a4:	1b40      	subs	r0, r0, r5
 80030a6:	2802      	cmp	r0, #2
 80030a8:	d87c      	bhi.n	80031a4 <HAL_RCC_OscConfig+0x250>
 80030aa:	6823      	ldr	r3, [r4, #0]
 80030ac:	019b      	lsls	r3, r3, #6
 80030ae:	d4f7      	bmi.n	80030a0 <HAL_RCC_OscConfig+0x14c>
 80030b0:	2000      	movs	r0, #0
 80030b2:	b002      	add	sp, #8
 80030b4:	e8bd 81f0 	ldmia.w	sp!, {r4, r5, r6, r7, r8, pc}
 80030b8:	4a58      	ldr	r2, [pc, #352]	; (800321c <HAL_RCC_OscConfig+0x2c8>)
 80030ba:	6891      	ldr	r1, [r2, #8]
 80030bc:	f011 0f0c 	tst.w	r1, #12
 80030c0:	d024      	beq.n	800310c <HAL_RCC_OscConfig+0x1b8>
 80030c2:	6891      	ldr	r1, [r2, #8]
 80030c4:	f001 010c 	and.w	r1, r1, #12
 80030c8:	2908      	cmp	r1, #8
 80030ca:	d01c      	beq.n	8003106 <HAL_RCC_OscConfig+0x1b2>
 80030cc:	68e3      	ldr	r3, [r4, #12]
 80030ce:	2b00      	cmp	r3, #0
 80030d0:	f000 8092 	beq.w	80031f8 <HAL_RCC_OscConfig+0x2a4>
 80030d4:	4b55      	ldr	r3, [pc, #340]	; (800322c <HAL_RCC_OscConfig+0x2d8>)
 80030d6:	4d51      	ldr	r5, [pc, #324]	; (800321c <HAL_RCC_OscConfig+0x2c8>)
 80030d8:	2201      	movs	r2, #1
 80030da:	601a      	str	r2, [r3, #0]
 80030dc:	f7fd ff22 	bl	8000f24 <HAL_GetTick>
 80030e0:	4606      	mov	r6, r0
 80030e2:	e004      	b.n	80030ee <HAL_RCC_OscConfig+0x19a>
 80030e4:	f7fd ff1e 	bl	8000f24 <HAL_GetTick>
 80030e8:	1b80      	subs	r0, r0, r6
 80030ea:	2802      	cmp	r0, #2
 80030ec:	d85a      	bhi.n	80031a4 <HAL_RCC_OscConfig+0x250>
 80030ee:	682b      	ldr	r3, [r5, #0]
 80030f0:	0798      	lsls	r0, r3, #30
 80030f2:	d5f7      	bpl.n	80030e4 <HAL_RCC_OscConfig+0x190>
 80030f4:	682b      	ldr	r3, [r5, #0]
 80030f6:	6922      	ldr	r2, [r4, #16]
 80030f8:	f023 03f8 	bic.w	r3, r3, #248	; 0xf8
 80030fc:	ea43 03c2 	orr.w	r3, r3, r2, lsl #3
 8003100:	602b      	str	r3, [r5, #0]
 8003102:	6823      	ldr	r3, [r4, #0]
 8003104:	e762      	b.n	8002fcc <HAL_RCC_OscConfig+0x78>
 8003106:	6852      	ldr	r2, [r2, #4]
 8003108:	0256      	lsls	r6, r2, #9
 800310a:	d4df      	bmi.n	80030cc <HAL_RCC_OscConfig+0x178>
 800310c:	4a43      	ldr	r2, [pc, #268]	; (800321c <HAL_RCC_OscConfig+0x2c8>)
 800310e:	6812      	ldr	r2, [r2, #0]
 8003110:	0795      	lsls	r5, r2, #30
 8003112:	d54b      	bpl.n	80031ac <HAL_RCC_OscConfig+0x258>
 8003114:	68e2      	ldr	r2, [r4, #12]
 8003116:	2a01      	cmp	r2, #1
 8003118:	d048      	beq.n	80031ac <HAL_RCC_OscConfig+0x258>
 800311a:	2001      	movs	r0, #1
 800311c:	b002      	add	sp, #8
 800311e:	e8bd 81f0 	ldmia.w	sp!, {r4, r5, r6, r7, r8, pc}
 8003122:	4a3f      	ldr	r2, [pc, #252]	; (8003220 <HAL_RCC_OscConfig+0x2cc>)
 8003124:	4d3d      	ldr	r5, [pc, #244]	; (800321c <HAL_RCC_OscConfig+0x2c8>)
 8003126:	6013      	str	r3, [r2, #0]
 8003128:	f7fd fefc 	bl	8000f24 <HAL_GetTick>
 800312c:	4606      	mov	r6, r0
 800312e:	e004      	b.n	800313a <HAL_RCC_OscConfig+0x1e6>
 8003130:	f7fd fef8 	bl	8000f24 <HAL_GetTick>
 8003134:	1b80      	subs	r0, r0, r6
 8003136:	2802      	cmp	r0, #2
 8003138:	d834      	bhi.n	80031a4 <HAL_RCC_OscConfig+0x250>
 800313a:	6f6b      	ldr	r3, [r5, #116]	; 0x74
 800313c:	079f      	lsls	r7, r3, #30
 800313e:	d4f7      	bmi.n	8003130 <HAL_RCC_OscConfig+0x1dc>
 8003140:	e75b      	b.n	8002ffa <HAL_RCC_OscConfig+0xa6>
 8003142:	684a      	ldr	r2, [r1, #4]
 8003144:	0250      	lsls	r0, r2, #9
 8003146:	f57f af1c 	bpl.w	8002f82 <HAL_RCC_OscConfig+0x2e>
 800314a:	4a34      	ldr	r2, [pc, #208]	; (800321c <HAL_RCC_OscConfig+0x2c8>)
 800314c:	6812      	ldr	r2, [r2, #0]
 800314e:	0391      	lsls	r1, r2, #14
 8003150:	f57f af3a 	bpl.w	8002fc8 <HAL_RCC_OscConfig+0x74>
 8003154:	6862      	ldr	r2, [r4, #4]
 8003156:	2a00      	cmp	r2, #0
 8003158:	f47f af36 	bne.w	8002fc8 <HAL_RCC_OscConfig+0x74>
 800315c:	e7dd      	b.n	800311a <HAL_RCC_OscConfig+0x1c6>
 800315e:	4a2f      	ldr	r2, [pc, #188]	; (800321c <HAL_RCC_OscConfig+0x2c8>)
 8003160:	6813      	ldr	r3, [r2, #0]
 8003162:	f443 3380 	orr.w	r3, r3, #65536	; 0x10000
 8003166:	6013      	str	r3, [r2, #0]
 8003168:	f7fd fedc 	bl	8000f24 <HAL_GetTick>
 800316c:	4d2b      	ldr	r5, [pc, #172]	; (800321c <HAL_RCC_OscConfig+0x2c8>)
 800316e:	4606      	mov	r6, r0
 8003170:	e004      	b.n	800317c <HAL_RCC_OscConfig+0x228>
 8003172:	f7fd fed7 	bl	8000f24 <HAL_GetTick>
 8003176:	1b80      	subs	r0, r0, r6
 8003178:	2864      	cmp	r0, #100	; 0x64
 800317a:	d813      	bhi.n	80031a4 <HAL_RCC_OscConfig+0x250>
 800317c:	682b      	ldr	r3, [r5, #0]
 800317e:	039a      	lsls	r2, r3, #14
 8003180:	d5f7      	bpl.n	8003172 <HAL_RCC_OscConfig+0x21e>
 8003182:	e720      	b.n	8002fc6 <HAL_RCC_OscConfig+0x72>
 8003184:	682a      	ldr	r2, [r5, #0]
 8003186:	f442 7280 	orr.w	r2, r2, #256	; 0x100
 800318a:	602a      	str	r2, [r5, #0]
 800318c:	f7fd feca 	bl	8000f24 <HAL_GetTick>
 8003190:	4607      	mov	r7, r0
 8003192:	682b      	ldr	r3, [r5, #0]
 8003194:	05da      	lsls	r2, r3, #23
 8003196:	f53f af49 	bmi.w	800302c <HAL_RCC_OscConfig+0xd8>
 800319a:	f7fd fec3 	bl	8000f24 <HAL_GetTick>
 800319e:	1bc0      	subs	r0, r0, r7
 80031a0:	2802      	cmp	r0, #2
 80031a2:	d9f6      	bls.n	8003192 <HAL_RCC_OscConfig+0x23e>
 80031a4:	2003      	movs	r0, #3
 80031a6:	b002      	add	sp, #8
 80031a8:	e8bd 81f0 	ldmia.w	sp!, {r4, r5, r6, r7, r8, pc}
 80031ac:	491b      	ldr	r1, [pc, #108]	; (800321c <HAL_RCC_OscConfig+0x2c8>)
 80031ae:	6920      	ldr	r0, [r4, #16]
 80031b0:	680a      	ldr	r2, [r1, #0]
 80031b2:	f022 02f8 	bic.w	r2, r2, #248	; 0xf8
 80031b6:	ea42 02c0 	orr.w	r2, r2, r0, lsl #3
 80031ba:	600a      	str	r2, [r1, #0]
 80031bc:	e706      	b.n	8002fcc <HAL_RCC_OscConfig+0x78>
 80031be:	2001      	movs	r0, #1
 80031c0:	4770      	bx	lr
 80031c2:	2600      	movs	r6, #0
 80031c4:	e72d      	b.n	8003022 <HAL_RCC_OscConfig+0xce>
 80031c6:	4a15      	ldr	r2, [pc, #84]	; (800321c <HAL_RCC_OscConfig+0x2c8>)
 80031c8:	6f13      	ldr	r3, [r2, #112]	; 0x70
 80031ca:	f043 0301 	orr.w	r3, r3, #1
 80031ce:	6713      	str	r3, [r2, #112]	; 0x70
 80031d0:	f7fd fea8 	bl	8000f24 <HAL_GetTick>
 80031d4:	4d11      	ldr	r5, [pc, #68]	; (800321c <HAL_RCC_OscConfig+0x2c8>)
 80031d6:	4680      	mov	r8, r0
 80031d8:	f241 3788 	movw	r7, #5000	; 0x1388
 80031dc:	e005      	b.n	80031ea <HAL_RCC_OscConfig+0x296>
 80031de:	f7fd fea1 	bl	8000f24 <HAL_GetTick>
 80031e2:	eba0 0008 	sub.w	r0, r0, r8
 80031e6:	42b8      	cmp	r0, r7
 80031e8:	d8dc      	bhi.n	80031a4 <HAL_RCC_OscConfig+0x250>
 80031ea:	6f2b      	ldr	r3, [r5, #112]	; 0x70
 80031ec:	079b      	lsls	r3, r3, #30
 80031ee:	d5f6      	bpl.n	80031de <HAL_RCC_OscConfig+0x28a>
 80031f0:	2e00      	cmp	r6, #0
 80031f2:	f43f af41 	beq.w	8003078 <HAL_RCC_OscConfig+0x124>
 80031f6:	e01b      	b.n	8003230 <HAL_RCC_OscConfig+0x2dc>
 80031f8:	4a0c      	ldr	r2, [pc, #48]	; (800322c <HAL_RCC_OscConfig+0x2d8>)
 80031fa:	4d08      	ldr	r5, [pc, #32]	; (800321c <HAL_RCC_OscConfig+0x2c8>)
 80031fc:	6013      	str	r3, [r2, #0]
 80031fe:	f7fd fe91 	bl	8000f24 <HAL_GetTick>
 8003202:	4606      	mov	r6, r0
 8003204:	e004      	b.n	8003210 <HAL_RCC_OscConfig+0x2bc>
 8003206:	f7fd fe8d 	bl	8000f24 <HAL_GetTick>
 800320a:	1b80      	subs	r0, r0, r6
 800320c:	2802      	cmp	r0, #2
 800320e:	d8c9      	bhi.n	80031a4 <HAL_RCC_OscConfig+0x250>
 8003210:	682b      	ldr	r3, [r5, #0]
 8003212:	0799      	lsls	r1, r3, #30
 8003214:	d4f7      	bmi.n	8003206 <HAL_RCC_OscConfig+0x2b2>
 8003216:	6823      	ldr	r3, [r4, #0]
 8003218:	e6d8      	b.n	8002fcc <HAL_RCC_OscConfig+0x78>
 800321a:	bf00      	nop
 800321c:	40023800 	.word	0x40023800
 8003220:	42470e80 	.word	0x42470e80
 8003224:	40007000 	.word	0x40007000
 8003228:	42470060 	.word	0x42470060
 800322c:	42470000 	.word	0x42470000
 8003230:	4a23      	ldr	r2, [pc, #140]	; (80032c0 <HAL_RCC_OscConfig+0x36c>)
 8003232:	6c13      	ldr	r3, [r2, #64]	; 0x40
 8003234:	f023 5380 	bic.w	r3, r3, #268435456	; 0x10000000
 8003238:	6413      	str	r3, [r2, #64]	; 0x40
 800323a:	e71d      	b.n	8003078 <HAL_RCC_OscConfig+0x124>
 800323c:	4b20      	ldr	r3, [pc, #128]	; (80032c0 <HAL_RCC_OscConfig+0x36c>)
 800323e:	681a      	ldr	r2, [r3, #0]
 8003240:	f442 2280 	orr.w	r2, r2, #262144	; 0x40000
 8003244:	601a      	str	r2, [r3, #0]
 8003246:	681a      	ldr	r2, [r3, #0]
 8003248:	f442 3280 	orr.w	r2, r2, #65536	; 0x10000
 800324c:	601a      	str	r2, [r3, #0]
 800324e:	e78b      	b.n	8003168 <HAL_RCC_OscConfig+0x214>
 8003250:	4b1b      	ldr	r3, [pc, #108]	; (80032c0 <HAL_RCC_OscConfig+0x36c>)
 8003252:	6f1a      	ldr	r2, [r3, #112]	; 0x70
 8003254:	f042 0204 	orr.w	r2, r2, #4
 8003258:	671a      	str	r2, [r3, #112]	; 0x70
 800325a:	6f1a      	ldr	r2, [r3, #112]	; 0x70
 800325c:	f042 0201 	orr.w	r2, r2, #1
 8003260:	671a      	str	r2, [r3, #112]	; 0x70
 8003262:	e7b5      	b.n	80031d0 <HAL_RCC_OscConfig+0x27c>
 8003264:	f7fd fe5e 	bl	8000f24 <HAL_GetTick>
 8003268:	4606      	mov	r6, r0
 800326a:	e004      	b.n	8003276 <HAL_RCC_OscConfig+0x322>
 800326c:	f7fd fe5a 	bl	8000f24 <HAL_GetTick>
 8003270:	1b80      	subs	r0, r0, r6
 8003272:	2802      	cmp	r0, #2
 8003274:	d896      	bhi.n	80031a4 <HAL_RCC_OscConfig+0x250>
 8003276:	682b      	ldr	r3, [r5, #0]
 8003278:	0199      	lsls	r1, r3, #6
 800327a:	d4f7      	bmi.n	800326c <HAL_RCC_OscConfig+0x318>
 800327c:	e9d4 3607 	ldrd	r3, r6, [r4, #28]
 8003280:	e9d4 0209 	ldrd	r0, r2, [r4, #36]	; 0x24
 8003284:	6ae1      	ldr	r1, [r4, #44]	; 0x2c
 8003286:	4c0e      	ldr	r4, [pc, #56]	; (80032c0 <HAL_RCC_OscConfig+0x36c>)
 8003288:	4333      	orrs	r3, r6
 800328a:	ea43 1380 	orr.w	r3, r3, r0, lsl #6
 800328e:	0852      	lsrs	r2, r2, #1
 8003290:	ea43 6301 	orr.w	r3, r3, r1, lsl #24
 8003294:	3a01      	subs	r2, #1
 8003296:	490b      	ldr	r1, [pc, #44]	; (80032c4 <HAL_RCC_OscConfig+0x370>)
 8003298:	ea43 4302 	orr.w	r3, r3, r2, lsl #16
 800329c:	2201      	movs	r2, #1
 800329e:	606b      	str	r3, [r5, #4]
 80032a0:	600a      	str	r2, [r1, #0]
 80032a2:	f7fd fe3f 	bl	8000f24 <HAL_GetTick>
 80032a6:	4605      	mov	r5, r0
 80032a8:	e005      	b.n	80032b6 <HAL_RCC_OscConfig+0x362>
 80032aa:	f7fd fe3b 	bl	8000f24 <HAL_GetTick>
 80032ae:	1b40      	subs	r0, r0, r5
 80032b0:	2802      	cmp	r0, #2
 80032b2:	f63f af77 	bhi.w	80031a4 <HAL_RCC_OscConfig+0x250>
 80032b6:	6823      	ldr	r3, [r4, #0]
 80032b8:	019a      	lsls	r2, r3, #6
 80032ba:	d5f6      	bpl.n	80032aa <HAL_RCC_OscConfig+0x356>
 80032bc:	e6f8      	b.n	80030b0 <HAL_RCC_OscConfig+0x15c>
 80032be:	bf00      	nop
 80032c0:	40023800 	.word	0x40023800
 80032c4:	42470060 	.word	0x42470060

080032c8 <HAL_RCC_GetSysClockFreq>:
 80032c8:	4917      	ldr	r1, [pc, #92]	; (8003328 <HAL_RCC_GetSysClockFreq+0x60>)
 80032ca:	b508      	push	{r3, lr}
 80032cc:	688b      	ldr	r3, [r1, #8]
 80032ce:	f003 030c 	and.w	r3, r3, #12
 80032d2:	2b04      	cmp	r3, #4
 80032d4:	d01b      	beq.n	800330e <HAL_RCC_GetSysClockFreq+0x46>
 80032d6:	2b08      	cmp	r3, #8
 80032d8:	d117      	bne.n	800330a <HAL_RCC_GetSysClockFreq+0x42>
 80032da:	684a      	ldr	r2, [r1, #4]
 80032dc:	684b      	ldr	r3, [r1, #4]
 80032de:	f413 0380 	ands.w	r3, r3, #4194304	; 0x400000
 80032e2:	f002 023f 	and.w	r2, r2, #63	; 0x3f
 80032e6:	d114      	bne.n	8003312 <HAL_RCC_GetSysClockFreq+0x4a>
 80032e8:	6849      	ldr	r1, [r1, #4]
 80032ea:	4810      	ldr	r0, [pc, #64]	; (800332c <HAL_RCC_GetSysClockFreq+0x64>)
 80032ec:	f3c1 1188 	ubfx	r1, r1, #6, #9
 80032f0:	fba1 0100 	umull	r0, r1, r1, r0
 80032f4:	f7fd fc4c 	bl	8000b90 <__aeabi_uldivmod>
 80032f8:	4b0b      	ldr	r3, [pc, #44]	; (8003328 <HAL_RCC_GetSysClockFreq+0x60>)
 80032fa:	685b      	ldr	r3, [r3, #4]
 80032fc:	f3c3 4301 	ubfx	r3, r3, #16, #2
 8003300:	3301      	adds	r3, #1
 8003302:	005b      	lsls	r3, r3, #1
 8003304:	fbb0 f0f3 	udiv	r0, r0, r3
 8003308:	bd08      	pop	{r3, pc}
 800330a:	4808      	ldr	r0, [pc, #32]	; (800332c <HAL_RCC_GetSysClockFreq+0x64>)
 800330c:	bd08      	pop	{r3, pc}
 800330e:	4808      	ldr	r0, [pc, #32]	; (8003330 <HAL_RCC_GetSysClockFreq+0x68>)
 8003310:	bd08      	pop	{r3, pc}
 8003312:	684b      	ldr	r3, [r1, #4]
 8003314:	4806      	ldr	r0, [pc, #24]	; (8003330 <HAL_RCC_GetSysClockFreq+0x68>)
 8003316:	f3c3 1388 	ubfx	r3, r3, #6, #9
 800331a:	fba3 0100 	umull	r0, r1, r3, r0
 800331e:	2300      	movs	r3, #0
 8003320:	f7fd fc36 	bl	8000b90 <__aeabi_uldivmod>
 8003324:	e7e8      	b.n	80032f8 <HAL_RCC_GetSysClockFreq+0x30>
 8003326:	bf00      	nop
 8003328:	40023800 	.word	0x40023800
 800332c:	00f42400 	.word	0x00f42400
 8003330:	007a1200 	.word	0x007a1200

08003334 <HAL_RCC_ClockConfig>:
 8003334:	b160      	cbz	r0, 8003350 <HAL_RCC_ClockConfig+0x1c>
 8003336:	4a48      	ldr	r2, [pc, #288]	; (8003458 <HAL_RCC_ClockConfig+0x124>)
 8003338:	6813      	ldr	r3, [r2, #0]
 800333a:	f003 030f 	and.w	r3, r3, #15
 800333e:	428b      	cmp	r3, r1
 8003340:	d208      	bcs.n	8003354 <HAL_RCC_ClockConfig+0x20>
 8003342:	b2cb      	uxtb	r3, r1
 8003344:	7013      	strb	r3, [r2, #0]
 8003346:	6813      	ldr	r3, [r2, #0]
 8003348:	f003 030f 	and.w	r3, r3, #15
 800334c:	428b      	cmp	r3, r1
 800334e:	d001      	beq.n	8003354 <HAL_RCC_ClockConfig+0x20>
 8003350:	2001      	movs	r0, #1
 8003352:	4770      	bx	lr
 8003354:	6803      	ldr	r3, [r0, #0]
 8003356:	e92d 41f0 	stmdb	sp!, {r4, r5, r6, r7, r8, lr}
 800335a:	079d      	lsls	r5, r3, #30
 800335c:	d514      	bpl.n	8003388 <HAL_RCC_ClockConfig+0x54>
 800335e:	075c      	lsls	r4, r3, #29
 8003360:	d504      	bpl.n	800336c <HAL_RCC_ClockConfig+0x38>
 8003362:	4c3e      	ldr	r4, [pc, #248]	; (800345c <HAL_RCC_ClockConfig+0x128>)
 8003364:	68a2      	ldr	r2, [r4, #8]
 8003366:	f442 52e0 	orr.w	r2, r2, #7168	; 0x1c00
 800336a:	60a2      	str	r2, [r4, #8]
 800336c:	071a      	lsls	r2, r3, #28
 800336e:	d504      	bpl.n	800337a <HAL_RCC_ClockConfig+0x46>
 8003370:	4c3a      	ldr	r4, [pc, #232]	; (800345c <HAL_RCC_ClockConfig+0x128>)
 8003372:	68a2      	ldr	r2, [r4, #8]
 8003374:	f442 4260 	orr.w	r2, r2, #57344	; 0xe000
 8003378:	60a2      	str	r2, [r4, #8]
 800337a:	4c38      	ldr	r4, [pc, #224]	; (800345c <HAL_RCC_ClockConfig+0x128>)
 800337c:	6885      	ldr	r5, [r0, #8]
 800337e:	68a2      	ldr	r2, [r4, #8]
 8003380:	f022 02f0 	bic.w	r2, r2, #240	; 0xf0
 8003384:	432a      	orrs	r2, r5
 8003386:	60a2      	str	r2, [r4, #8]
 8003388:	07df      	lsls	r7, r3, #31
 800338a:	4604      	mov	r4, r0
 800338c:	460d      	mov	r5, r1
 800338e:	d522      	bpl.n	80033d6 <HAL_RCC_ClockConfig+0xa2>
 8003390:	6842      	ldr	r2, [r0, #4]
 8003392:	2a01      	cmp	r2, #1
 8003394:	d056      	beq.n	8003444 <HAL_RCC_ClockConfig+0x110>
 8003396:	1e93      	subs	r3, r2, #2
 8003398:	2b01      	cmp	r3, #1
 800339a:	4b30      	ldr	r3, [pc, #192]	; (800345c <HAL_RCC_ClockConfig+0x128>)
 800339c:	681b      	ldr	r3, [r3, #0]
 800339e:	d958      	bls.n	8003452 <HAL_RCC_ClockConfig+0x11e>
 80033a0:	0799      	lsls	r1, r3, #30
 80033a2:	d525      	bpl.n	80033f0 <HAL_RCC_ClockConfig+0xbc>
 80033a4:	4e2d      	ldr	r6, [pc, #180]	; (800345c <HAL_RCC_ClockConfig+0x128>)
 80033a6:	68b3      	ldr	r3, [r6, #8]
 80033a8:	f023 0303 	bic.w	r3, r3, #3
 80033ac:	4313      	orrs	r3, r2
 80033ae:	60b3      	str	r3, [r6, #8]
 80033b0:	f7fd fdb8 	bl	8000f24 <HAL_GetTick>
 80033b4:	f241 3788 	movw	r7, #5000	; 0x1388
 80033b8:	4680      	mov	r8, r0
 80033ba:	e005      	b.n	80033c8 <HAL_RCC_ClockConfig+0x94>
 80033bc:	f7fd fdb2 	bl	8000f24 <HAL_GetTick>
 80033c0:	eba0 0008 	sub.w	r0, r0, r8
 80033c4:	42b8      	cmp	r0, r7
 80033c6:	d842      	bhi.n	800344e <HAL_RCC_ClockConfig+0x11a>
 80033c8:	68b3      	ldr	r3, [r6, #8]
 80033ca:	6862      	ldr	r2, [r4, #4]
 80033cc:	f003 030c 	and.w	r3, r3, #12
 80033d0:	ebb3 0f82 	cmp.w	r3, r2, lsl #2
 80033d4:	d1f2      	bne.n	80033bc <HAL_RCC_ClockConfig+0x88>
 80033d6:	4a20      	ldr	r2, [pc, #128]	; (8003458 <HAL_RCC_ClockConfig+0x124>)
 80033d8:	6813      	ldr	r3, [r2, #0]
 80033da:	f003 030f 	and.w	r3, r3, #15
 80033de:	42ab      	cmp	r3, r5
 80033e0:	d909      	bls.n	80033f6 <HAL_RCC_ClockConfig+0xc2>
 80033e2:	b2eb      	uxtb	r3, r5
 80033e4:	7013      	strb	r3, [r2, #0]
 80033e6:	6813      	ldr	r3, [r2, #0]
 80033e8:	f003 030f 	and.w	r3, r3, #15
 80033ec:	42ab      	cmp	r3, r5
 80033ee:	d002      	beq.n	80033f6 <HAL_RCC_ClockConfig+0xc2>
 80033f0:	2001      	movs	r0, #1
 80033f2:	e8bd 81f0 	ldmia.w	sp!, {r4, r5, r6, r7, r8, pc}
 80033f6:	6823      	ldr	r3, [r4, #0]
 80033f8:	075a      	lsls	r2, r3, #29
 80033fa:	d506      	bpl.n	800340a <HAL_RCC_ClockConfig+0xd6>
 80033fc:	4917      	ldr	r1, [pc, #92]	; (800345c <HAL_RCC_ClockConfig+0x128>)
 80033fe:	68e0      	ldr	r0, [r4, #12]
 8003400:	688a      	ldr	r2, [r1, #8]
 8003402:	f422 52e0 	bic.w	r2, r2, #7168	; 0x1c00
 8003406:	4302      	orrs	r2, r0
 8003408:	608a      	str	r2, [r1, #8]
 800340a:	071b      	lsls	r3, r3, #28
 800340c:	d411      	bmi.n	8003432 <HAL_RCC_ClockConfig+0xfe>
 800340e:	f7ff ff5b 	bl	80032c8 <HAL_RCC_GetSysClockFreq>
 8003412:	4b12      	ldr	r3, [pc, #72]	; (800345c <HAL_RCC_ClockConfig+0x128>)
 8003414:	4912      	ldr	r1, [pc, #72]	; (8003460 <HAL_RCC_ClockConfig+0x12c>)
 8003416:	689b      	ldr	r3, [r3, #8]
 8003418:	4a12      	ldr	r2, [pc, #72]	; (8003464 <HAL_RCC_ClockConfig+0x130>)
 800341a:	f3c3 1303 	ubfx	r3, r3, #4, #4
 800341e:	5ccb      	ldrb	r3, [r1, r3]
 8003420:	fa20 f303 	lsr.w	r3, r0, r3
 8003424:	2000      	movs	r0, #0
 8003426:	6013      	str	r3, [r2, #0]
 8003428:	f7fd fd32 	bl	8000e90 <HAL_InitTick>
 800342c:	2000      	movs	r0, #0
 800342e:	e8bd 81f0 	ldmia.w	sp!, {r4, r5, r6, r7, r8, pc}
 8003432:	4a0a      	ldr	r2, [pc, #40]	; (800345c <HAL_RCC_ClockConfig+0x128>)
 8003434:	6921      	ldr	r1, [r4, #16]
 8003436:	6893      	ldr	r3, [r2, #8]
 8003438:	f423 4360 	bic.w	r3, r3, #57344	; 0xe000
 800343c:	ea43 03c1 	orr.w	r3, r3, r1, lsl #3
 8003440:	6093      	str	r3, [r2, #8]
 8003442:	e7e4      	b.n	800340e <HAL_RCC_ClockConfig+0xda>
 8003444:	4b05      	ldr	r3, [pc, #20]	; (800345c <HAL_RCC_ClockConfig+0x128>)
 8003446:	681b      	ldr	r3, [r3, #0]
 8003448:	039e      	lsls	r6, r3, #14
 800344a:	d4ab      	bmi.n	80033a4 <HAL_RCC_ClockConfig+0x70>
 800344c:	e7d0      	b.n	80033f0 <HAL_RCC_ClockConfig+0xbc>
 800344e:	2003      	movs	r0, #3
 8003450:	e7ed      	b.n	800342e <HAL_RCC_ClockConfig+0xfa>
 8003452:	0198      	lsls	r0, r3, #6
 8003454:	d4a6      	bmi.n	80033a4 <HAL_RCC_ClockConfig+0x70>
 8003456:	e7cb      	b.n	80033f0 <HAL_RCC_ClockConfig+0xbc>
 8003458:	40023c00 	.word	0x40023c00
 800345c:	40023800 	.word	0x40023800
 8003460:	080073b4 	.word	0x080073b4
 8003464:	20000010 	.word	0x20000010

08003468 <HAL_RCC_GetPCLK1Freq>:
 8003468:	4b04      	ldr	r3, [pc, #16]	; (800347c <HAL_RCC_GetPCLK1Freq+0x14>)
 800346a:	4a05      	ldr	r2, [pc, #20]	; (8003480 <HAL_RCC_GetPCLK1Freq+0x18>)
 800346c:	689b      	ldr	r3, [r3, #8]
 800346e:	4905      	ldr	r1, [pc, #20]	; (8003484 <HAL_RCC_GetPCLK1Freq+0x1c>)
 8003470:	f3c3 2382 	ubfx	r3, r3, #10, #3
 8003474:	6808      	ldr	r0, [r1, #0]
 8003476:	5cd3      	ldrb	r3, [r2, r3]
 8003478:	40d8      	lsrs	r0, r3
 800347a:	4770      	bx	lr
 800347c:	40023800 	.word	0x40023800
 8003480:	080073c4 	.word	0x080073c4
 8003484:	20000010 	.word	0x20000010

08003488 <HAL_RCC_GetPCLK2Freq>:
 8003488:	4b04      	ldr	r3, [pc, #16]	; (800349c <HAL_RCC_GetPCLK2Freq+0x14>)
 800348a:	4a05      	ldr	r2, [pc, #20]	; (80034a0 <HAL_RCC_GetPCLK2Freq+0x18>)
 800348c:	689b      	ldr	r3, [r3, #8]
 800348e:	4905      	ldr	r1, [pc, #20]	; (80034a4 <HAL_RCC_GetPCLK2Freq+0x1c>)
 8003490:	f3c3 3342 	ubfx	r3, r3, #13, #3
 8003494:	6808      	ldr	r0, [r1, #0]
 8003496:	5cd3      	ldrb	r3, [r2, r3]
 8003498:	40d8      	lsrs	r0, r3
 800349a:	4770      	bx	lr
 800349c:	40023800 	.word	0x40023800
 80034a0:	080073c4 	.word	0x080073c4
 80034a4:	20000010 	.word	0x20000010

080034a8 <HAL_RCCEx_PeriphCLKConfig>:
 80034a8:	b5f0      	push	{r4, r5, r6, r7, lr}
 80034aa:	4605      	mov	r5, r0
 80034ac:	6800      	ldr	r0, [r0, #0]
 80034ae:	f010 0f05 	tst.w	r0, #5
 80034b2:	b083      	sub	sp, #12
 80034b4:	d15c      	bne.n	8003570 <HAL_RCCEx_PeriphCLKConfig+0xc8>
 80034b6:	f010 0002 	ands.w	r0, r0, #2
 80034ba:	d101      	bne.n	80034c0 <HAL_RCCEx_PeriphCLKConfig+0x18>
 80034bc:	b003      	add	sp, #12
 80034be:	bdf0      	pop	{r4, r5, r6, r7, pc}
 80034c0:	4b45      	ldr	r3, [pc, #276]	; (80035d8 <HAL_RCCEx_PeriphCLKConfig+0x130>)
 80034c2:	4c46      	ldr	r4, [pc, #280]	; (80035dc <HAL_RCCEx_PeriphCLKConfig+0x134>)
 80034c4:	2200      	movs	r2, #0
 80034c6:	9201      	str	r2, [sp, #4]
 80034c8:	6c1a      	ldr	r2, [r3, #64]	; 0x40
 80034ca:	f042 5280 	orr.w	r2, r2, #268435456	; 0x10000000
 80034ce:	641a      	str	r2, [r3, #64]	; 0x40
 80034d0:	6c1b      	ldr	r3, [r3, #64]	; 0x40
 80034d2:	f003 5380 	and.w	r3, r3, #268435456	; 0x10000000
 80034d6:	9301      	str	r3, [sp, #4]
 80034d8:	9b01      	ldr	r3, [sp, #4]
 80034da:	6823      	ldr	r3, [r4, #0]
 80034dc:	f443 7380 	orr.w	r3, r3, #256	; 0x100
 80034e0:	6023      	str	r3, [r4, #0]
 80034e2:	f7fd fd1f 	bl	8000f24 <HAL_GetTick>
 80034e6:	4606      	mov	r6, r0
 80034e8:	e004      	b.n	80034f4 <HAL_RCCEx_PeriphCLKConfig+0x4c>
 80034ea:	f7fd fd1b 	bl	8000f24 <HAL_GetTick>
 80034ee:	1b80      	subs	r0, r0, r6
 80034f0:	2802      	cmp	r0, #2
 80034f2:	d83a      	bhi.n	800356a <HAL_RCCEx_PeriphCLKConfig+0xc2>
 80034f4:	6823      	ldr	r3, [r4, #0]
 80034f6:	05d9      	lsls	r1, r3, #23
 80034f8:	d5f7      	bpl.n	80034ea <HAL_RCCEx_PeriphCLKConfig+0x42>
 80034fa:	4937      	ldr	r1, [pc, #220]	; (80035d8 <HAL_RCCEx_PeriphCLKConfig+0x130>)
 80034fc:	68eb      	ldr	r3, [r5, #12]
 80034fe:	6f0a      	ldr	r2, [r1, #112]	; 0x70
 8003500:	f412 7240 	ands.w	r2, r2, #768	; 0x300
 8003504:	f403 7040 	and.w	r0, r3, #768	; 0x300
 8003508:	d010      	beq.n	800352c <HAL_RCCEx_PeriphCLKConfig+0x84>
 800350a:	4282      	cmp	r2, r0
 800350c:	d00e      	beq.n	800352c <HAL_RCCEx_PeriphCLKConfig+0x84>
 800350e:	6f0b      	ldr	r3, [r1, #112]	; 0x70
 8003510:	4a33      	ldr	r2, [pc, #204]	; (80035e0 <HAL_RCCEx_PeriphCLKConfig+0x138>)
 8003512:	f423 7340 	bic.w	r3, r3, #768	; 0x300
 8003516:	2401      	movs	r4, #1
 8003518:	2000      	movs	r0, #0
 800351a:	6014      	str	r4, [r2, #0]
 800351c:	6010      	str	r0, [r2, #0]
 800351e:	670b      	str	r3, [r1, #112]	; 0x70
 8003520:	6f0b      	ldr	r3, [r1, #112]	; 0x70
 8003522:	07da      	lsls	r2, r3, #31
 8003524:	d413      	bmi.n	800354e <HAL_RCCEx_PeriphCLKConfig+0xa6>
 8003526:	68eb      	ldr	r3, [r5, #12]
 8003528:	f403 7040 	and.w	r0, r3, #768	; 0x300
 800352c:	f5b0 7f40 	cmp.w	r0, #768	; 0x300
 8003530:	d047      	beq.n	80035c2 <HAL_RCCEx_PeriphCLKConfig+0x11a>
 8003532:	4929      	ldr	r1, [pc, #164]	; (80035d8 <HAL_RCCEx_PeriphCLKConfig+0x130>)
 8003534:	688a      	ldr	r2, [r1, #8]
 8003536:	f422 12f8 	bic.w	r2, r2, #2031616	; 0x1f0000
 800353a:	608a      	str	r2, [r1, #8]
 800353c:	4a26      	ldr	r2, [pc, #152]	; (80035d8 <HAL_RCCEx_PeriphCLKConfig+0x130>)
 800353e:	6f11      	ldr	r1, [r2, #112]	; 0x70
 8003540:	f3c3 030b 	ubfx	r3, r3, #0, #12
 8003544:	430b      	orrs	r3, r1
 8003546:	2000      	movs	r0, #0
 8003548:	6713      	str	r3, [r2, #112]	; 0x70
 800354a:	b003      	add	sp, #12
 800354c:	bdf0      	pop	{r4, r5, r6, r7, pc}
 800354e:	460c      	mov	r4, r1
 8003550:	f7fd fce8 	bl	8000f24 <HAL_GetTick>
 8003554:	f241 3688 	movw	r6, #5000	; 0x1388
 8003558:	4607      	mov	r7, r0
 800355a:	6f23      	ldr	r3, [r4, #112]	; 0x70
 800355c:	079b      	lsls	r3, r3, #30
 800355e:	d4e2      	bmi.n	8003526 <HAL_RCCEx_PeriphCLKConfig+0x7e>
 8003560:	f7fd fce0 	bl	8000f24 <HAL_GetTick>
 8003564:	1bc0      	subs	r0, r0, r7
 8003566:	42b0      	cmp	r0, r6
 8003568:	d9f7      	bls.n	800355a <HAL_RCCEx_PeriphCLKConfig+0xb2>
 800356a:	2003      	movs	r0, #3
 800356c:	b003      	add	sp, #12
 800356e:	bdf0      	pop	{r4, r5, r6, r7, pc}
 8003570:	4b1c      	ldr	r3, [pc, #112]	; (80035e4 <HAL_RCCEx_PeriphCLKConfig+0x13c>)
 8003572:	4c19      	ldr	r4, [pc, #100]	; (80035d8 <HAL_RCCEx_PeriphCLKConfig+0x130>)
 8003574:	2200      	movs	r2, #0
 8003576:	601a      	str	r2, [r3, #0]
 8003578:	f7fd fcd4 	bl	8000f24 <HAL_GetTick>
 800357c:	4606      	mov	r6, r0
 800357e:	e004      	b.n	800358a <HAL_RCCEx_PeriphCLKConfig+0xe2>
 8003580:	f7fd fcd0 	bl	8000f24 <HAL_GetTick>
 8003584:	1b80      	subs	r0, r0, r6
 8003586:	2802      	cmp	r0, #2
 8003588:	d8ef      	bhi.n	800356a <HAL_RCCEx_PeriphCLKConfig+0xc2>
 800358a:	6823      	ldr	r3, [r4, #0]
 800358c:	011f      	lsls	r7, r3, #4
 800358e:	d4f7      	bmi.n	8003580 <HAL_RCCEx_PeriphCLKConfig+0xd8>
 8003590:	e9d5 1301 	ldrd	r1, r3, [r5, #4]
 8003594:	4a13      	ldr	r2, [pc, #76]	; (80035e4 <HAL_RCCEx_PeriphCLKConfig+0x13c>)
 8003596:	4e10      	ldr	r6, [pc, #64]	; (80035d8 <HAL_RCCEx_PeriphCLKConfig+0x130>)
 8003598:	071b      	lsls	r3, r3, #28
 800359a:	ea43 1381 	orr.w	r3, r3, r1, lsl #6
 800359e:	2101      	movs	r1, #1
 80035a0:	f8c4 3084 	str.w	r3, [r4, #132]	; 0x84
 80035a4:	6011      	str	r1, [r2, #0]
 80035a6:	f7fd fcbd 	bl	8000f24 <HAL_GetTick>
 80035aa:	4604      	mov	r4, r0
 80035ac:	e004      	b.n	80035b8 <HAL_RCCEx_PeriphCLKConfig+0x110>
 80035ae:	f7fd fcb9 	bl	8000f24 <HAL_GetTick>
 80035b2:	1b00      	subs	r0, r0, r4
 80035b4:	2802      	cmp	r0, #2
 80035b6:	d8d8      	bhi.n	800356a <HAL_RCCEx_PeriphCLKConfig+0xc2>
 80035b8:	6833      	ldr	r3, [r6, #0]
 80035ba:	0118      	lsls	r0, r3, #4
 80035bc:	d5f7      	bpl.n	80035ae <HAL_RCCEx_PeriphCLKConfig+0x106>
 80035be:	6828      	ldr	r0, [r5, #0]
 80035c0:	e779      	b.n	80034b6 <HAL_RCCEx_PeriphCLKConfig+0xe>
 80035c2:	4805      	ldr	r0, [pc, #20]	; (80035d8 <HAL_RCCEx_PeriphCLKConfig+0x130>)
 80035c4:	6882      	ldr	r2, [r0, #8]
 80035c6:	f023 4170 	bic.w	r1, r3, #4026531840	; 0xf0000000
 80035ca:	f422 12f8 	bic.w	r2, r2, #2031616	; 0x1f0000
 80035ce:	f421 7140 	bic.w	r1, r1, #768	; 0x300
 80035d2:	430a      	orrs	r2, r1
 80035d4:	6082      	str	r2, [r0, #8]
 80035d6:	e7b1      	b.n	800353c <HAL_RCCEx_PeriphCLKConfig+0x94>
 80035d8:	40023800 	.word	0x40023800
 80035dc:	40007000 	.word	0x40007000
 80035e0:	42470e40 	.word	0x42470e40
 80035e4:	42470068 	.word	0x42470068

080035e8 <HAL_RTC_Init>:
 80035e8:	2800      	cmp	r0, #0
 80035ea:	d068      	beq.n	80036be <HAL_RTC_Init+0xd6>
 80035ec:	b538      	push	{r3, r4, r5, lr}
 80035ee:	7f43      	ldrb	r3, [r0, #29]
 80035f0:	4604      	mov	r4, r0
 80035f2:	f003 02ff 	and.w	r2, r3, #255	; 0xff
 80035f6:	2b00      	cmp	r3, #0
 80035f8:	d045      	beq.n	8003686 <HAL_RTC_Init+0x9e>
 80035fa:	6823      	ldr	r3, [r4, #0]
 80035fc:	2253      	movs	r2, #83	; 0x53
 80035fe:	2002      	movs	r0, #2
 8003600:	21ca      	movs	r1, #202	; 0xca
 8003602:	7760      	strb	r0, [r4, #29]
 8003604:	6259      	str	r1, [r3, #36]	; 0x24
 8003606:	625a      	str	r2, [r3, #36]	; 0x24
 8003608:	68da      	ldr	r2, [r3, #12]
 800360a:	0655      	lsls	r5, r2, #25
 800360c:	d529      	bpl.n	8003662 <HAL_RTC_Init+0x7a>
 800360e:	6899      	ldr	r1, [r3, #8]
 8003610:	6862      	ldr	r2, [r4, #4]
 8003612:	e9d4 5004 	ldrd	r5, r0, [r4, #16]
 8003616:	f421 01e0 	bic.w	r1, r1, #7340032	; 0x700000
 800361a:	f021 0140 	bic.w	r1, r1, #64	; 0x40
 800361e:	6099      	str	r1, [r3, #8]
 8003620:	6899      	ldr	r1, [r3, #8]
 8003622:	432a      	orrs	r2, r5
 8003624:	4302      	orrs	r2, r0
 8003626:	430a      	orrs	r2, r1
 8003628:	68e1      	ldr	r1, [r4, #12]
 800362a:	609a      	str	r2, [r3, #8]
 800362c:	6119      	str	r1, [r3, #16]
 800362e:	691a      	ldr	r2, [r3, #16]
 8003630:	68a1      	ldr	r1, [r4, #8]
 8003632:	ea42 4201 	orr.w	r2, r2, r1, lsl #16
 8003636:	611a      	str	r2, [r3, #16]
 8003638:	68da      	ldr	r2, [r3, #12]
 800363a:	f022 0280 	bic.w	r2, r2, #128	; 0x80
 800363e:	60da      	str	r2, [r3, #12]
 8003640:	689a      	ldr	r2, [r3, #8]
 8003642:	0691      	lsls	r1, r2, #26
 8003644:	d523      	bpl.n	800368e <HAL_RTC_Init+0xa6>
 8003646:	6c19      	ldr	r1, [r3, #64]	; 0x40
 8003648:	69a0      	ldr	r0, [r4, #24]
 800364a:	f421 2180 	bic.w	r1, r1, #262144	; 0x40000
 800364e:	6419      	str	r1, [r3, #64]	; 0x40
 8003650:	6c1a      	ldr	r2, [r3, #64]	; 0x40
 8003652:	25ff      	movs	r5, #255	; 0xff
 8003654:	4302      	orrs	r2, r0
 8003656:	2101      	movs	r1, #1
 8003658:	641a      	str	r2, [r3, #64]	; 0x40
 800365a:	2000      	movs	r0, #0
 800365c:	625d      	str	r5, [r3, #36]	; 0x24
 800365e:	7761      	strb	r1, [r4, #29]
 8003660:	bd38      	pop	{r3, r4, r5, pc}
 8003662:	f04f 32ff 	mov.w	r2, #4294967295
 8003666:	60da      	str	r2, [r3, #12]
 8003668:	f7fd fc5c 	bl	8000f24 <HAL_GetTick>
 800366c:	4605      	mov	r5, r0
 800366e:	e005      	b.n	800367c <HAL_RTC_Init+0x94>
 8003670:	f7fd fc58 	bl	8000f24 <HAL_GetTick>
 8003674:	1b40      	subs	r0, r0, r5
 8003676:	f5b0 7f7a 	cmp.w	r0, #1000	; 0x3e8
 800367a:	d819      	bhi.n	80036b0 <HAL_RTC_Init+0xc8>
 800367c:	6823      	ldr	r3, [r4, #0]
 800367e:	68da      	ldr	r2, [r3, #12]
 8003680:	0650      	lsls	r0, r2, #25
 8003682:	d5f5      	bpl.n	8003670 <HAL_RTC_Init+0x88>
 8003684:	e7c3      	b.n	800360e <HAL_RTC_Init+0x26>
 8003686:	7702      	strb	r2, [r0, #28]
 8003688:	f001 fd88 	bl	800519c <HAL_RTC_MspInit>
 800368c:	e7b5      	b.n	80035fa <HAL_RTC_Init+0x12>
 800368e:	68da      	ldr	r2, [r3, #12]
 8003690:	f022 02a0 	bic.w	r2, r2, #160	; 0xa0
 8003694:	60da      	str	r2, [r3, #12]
 8003696:	f7fd fc45 	bl	8000f24 <HAL_GetTick>
 800369a:	4605      	mov	r5, r0
 800369c:	6823      	ldr	r3, [r4, #0]
 800369e:	68da      	ldr	r2, [r3, #12]
 80036a0:	0692      	lsls	r2, r2, #26
 80036a2:	d4d0      	bmi.n	8003646 <HAL_RTC_Init+0x5e>
 80036a4:	f7fd fc3e 	bl	8000f24 <HAL_GetTick>
 80036a8:	1b40      	subs	r0, r0, r5
 80036aa:	f5b0 7f7a 	cmp.w	r0, #1000	; 0x3e8
 80036ae:	d9f5      	bls.n	800369c <HAL_RTC_Init+0xb4>
 80036b0:	6822      	ldr	r2, [r4, #0]
 80036b2:	21ff      	movs	r1, #255	; 0xff
 80036b4:	2304      	movs	r3, #4
 80036b6:	6251      	str	r1, [r2, #36]	; 0x24
 80036b8:	2001      	movs	r0, #1
 80036ba:	7763      	strb	r3, [r4, #29]
 80036bc:	bd38      	pop	{r3, r4, r5, pc}
 80036be:	2001      	movs	r0, #1
 80036c0:	4770      	bx	lr
 80036c2:	bf00      	nop

080036c4 <HAL_SPI_Init>:
 80036c4:	2800      	cmp	r0, #0
 80036c6:	d03b      	beq.n	8003740 <HAL_SPI_Init+0x7c>
 80036c8:	f890 2051 	ldrb.w	r2, [r0, #81]	; 0x51
 80036cc:	2300      	movs	r3, #0
 80036ce:	b570      	push	{r4, r5, r6, lr}
 80036d0:	f002 01ff 	and.w	r1, r2, #255	; 0xff
 80036d4:	4604      	mov	r4, r0
 80036d6:	6283      	str	r3, [r0, #40]	; 0x28
 80036d8:	b362      	cbz	r2, 8003734 <HAL_SPI_Init+0x70>
 80036da:	4618      	mov	r0, r3
 80036dc:	e9d4 3501 	ldrd	r3, r5, [r4, #4]
 80036e0:	e9d4 2103 	ldrd	r2, r1, [r4, #12]
 80036e4:	432b      	orrs	r3, r5
 80036e6:	4313      	orrs	r3, r2
 80036e8:	6962      	ldr	r2, [r4, #20]
 80036ea:	69e5      	ldr	r5, [r4, #28]
 80036ec:	6a26      	ldr	r6, [r4, #32]
 80036ee:	430b      	orrs	r3, r1
 80036f0:	4313      	orrs	r3, r2
 80036f2:	69a2      	ldr	r2, [r4, #24]
 80036f4:	6821      	ldr	r1, [r4, #0]
 80036f6:	432b      	orrs	r3, r5
 80036f8:	2502      	movs	r5, #2
 80036fa:	f884 5051 	strb.w	r5, [r4, #81]	; 0x51
 80036fe:	4333      	orrs	r3, r6
 8003700:	f402 7500 	and.w	r5, r2, #512	; 0x200
 8003704:	680e      	ldr	r6, [r1, #0]
 8003706:	432b      	orrs	r3, r5
 8003708:	0c12      	lsrs	r2, r2, #16
 800370a:	6a65      	ldr	r5, [r4, #36]	; 0x24
 800370c:	f002 0204 	and.w	r2, r2, #4
 8003710:	4303      	orrs	r3, r0
 8003712:	432a      	orrs	r2, r5
 8003714:	f026 0640 	bic.w	r6, r6, #64	; 0x40
 8003718:	600e      	str	r6, [r1, #0]
 800371a:	600b      	str	r3, [r1, #0]
 800371c:	604a      	str	r2, [r1, #4]
 800371e:	69cb      	ldr	r3, [r1, #28]
 8003720:	2200      	movs	r2, #0
 8003722:	f423 6300 	bic.w	r3, r3, #2048	; 0x800
 8003726:	2501      	movs	r5, #1
 8003728:	61cb      	str	r3, [r1, #28]
 800372a:	4610      	mov	r0, r2
 800372c:	6562      	str	r2, [r4, #84]	; 0x54
 800372e:	f884 5051 	strb.w	r5, [r4, #81]	; 0x51
 8003732:	bd70      	pop	{r4, r5, r6, pc}
 8003734:	f880 1050 	strb.w	r1, [r0, #80]	; 0x50
 8003738:	f001 fd3c 	bl	80051b4 <HAL_SPI_MspInit>
 800373c:	6aa0      	ldr	r0, [r4, #40]	; 0x28
 800373e:	e7cd      	b.n	80036dc <HAL_SPI_Init+0x18>
 8003740:	2001      	movs	r0, #1
 8003742:	4770      	bx	lr

08003744 <HAL_TIM_Base_Init>:
 8003744:	2800      	cmp	r0, #0
 8003746:	d05c      	beq.n	8003802 <HAL_TIM_Base_Init+0xbe>
 8003748:	b5f8      	push	{r3, r4, r5, r6, r7, lr}
 800374a:	f890 303d 	ldrb.w	r3, [r0, #61]	; 0x3d
 800374e:	4604      	mov	r4, r0
 8003750:	f003 02ff 	and.w	r2, r3, #255	; 0xff
 8003754:	b3bb      	cbz	r3, 80037c6 <HAL_TIM_Base_Init+0x82>
 8003756:	6822      	ldr	r2, [r4, #0]
 8003758:	4e3a      	ldr	r6, [pc, #232]	; (8003844 <HAL_TIM_Base_Init+0x100>)
 800375a:	69a5      	ldr	r5, [r4, #24]
 800375c:	68e0      	ldr	r0, [r4, #12]
 800375e:	6861      	ldr	r1, [r4, #4]
 8003760:	2302      	movs	r3, #2
 8003762:	f884 303d 	strb.w	r3, [r4, #61]	; 0x3d
 8003766:	42b2      	cmp	r2, r6
 8003768:	6813      	ldr	r3, [r2, #0]
 800376a:	d04c      	beq.n	8003806 <HAL_TIM_Base_Init+0xc2>
 800376c:	f1b2 4f80 	cmp.w	r2, #1073741824	; 0x40000000
 8003770:	d058      	beq.n	8003824 <HAL_TIM_Base_Init+0xe0>
 8003772:	f5a6 467c 	sub.w	r6, r6, #64512	; 0xfc00
 8003776:	42b2      	cmp	r2, r6
 8003778:	d02a      	beq.n	80037d0 <HAL_TIM_Base_Init+0x8c>
 800377a:	f506 6680 	add.w	r6, r6, #1024	; 0x400
 800377e:	42b2      	cmp	r2, r6
 8003780:	d026      	beq.n	80037d0 <HAL_TIM_Base_Init+0x8c>
 8003782:	f506 6680 	add.w	r6, r6, #1024	; 0x400
 8003786:	42b2      	cmp	r2, r6
 8003788:	d022      	beq.n	80037d0 <HAL_TIM_Base_Init+0x8c>
 800378a:	f506 4678 	add.w	r6, r6, #63488	; 0xf800
 800378e:	42b2      	cmp	r2, r6
 8003790:	d01e      	beq.n	80037d0 <HAL_TIM_Base_Init+0x8c>
 8003792:	f506 5670 	add.w	r6, r6, #15360	; 0x3c00
 8003796:	42b2      	cmp	r2, r6
 8003798:	d013      	beq.n	80037c2 <HAL_TIM_Base_Init+0x7e>
 800379a:	f506 6680 	add.w	r6, r6, #1024	; 0x400
 800379e:	42b2      	cmp	r2, r6
 80037a0:	d00f      	beq.n	80037c2 <HAL_TIM_Base_Init+0x7e>
 80037a2:	f506 6680 	add.w	r6, r6, #1024	; 0x400
 80037a6:	42b2      	cmp	r2, r6
 80037a8:	d00b      	beq.n	80037c2 <HAL_TIM_Base_Init+0x7e>
 80037aa:	f5a6 3698 	sub.w	r6, r6, #77824	; 0x13000
 80037ae:	42b2      	cmp	r2, r6
 80037b0:	d007      	beq.n	80037c2 <HAL_TIM_Base_Init+0x7e>
 80037b2:	f506 6680 	add.w	r6, r6, #1024	; 0x400
 80037b6:	42b2      	cmp	r2, r6
 80037b8:	d003      	beq.n	80037c2 <HAL_TIM_Base_Init+0x7e>
 80037ba:	f506 6680 	add.w	r6, r6, #1024	; 0x400
 80037be:	42b2      	cmp	r2, r6
 80037c0:	d138      	bne.n	8003834 <HAL_TIM_Base_Init+0xf0>
 80037c2:	6926      	ldr	r6, [r4, #16]
 80037c4:	e033      	b.n	800382e <HAL_TIM_Base_Init+0xea>
 80037c6:	f880 203c 	strb.w	r2, [r0, #60]	; 0x3c
 80037ca:	f001 fd67 	bl	800529c <HAL_TIM_Base_MspInit>
 80037ce:	e7c2      	b.n	8003756 <HAL_TIM_Base_Init+0x12>
 80037d0:	68a6      	ldr	r6, [r4, #8]
 80037d2:	4f1d      	ldr	r7, [pc, #116]	; (8003848 <HAL_TIM_Base_Init+0x104>)
 80037d4:	f023 0370 	bic.w	r3, r3, #112	; 0x70
 80037d8:	4333      	orrs	r3, r6
 80037da:	6926      	ldr	r6, [r4, #16]
 80037dc:	f423 7340 	bic.w	r3, r3, #768	; 0x300
 80037e0:	4333      	orrs	r3, r6
 80037e2:	f023 0380 	bic.w	r3, r3, #128	; 0x80
 80037e6:	432b      	orrs	r3, r5
 80037e8:	42ba      	cmp	r2, r7
 80037ea:	6013      	str	r3, [r2, #0]
 80037ec:	62d0      	str	r0, [r2, #44]	; 0x2c
 80037ee:	6291      	str	r1, [r2, #40]	; 0x28
 80037f0:	d101      	bne.n	80037f6 <HAL_TIM_Base_Init+0xb2>
 80037f2:	6963      	ldr	r3, [r4, #20]
 80037f4:	6313      	str	r3, [r2, #48]	; 0x30
 80037f6:	2301      	movs	r3, #1
 80037f8:	6153      	str	r3, [r2, #20]
 80037fa:	2000      	movs	r0, #0
 80037fc:	f884 303d 	strb.w	r3, [r4, #61]	; 0x3d
 8003800:	bdf8      	pop	{r3, r4, r5, r6, r7, pc}
 8003802:	2001      	movs	r0, #1
 8003804:	4770      	bx	lr
 8003806:	68a7      	ldr	r7, [r4, #8]
 8003808:	6926      	ldr	r6, [r4, #16]
 800380a:	f023 0370 	bic.w	r3, r3, #112	; 0x70
 800380e:	433b      	orrs	r3, r7
 8003810:	f423 7340 	bic.w	r3, r3, #768	; 0x300
 8003814:	4333      	orrs	r3, r6
 8003816:	f023 0380 	bic.w	r3, r3, #128	; 0x80
 800381a:	432b      	orrs	r3, r5
 800381c:	6013      	str	r3, [r2, #0]
 800381e:	62d0      	str	r0, [r2, #44]	; 0x2c
 8003820:	6291      	str	r1, [r2, #40]	; 0x28
 8003822:	e7e6      	b.n	80037f2 <HAL_TIM_Base_Init+0xae>
 8003824:	68a7      	ldr	r7, [r4, #8]
 8003826:	6926      	ldr	r6, [r4, #16]
 8003828:	f023 0370 	bic.w	r3, r3, #112	; 0x70
 800382c:	433b      	orrs	r3, r7
 800382e:	f423 7340 	bic.w	r3, r3, #768	; 0x300
 8003832:	4333      	orrs	r3, r6
 8003834:	f023 0380 	bic.w	r3, r3, #128	; 0x80
 8003838:	432b      	orrs	r3, r5
 800383a:	6013      	str	r3, [r2, #0]
 800383c:	62d0      	str	r0, [r2, #44]	; 0x2c
 800383e:	6291      	str	r1, [r2, #40]	; 0x28
 8003840:	e7d9      	b.n	80037f6 <HAL_TIM_Base_Init+0xb2>
 8003842:	bf00      	nop
 8003844:	40010000 	.word	0x40010000
 8003848:	40010400 	.word	0x40010400

0800384c <HAL_TIM_Base_Start_IT>:
 800384c:	6803      	ldr	r3, [r0, #0]
 800384e:	68da      	ldr	r2, [r3, #12]
 8003850:	f042 0201 	orr.w	r2, r2, #1
 8003854:	60da      	str	r2, [r3, #12]
 8003856:	689a      	ldr	r2, [r3, #8]
 8003858:	f002 0207 	and.w	r2, r2, #7
 800385c:	2a06      	cmp	r2, #6
 800385e:	d003      	beq.n	8003868 <HAL_TIM_Base_Start_IT+0x1c>
 8003860:	681a      	ldr	r2, [r3, #0]
 8003862:	f042 0201 	orr.w	r2, r2, #1
 8003866:	601a      	str	r2, [r3, #0]
 8003868:	2000      	movs	r0, #0
 800386a:	4770      	bx	lr

0800386c <HAL_TIM_OC_DelayElapsedCallback>:
 800386c:	4770      	bx	lr
 800386e:	bf00      	nop

08003870 <HAL_TIM_IC_CaptureCallback>:
 8003870:	4770      	bx	lr
 8003872:	bf00      	nop

08003874 <HAL_TIM_PWM_PulseFinishedCallback>:
 8003874:	4770      	bx	lr
 8003876:	bf00      	nop

08003878 <HAL_TIM_TriggerCallback>:
 8003878:	4770      	bx	lr
 800387a:	bf00      	nop

0800387c <HAL_TIM_IRQHandler>:
 800387c:	6803      	ldr	r3, [r0, #0]
 800387e:	691a      	ldr	r2, [r3, #16]
 8003880:	0791      	lsls	r1, r2, #30
 8003882:	b510      	push	{r4, lr}
 8003884:	4604      	mov	r4, r0
 8003886:	d502      	bpl.n	800388e <HAL_TIM_IRQHandler+0x12>
 8003888:	68da      	ldr	r2, [r3, #12]
 800388a:	0792      	lsls	r2, r2, #30
 800388c:	d45f      	bmi.n	800394e <HAL_TIM_IRQHandler+0xd2>
 800388e:	691a      	ldr	r2, [r3, #16]
 8003890:	0750      	lsls	r0, r2, #29
 8003892:	d502      	bpl.n	800389a <HAL_TIM_IRQHandler+0x1e>
 8003894:	68da      	ldr	r2, [r3, #12]
 8003896:	0751      	lsls	r1, r2, #29
 8003898:	d446      	bmi.n	8003928 <HAL_TIM_IRQHandler+0xac>
 800389a:	691a      	ldr	r2, [r3, #16]
 800389c:	0712      	lsls	r2, r2, #28
 800389e:	d502      	bpl.n	80038a6 <HAL_TIM_IRQHandler+0x2a>
 80038a0:	68da      	ldr	r2, [r3, #12]
 80038a2:	0710      	lsls	r0, r2, #28
 80038a4:	d42e      	bmi.n	8003904 <HAL_TIM_IRQHandler+0x88>
 80038a6:	691a      	ldr	r2, [r3, #16]
 80038a8:	06d2      	lsls	r2, r2, #27
 80038aa:	d502      	bpl.n	80038b2 <HAL_TIM_IRQHandler+0x36>
 80038ac:	68da      	ldr	r2, [r3, #12]
 80038ae:	06d0      	lsls	r0, r2, #27
 80038b0:	d418      	bmi.n	80038e4 <HAL_TIM_IRQHandler+0x68>
 80038b2:	691a      	ldr	r2, [r3, #16]
 80038b4:	07d1      	lsls	r1, r2, #31
 80038b6:	d502      	bpl.n	80038be <HAL_TIM_IRQHandler+0x42>
 80038b8:	68da      	ldr	r2, [r3, #12]
 80038ba:	07d2      	lsls	r2, r2, #31
 80038bc:	d45d      	bmi.n	800397a <HAL_TIM_IRQHandler+0xfe>
 80038be:	691a      	ldr	r2, [r3, #16]
 80038c0:	0610      	lsls	r0, r2, #24
 80038c2:	d502      	bpl.n	80038ca <HAL_TIM_IRQHandler+0x4e>
 80038c4:	68da      	ldr	r2, [r3, #12]
 80038c6:	0611      	lsls	r1, r2, #24
 80038c8:	d45f      	bmi.n	800398a <HAL_TIM_IRQHandler+0x10e>
 80038ca:	691a      	ldr	r2, [r3, #16]
 80038cc:	0652      	lsls	r2, r2, #25
 80038ce:	d502      	bpl.n	80038d6 <HAL_TIM_IRQHandler+0x5a>
 80038d0:	68da      	ldr	r2, [r3, #12]
 80038d2:	0650      	lsls	r0, r2, #25
 80038d4:	d461      	bmi.n	800399a <HAL_TIM_IRQHandler+0x11e>
 80038d6:	691a      	ldr	r2, [r3, #16]
 80038d8:	0691      	lsls	r1, r2, #26
 80038da:	d502      	bpl.n	80038e2 <HAL_TIM_IRQHandler+0x66>
 80038dc:	68da      	ldr	r2, [r3, #12]
 80038de:	0692      	lsls	r2, r2, #26
 80038e0:	d443      	bmi.n	800396a <HAL_TIM_IRQHandler+0xee>
 80038e2:	bd10      	pop	{r4, pc}
 80038e4:	f06f 0210 	mvn.w	r2, #16
 80038e8:	611a      	str	r2, [r3, #16]
 80038ea:	69db      	ldr	r3, [r3, #28]
 80038ec:	2208      	movs	r2, #8
 80038ee:	f413 7f40 	tst.w	r3, #768	; 0x300
 80038f2:	7722      	strb	r2, [r4, #28]
 80038f4:	4620      	mov	r0, r4
 80038f6:	d064      	beq.n	80039c2 <HAL_TIM_IRQHandler+0x146>
 80038f8:	f7ff ffba 	bl	8003870 <HAL_TIM_IC_CaptureCallback>
 80038fc:	2200      	movs	r2, #0
 80038fe:	6823      	ldr	r3, [r4, #0]
 8003900:	7722      	strb	r2, [r4, #28]
 8003902:	e7d6      	b.n	80038b2 <HAL_TIM_IRQHandler+0x36>
 8003904:	f06f 0208 	mvn.w	r2, #8
 8003908:	611a      	str	r2, [r3, #16]
 800390a:	69db      	ldr	r3, [r3, #28]
 800390c:	2204      	movs	r2, #4
 800390e:	0799      	lsls	r1, r3, #30
 8003910:	7722      	strb	r2, [r4, #28]
 8003912:	4620      	mov	r0, r4
 8003914:	d152      	bne.n	80039bc <HAL_TIM_IRQHandler+0x140>
 8003916:	f7ff ffa9 	bl	800386c <HAL_TIM_OC_DelayElapsedCallback>
 800391a:	4620      	mov	r0, r4
 800391c:	f7ff ffaa 	bl	8003874 <HAL_TIM_PWM_PulseFinishedCallback>
 8003920:	2200      	movs	r2, #0
 8003922:	6823      	ldr	r3, [r4, #0]
 8003924:	7722      	strb	r2, [r4, #28]
 8003926:	e7be      	b.n	80038a6 <HAL_TIM_IRQHandler+0x2a>
 8003928:	f06f 0204 	mvn.w	r2, #4
 800392c:	611a      	str	r2, [r3, #16]
 800392e:	699b      	ldr	r3, [r3, #24]
 8003930:	2202      	movs	r2, #2
 8003932:	f413 7f40 	tst.w	r3, #768	; 0x300
 8003936:	7722      	strb	r2, [r4, #28]
 8003938:	4620      	mov	r0, r4
 800393a:	d13c      	bne.n	80039b6 <HAL_TIM_IRQHandler+0x13a>
 800393c:	f7ff ff96 	bl	800386c <HAL_TIM_OC_DelayElapsedCallback>
 8003940:	4620      	mov	r0, r4
 8003942:	f7ff ff97 	bl	8003874 <HAL_TIM_PWM_PulseFinishedCallback>
 8003946:	2200      	movs	r2, #0
 8003948:	6823      	ldr	r3, [r4, #0]
 800394a:	7722      	strb	r2, [r4, #28]
 800394c:	e7a5      	b.n	800389a <HAL_TIM_IRQHandler+0x1e>
 800394e:	f06f 0202 	mvn.w	r2, #2
 8003952:	611a      	str	r2, [r3, #16]
 8003954:	699b      	ldr	r3, [r3, #24]
 8003956:	2201      	movs	r2, #1
 8003958:	079b      	lsls	r3, r3, #30
 800395a:	7702      	strb	r2, [r0, #28]
 800395c:	d025      	beq.n	80039aa <HAL_TIM_IRQHandler+0x12e>
 800395e:	f7ff ff87 	bl	8003870 <HAL_TIM_IC_CaptureCallback>
 8003962:	2200      	movs	r2, #0
 8003964:	6823      	ldr	r3, [r4, #0]
 8003966:	7722      	strb	r2, [r4, #28]
 8003968:	e791      	b.n	800388e <HAL_TIM_IRQHandler+0x12>
 800396a:	f06f 0220 	mvn.w	r2, #32
 800396e:	4620      	mov	r0, r4
 8003970:	611a      	str	r2, [r3, #16]
 8003972:	e8bd 4010 	ldmia.w	sp!, {r4, lr}
 8003976:	f000 b82b 	b.w	80039d0 <HAL_TIMEx_CommutCallback>
 800397a:	f06f 0201 	mvn.w	r2, #1
 800397e:	611a      	str	r2, [r3, #16]
 8003980:	4620      	mov	r0, r4
 8003982:	f000 fc59 	bl	8004238 <HAL_TIM_PeriodElapsedCallback>
 8003986:	6823      	ldr	r3, [r4, #0]
 8003988:	e799      	b.n	80038be <HAL_TIM_IRQHandler+0x42>
 800398a:	f06f 0280 	mvn.w	r2, #128	; 0x80
 800398e:	611a      	str	r2, [r3, #16]
 8003990:	4620      	mov	r0, r4
 8003992:	f000 f81f 	bl	80039d4 <HAL_TIMEx_BreakCallback>
 8003996:	6823      	ldr	r3, [r4, #0]
 8003998:	e797      	b.n	80038ca <HAL_TIM_IRQHandler+0x4e>
 800399a:	f06f 0240 	mvn.w	r2, #64	; 0x40
 800399e:	611a      	str	r2, [r3, #16]
 80039a0:	4620      	mov	r0, r4
 80039a2:	f7ff ff69 	bl	8003878 <HAL_TIM_TriggerCallback>
 80039a6:	6823      	ldr	r3, [r4, #0]
 80039a8:	e795      	b.n	80038d6 <HAL_TIM_IRQHandler+0x5a>
 80039aa:	f7ff ff5f 	bl	800386c <HAL_TIM_OC_DelayElapsedCallback>
 80039ae:	4620      	mov	r0, r4
 80039b0:	f7ff ff60 	bl	8003874 <HAL_TIM_PWM_PulseFinishedCallback>
 80039b4:	e7d5      	b.n	8003962 <HAL_TIM_IRQHandler+0xe6>
 80039b6:	f7ff ff5b 	bl	8003870 <HAL_TIM_IC_CaptureCallback>
 80039ba:	e7c4      	b.n	8003946 <HAL_TIM_IRQHandler+0xca>
 80039bc:	f7ff ff58 	bl	8003870 <HAL_TIM_IC_CaptureCallback>
 80039c0:	e7ae      	b.n	8003920 <HAL_TIM_IRQHandler+0xa4>
 80039c2:	f7ff ff53 	bl	800386c <HAL_TIM_OC_DelayElapsedCallback>
 80039c6:	4620      	mov	r0, r4
 80039c8:	f7ff ff54 	bl	8003874 <HAL_TIM_PWM_PulseFinishedCallback>
 80039cc:	e796      	b.n	80038fc <HAL_TIM_IRQHandler+0x80>
 80039ce:	bf00      	nop

080039d0 <HAL_TIMEx_CommutCallback>:
 80039d0:	4770      	bx	lr
 80039d2:	bf00      	nop

080039d4 <HAL_TIMEx_BreakCallback>:
 80039d4:	4770      	bx	lr
 80039d6:	bf00      	nop

080039d8 <HAL_UART_Init>:
 80039d8:	2800      	cmp	r0, #0
 80039da:	f000 8104 	beq.w	8003be6 <HAL_UART_Init+0x20e>
 80039de:	e92d 43f8 	stmdb	sp!, {r3, r4, r5, r6, r7, r8, r9, lr}
 80039e2:	f890 3039 	ldrb.w	r3, [r0, #57]	; 0x39
 80039e6:	4604      	mov	r4, r0
 80039e8:	f003 02ff 	and.w	r2, r3, #255	; 0xff
 80039ec:	2b00      	cmp	r3, #0
 80039ee:	f000 80f5 	beq.w	8003bdc <HAL_UART_Init+0x204>
 80039f2:	6823      	ldr	r3, [r4, #0]
 80039f4:	6926      	ldr	r6, [r4, #16]
 80039f6:	2224      	movs	r2, #36	; 0x24
 80039f8:	f884 2039 	strb.w	r2, [r4, #57]	; 0x39
 80039fc:	68d8      	ldr	r0, [r3, #12]
 80039fe:	f420 5000 	bic.w	r0, r0, #8192	; 0x2000
 8003a02:	e9d4 2502 	ldrd	r2, r5, [r4, #8]
 8003a06:	60d8      	str	r0, [r3, #12]
 8003a08:	6919      	ldr	r1, [r3, #16]
 8003a0a:	69e0      	ldr	r0, [r4, #28]
 8003a0c:	f421 5140 	bic.w	r1, r1, #12288	; 0x3000
 8003a10:	4329      	orrs	r1, r5
 8003a12:	6119      	str	r1, [r3, #16]
 8003a14:	68d9      	ldr	r1, [r3, #12]
 8003a16:	6965      	ldr	r5, [r4, #20]
 8003a18:	4332      	orrs	r2, r6
 8003a1a:	f421 4116 	bic.w	r1, r1, #38400	; 0x9600
 8003a1e:	432a      	orrs	r2, r5
 8003a20:	f021 010c 	bic.w	r1, r1, #12
 8003a24:	4302      	orrs	r2, r0
 8003a26:	430a      	orrs	r2, r1
 8003a28:	60da      	str	r2, [r3, #12]
 8003a2a:	695a      	ldr	r2, [r3, #20]
 8003a2c:	69a1      	ldr	r1, [r4, #24]
 8003a2e:	f422 7240 	bic.w	r2, r2, #768	; 0x300
 8003a32:	430a      	orrs	r2, r1
 8003a34:	f5b0 4f00 	cmp.w	r0, #32768	; 0x8000
 8003a38:	615a      	str	r2, [r3, #20]
 8003a3a:	4aaa      	ldr	r2, [pc, #680]	; (8003ce4 <HAL_UART_Init+0x30c>)
 8003a3c:	d071      	beq.n	8003b22 <HAL_UART_Init+0x14a>
 8003a3e:	4293      	cmp	r3, r2
 8003a40:	f000 80d3 	beq.w	8003bea <HAL_UART_Init+0x212>
 8003a44:	f502 6280 	add.w	r2, r2, #1024	; 0x400
 8003a48:	4293      	cmp	r3, r2
 8003a4a:	f000 80ce 	beq.w	8003bea <HAL_UART_Init+0x212>
 8003a4e:	f7ff fd0b 	bl	8003468 <HAL_RCC_GetPCLK1Freq>
 8003a52:	4fa5      	ldr	r7, [pc, #660]	; (8003ce8 <HAL_UART_Init+0x310>)
 8003a54:	6863      	ldr	r3, [r4, #4]
 8003a56:	eb00 0080 	add.w	r0, r0, r0, lsl #2
 8003a5a:	eb00 0080 	add.w	r0, r0, r0, lsl #2
 8003a5e:	009b      	lsls	r3, r3, #2
 8003a60:	fbb0 f3f3 	udiv	r3, r0, r3
 8003a64:	fba7 2303 	umull	r2, r3, r7, r3
 8003a68:	095b      	lsrs	r3, r3, #5
 8003a6a:	011d      	lsls	r5, r3, #4
 8003a6c:	f7ff fcfc 	bl	8003468 <HAL_RCC_GetPCLK1Freq>
 8003a70:	6866      	ldr	r6, [r4, #4]
 8003a72:	eb00 0080 	add.w	r0, r0, r0, lsl #2
 8003a76:	eb00 0080 	add.w	r0, r0, r0, lsl #2
 8003a7a:	00b6      	lsls	r6, r6, #2
 8003a7c:	fbb0 f6f6 	udiv	r6, r0, r6
 8003a80:	f7ff fcf2 	bl	8003468 <HAL_RCC_GetPCLK1Freq>
 8003a84:	6863      	ldr	r3, [r4, #4]
 8003a86:	eb00 0080 	add.w	r0, r0, r0, lsl #2
 8003a8a:	eb00 0080 	add.w	r0, r0, r0, lsl #2
 8003a8e:	009b      	lsls	r3, r3, #2
 8003a90:	fbb0 f3f3 	udiv	r3, r0, r3
 8003a94:	fba7 2303 	umull	r2, r3, r7, r3
 8003a98:	095b      	lsrs	r3, r3, #5
 8003a9a:	f04f 0964 	mov.w	r9, #100	; 0x64
 8003a9e:	fb09 6313 	mls	r3, r9, r3, r6
 8003aa2:	011b      	lsls	r3, r3, #4
 8003aa4:	3332      	adds	r3, #50	; 0x32
 8003aa6:	fba7 2303 	umull	r2, r3, r7, r3
 8003aaa:	095b      	lsrs	r3, r3, #5
 8003aac:	f003 06f0 	and.w	r6, r3, #240	; 0xf0
 8003ab0:	f7ff fcda 	bl	8003468 <HAL_RCC_GetPCLK1Freq>
 8003ab4:	6862      	ldr	r2, [r4, #4]
 8003ab6:	eb00 0080 	add.w	r0, r0, r0, lsl #2
 8003aba:	eb00 0080 	add.w	r0, r0, r0, lsl #2
 8003abe:	0093      	lsls	r3, r2, #2
 8003ac0:	fbb0 f8f3 	udiv	r8, r0, r3
 8003ac4:	f7ff fcd0 	bl	8003468 <HAL_RCC_GetPCLK1Freq>
 8003ac8:	e9d4 2100 	ldrd	r2, r1, [r4]
 8003acc:	eb00 0080 	add.w	r0, r0, r0, lsl #2
 8003ad0:	008b      	lsls	r3, r1, #2
 8003ad2:	eb00 0080 	add.w	r0, r0, r0, lsl #2
 8003ad6:	fbb0 f3f3 	udiv	r3, r0, r3
 8003ada:	fba7 1303 	umull	r1, r3, r7, r3
 8003ade:	095b      	lsrs	r3, r3, #5
 8003ae0:	fb09 8313 	mls	r3, r9, r3, r8
 8003ae4:	011b      	lsls	r3, r3, #4
 8003ae6:	3332      	adds	r3, #50	; 0x32
 8003ae8:	fba7 1303 	umull	r1, r3, r7, r3
 8003aec:	f3c3 1343 	ubfx	r3, r3, #5, #4
 8003af0:	4333      	orrs	r3, r6
 8003af2:	442b      	add	r3, r5
 8003af4:	6093      	str	r3, [r2, #8]
 8003af6:	6913      	ldr	r3, [r2, #16]
 8003af8:	f423 4390 	bic.w	r3, r3, #18432	; 0x4800
 8003afc:	6113      	str	r3, [r2, #16]
 8003afe:	6953      	ldr	r3, [r2, #20]
 8003b00:	f023 032a 	bic.w	r3, r3, #42	; 0x2a
 8003b04:	6153      	str	r3, [r2, #20]
 8003b06:	68d3      	ldr	r3, [r2, #12]
 8003b08:	2500      	movs	r5, #0
 8003b0a:	2120      	movs	r1, #32
 8003b0c:	f443 5300 	orr.w	r3, r3, #8192	; 0x2000
 8003b10:	60d3      	str	r3, [r2, #12]
 8003b12:	4628      	mov	r0, r5
 8003b14:	63e5      	str	r5, [r4, #60]	; 0x3c
 8003b16:	f884 1039 	strb.w	r1, [r4, #57]	; 0x39
 8003b1a:	f884 103a 	strb.w	r1, [r4, #58]	; 0x3a
 8003b1e:	e8bd 83f8 	ldmia.w	sp!, {r3, r4, r5, r6, r7, r8, r9, pc}
 8003b22:	4293      	cmp	r3, r2
 8003b24:	f000 809f 	beq.w	8003c66 <HAL_UART_Init+0x28e>
 8003b28:	f502 6280 	add.w	r2, r2, #1024	; 0x400
 8003b2c:	4293      	cmp	r3, r2
 8003b2e:	f000 809a 	beq.w	8003c66 <HAL_UART_Init+0x28e>
 8003b32:	f7ff fc99 	bl	8003468 <HAL_RCC_GetPCLK1Freq>
 8003b36:	4f6c      	ldr	r7, [pc, #432]	; (8003ce8 <HAL_UART_Init+0x310>)
 8003b38:	6863      	ldr	r3, [r4, #4]
 8003b3a:	eb00 0080 	add.w	r0, r0, r0, lsl #2
 8003b3e:	eb00 0080 	add.w	r0, r0, r0, lsl #2
 8003b42:	005b      	lsls	r3, r3, #1
 8003b44:	fbb0 f3f3 	udiv	r3, r0, r3
 8003b48:	fba7 2303 	umull	r2, r3, r7, r3
 8003b4c:	095b      	lsrs	r3, r3, #5
 8003b4e:	011e      	lsls	r6, r3, #4
 8003b50:	f7ff fc8a 	bl	8003468 <HAL_RCC_GetPCLK1Freq>
 8003b54:	6865      	ldr	r5, [r4, #4]
 8003b56:	eb00 0080 	add.w	r0, r0, r0, lsl #2
 8003b5a:	eb00 0080 	add.w	r0, r0, r0, lsl #2
 8003b5e:	006d      	lsls	r5, r5, #1
 8003b60:	fbb0 f5f5 	udiv	r5, r0, r5
 8003b64:	f7ff fc80 	bl	8003468 <HAL_RCC_GetPCLK1Freq>
 8003b68:	6863      	ldr	r3, [r4, #4]
 8003b6a:	eb00 0080 	add.w	r0, r0, r0, lsl #2
 8003b6e:	eb00 0080 	add.w	r0, r0, r0, lsl #2
 8003b72:	005b      	lsls	r3, r3, #1
 8003b74:	fbb0 f3f3 	udiv	r3, r0, r3
 8003b78:	fba7 2303 	umull	r2, r3, r7, r3
 8003b7c:	095b      	lsrs	r3, r3, #5
 8003b7e:	f04f 0964 	mov.w	r9, #100	; 0x64
 8003b82:	fb09 5313 	mls	r3, r9, r3, r5
 8003b86:	00db      	lsls	r3, r3, #3
 8003b88:	3332      	adds	r3, #50	; 0x32
 8003b8a:	fba7 2303 	umull	r2, r3, r7, r3
 8003b8e:	091b      	lsrs	r3, r3, #4
 8003b90:	f403 75f8 	and.w	r5, r3, #496	; 0x1f0
 8003b94:	f7ff fc68 	bl	8003468 <HAL_RCC_GetPCLK1Freq>
 8003b98:	6862      	ldr	r2, [r4, #4]
 8003b9a:	eb00 0080 	add.w	r0, r0, r0, lsl #2
 8003b9e:	eb00 0080 	add.w	r0, r0, r0, lsl #2
 8003ba2:	0053      	lsls	r3, r2, #1
 8003ba4:	fbb0 f8f3 	udiv	r8, r0, r3
 8003ba8:	f7ff fc5e 	bl	8003468 <HAL_RCC_GetPCLK1Freq>
 8003bac:	e9d4 2100 	ldrd	r2, r1, [r4]
 8003bb0:	eb00 0080 	add.w	r0, r0, r0, lsl #2
 8003bb4:	004b      	lsls	r3, r1, #1
 8003bb6:	eb00 0080 	add.w	r0, r0, r0, lsl #2
 8003bba:	fbb0 f3f3 	udiv	r3, r0, r3
 8003bbe:	fba7 1303 	umull	r1, r3, r7, r3
 8003bc2:	095b      	lsrs	r3, r3, #5
 8003bc4:	fb09 8313 	mls	r3, r9, r3, r8
 8003bc8:	00db      	lsls	r3, r3, #3
 8003bca:	3332      	adds	r3, #50	; 0x32
 8003bcc:	fba7 1303 	umull	r1, r3, r7, r3
 8003bd0:	f3c3 1342 	ubfx	r3, r3, #5, #3
 8003bd4:	4433      	add	r3, r6
 8003bd6:	442b      	add	r3, r5
 8003bd8:	6093      	str	r3, [r2, #8]
 8003bda:	e78c      	b.n	8003af6 <HAL_UART_Init+0x11e>
 8003bdc:	f880 2038 	strb.w	r2, [r0, #56]	; 0x38
 8003be0:	f001 fba8 	bl	8005334 <HAL_UART_MspInit>
 8003be4:	e705      	b.n	80039f2 <HAL_UART_Init+0x1a>
 8003be6:	2001      	movs	r0, #1
 8003be8:	4770      	bx	lr
 8003bea:	f7ff fc4d 	bl	8003488 <HAL_RCC_GetPCLK2Freq>
 8003bee:	4f3e      	ldr	r7, [pc, #248]	; (8003ce8 <HAL_UART_Init+0x310>)
 8003bf0:	6863      	ldr	r3, [r4, #4]
 8003bf2:	eb00 0080 	add.w	r0, r0, r0, lsl #2
 8003bf6:	eb00 0080 	add.w	r0, r0, r0, lsl #2
 8003bfa:	009b      	lsls	r3, r3, #2
 8003bfc:	fbb0 f3f3 	udiv	r3, r0, r3
 8003c00:	fba7 2303 	umull	r2, r3, r7, r3
 8003c04:	095b      	lsrs	r3, r3, #5
 8003c06:	011d      	lsls	r5, r3, #4
 8003c08:	f7ff fc3e 	bl	8003488 <HAL_RCC_GetPCLK2Freq>
 8003c0c:	6866      	ldr	r6, [r4, #4]
 8003c0e:	eb00 0080 	add.w	r0, r0, r0, lsl #2
 8003c12:	eb00 0080 	add.w	r0, r0, r0, lsl #2
 8003c16:	00b6      	lsls	r6, r6, #2
 8003c18:	fbb0 f6f6 	udiv	r6, r0, r6
 8003c1c:	f7ff fc34 	bl	8003488 <HAL_RCC_GetPCLK2Freq>
 8003c20:	6863      	ldr	r3, [r4, #4]
 8003c22:	eb00 0080 	add.w	r0, r0, r0, lsl #2
 8003c26:	eb00 0080 	add.w	r0, r0, r0, lsl #2
 8003c2a:	009b      	lsls	r3, r3, #2
 8003c2c:	fbb0 f3f3 	udiv	r3, r0, r3
 8003c30:	fba7 2303 	umull	r2, r3, r7, r3
 8003c34:	f04f 0964 	mov.w	r9, #100	; 0x64
 8003c38:	095b      	lsrs	r3, r3, #5
 8003c3a:	fb09 6313 	mls	r3, r9, r3, r6
 8003c3e:	011b      	lsls	r3, r3, #4
 8003c40:	3332      	adds	r3, #50	; 0x32
 8003c42:	fba7 2303 	umull	r2, r3, r7, r3
 8003c46:	095b      	lsrs	r3, r3, #5
 8003c48:	f003 06f0 	and.w	r6, r3, #240	; 0xf0
 8003c4c:	f7ff fc1c 	bl	8003488 <HAL_RCC_GetPCLK2Freq>
 8003c50:	6862      	ldr	r2, [r4, #4]
 8003c52:	eb00 0080 	add.w	r0, r0, r0, lsl #2
 8003c56:	0093      	lsls	r3, r2, #2
 8003c58:	eb00 0080 	add.w	r0, r0, r0, lsl #2
 8003c5c:	fbb0 f8f3 	udiv	r8, r0, r3
 8003c60:	f7ff fc12 	bl	8003488 <HAL_RCC_GetPCLK2Freq>
 8003c64:	e730      	b.n	8003ac8 <HAL_UART_Init+0xf0>
 8003c66:	f7ff fc0f 	bl	8003488 <HAL_RCC_GetPCLK2Freq>
 8003c6a:	4f1f      	ldr	r7, [pc, #124]	; (8003ce8 <HAL_UART_Init+0x310>)
 8003c6c:	6863      	ldr	r3, [r4, #4]
 8003c6e:	eb00 0080 	add.w	r0, r0, r0, lsl #2
 8003c72:	eb00 0080 	add.w	r0, r0, r0, lsl #2
 8003c76:	005b      	lsls	r3, r3, #1
 8003c78:	fbb0 f3f3 	udiv	r3, r0, r3
 8003c7c:	fba7 2303 	umull	r2, r3, r7, r3
 8003c80:	095b      	lsrs	r3, r3, #5
 8003c82:	011e      	lsls	r6, r3, #4
 8003c84:	f7ff fc00 	bl	8003488 <HAL_RCC_GetPCLK2Freq>
 8003c88:	6865      	ldr	r5, [r4, #4]
 8003c8a:	eb00 0080 	add.w	r0, r0, r0, lsl #2
 8003c8e:	eb00 0080 	add.w	r0, r0, r0, lsl #2
 8003c92:	006d      	lsls	r5, r5, #1
 8003c94:	fbb0 f5f5 	udiv	r5, r0, r5
 8003c98:	f7ff fbf6 	bl	8003488 <HAL_RCC_GetPCLK2Freq>
 8003c9c:	6863      	ldr	r3, [r4, #4]
 8003c9e:	eb00 0080 	add.w	r0, r0, r0, lsl #2
 8003ca2:	eb00 0080 	add.w	r0, r0, r0, lsl #2
 8003ca6:	005b      	lsls	r3, r3, #1
 8003ca8:	fbb0 f3f3 	udiv	r3, r0, r3
 8003cac:	fba7 2303 	umull	r2, r3, r7, r3
 8003cb0:	f04f 0964 	mov.w	r9, #100	; 0x64
 8003cb4:	095b      	lsrs	r3, r3, #5
 8003cb6:	fb09 5313 	mls	r3, r9, r3, r5
 8003cba:	00db      	lsls	r3, r3, #3
 8003cbc:	3332      	adds	r3, #50	; 0x32
 8003cbe:	fba7 2303 	umull	r2, r3, r7, r3
 8003cc2:	091b      	lsrs	r3, r3, #4
 8003cc4:	f403 75f8 	and.w	r5, r3, #496	; 0x1f0
 8003cc8:	f7ff fbde 	bl	8003488 <HAL_RCC_GetPCLK2Freq>
 8003ccc:	6862      	ldr	r2, [r4, #4]
 8003cce:	eb00 0080 	add.w	r0, r0, r0, lsl #2
 8003cd2:	0053      	lsls	r3, r2, #1
 8003cd4:	eb00 0080 	add.w	r0, r0, r0, lsl #2
 8003cd8:	fbb0 f8f3 	udiv	r8, r0, r3
 8003cdc:	f7ff fbd4 	bl	8003488 <HAL_RCC_GetPCLK2Freq>
 8003ce0:	e764      	b.n	8003bac <HAL_UART_Init+0x1d4>
 8003ce2:	bf00      	nop
 8003ce4:	40011000 	.word	0x40011000
 8003ce8:	51eb851f 	.word	0x51eb851f

08003cec <HAL_UART_Transmit>:
 8003cec:	b5f0      	push	{r4, r5, r6, r7, lr}
 8003cee:	460e      	mov	r6, r1
 8003cf0:	f890 1039 	ldrb.w	r1, [r0, #57]	; 0x39
 8003cf4:	2920      	cmp	r1, #32
 8003cf6:	b083      	sub	sp, #12
 8003cf8:	d12d      	bne.n	8003d56 <HAL_UART_Transmit+0x6a>
 8003cfa:	2e00      	cmp	r6, #0
 8003cfc:	d02e      	beq.n	8003d5c <HAL_UART_Transmit+0x70>
 8003cfe:	9201      	str	r2, [sp, #4]
 8003d00:	b362      	cbz	r2, 8003d5c <HAL_UART_Transmit+0x70>
 8003d02:	461f      	mov	r7, r3
 8003d04:	f890 3038 	ldrb.w	r3, [r0, #56]	; 0x38
 8003d08:	2b01      	cmp	r3, #1
 8003d0a:	4604      	mov	r4, r0
 8003d0c:	d023      	beq.n	8003d56 <HAL_UART_Transmit+0x6a>
 8003d0e:	2300      	movs	r3, #0
 8003d10:	63c3      	str	r3, [r0, #60]	; 0x3c
 8003d12:	2101      	movs	r1, #1
 8003d14:	2321      	movs	r3, #33	; 0x21
 8003d16:	f880 1038 	strb.w	r1, [r0, #56]	; 0x38
 8003d1a:	f880 3039 	strb.w	r3, [r0, #57]	; 0x39
 8003d1e:	f7fd f901 	bl	8000f24 <HAL_GetTick>
 8003d22:	9a01      	ldr	r2, [sp, #4]
 8003d24:	84a2      	strh	r2, [r4, #36]	; 0x24
 8003d26:	84e2      	strh	r2, [r4, #38]	; 0x26
 8003d28:	6822      	ldr	r2, [r4, #0]
 8003d2a:	4605      	mov	r5, r0
 8003d2c:	8ce3      	ldrh	r3, [r4, #38]	; 0x26
 8003d2e:	b29b      	uxth	r3, r3
 8003d30:	2b00      	cmp	r3, #0
 8003d32:	d039      	beq.n	8003da8 <HAL_UART_Transmit+0xbc>
 8003d34:	8ce0      	ldrh	r0, [r4, #38]	; 0x26
 8003d36:	68a1      	ldr	r1, [r4, #8]
 8003d38:	3801      	subs	r0, #1
 8003d3a:	b280      	uxth	r0, r0
 8003d3c:	f5b1 5f80 	cmp.w	r1, #4096	; 0x1000
 8003d40:	84e0      	strh	r0, [r4, #38]	; 0x26
 8003d42:	d019      	beq.n	8003d78 <HAL_UART_Transmit+0x8c>
 8003d44:	1c78      	adds	r0, r7, #1
 8003d46:	d13b      	bne.n	8003dc0 <HAL_UART_Transmit+0xd4>
 8003d48:	6810      	ldr	r0, [r2, #0]
 8003d4a:	0601      	lsls	r1, r0, #24
 8003d4c:	d5fc      	bpl.n	8003d48 <HAL_UART_Transmit+0x5c>
 8003d4e:	7833      	ldrb	r3, [r6, #0]
 8003d50:	6053      	str	r3, [r2, #4]
 8003d52:	3601      	adds	r6, #1
 8003d54:	e7ea      	b.n	8003d2c <HAL_UART_Transmit+0x40>
 8003d56:	2002      	movs	r0, #2
 8003d58:	b003      	add	sp, #12
 8003d5a:	bdf0      	pop	{r4, r5, r6, r7, pc}
 8003d5c:	2001      	movs	r0, #1
 8003d5e:	b003      	add	sp, #12
 8003d60:	bdf0      	pop	{r4, r5, r6, r7, pc}
 8003d62:	6813      	ldr	r3, [r2, #0]
 8003d64:	061b      	lsls	r3, r3, #24
 8003d66:	d40c      	bmi.n	8003d82 <HAL_UART_Transmit+0x96>
 8003d68:	2f00      	cmp	r7, #0
 8003d6a:	d033      	beq.n	8003dd4 <HAL_UART_Transmit+0xe8>
 8003d6c:	f7fd f8da 	bl	8000f24 <HAL_GetTick>
 8003d70:	1b40      	subs	r0, r0, r5
 8003d72:	4287      	cmp	r7, r0
 8003d74:	6822      	ldr	r2, [r4, #0]
 8003d76:	d32d      	bcc.n	8003dd4 <HAL_UART_Transmit+0xe8>
 8003d78:	1c78      	adds	r0, r7, #1
 8003d7a:	d1f2      	bne.n	8003d62 <HAL_UART_Transmit+0x76>
 8003d7c:	6810      	ldr	r0, [r2, #0]
 8003d7e:	0601      	lsls	r1, r0, #24
 8003d80:	d5fc      	bpl.n	8003d7c <HAL_UART_Transmit+0x90>
 8003d82:	8833      	ldrh	r3, [r6, #0]
 8003d84:	6921      	ldr	r1, [r4, #16]
 8003d86:	f3c3 0308 	ubfx	r3, r3, #0, #9
 8003d8a:	6053      	str	r3, [r2, #4]
 8003d8c:	2900      	cmp	r1, #0
 8003d8e:	d1e0      	bne.n	8003d52 <HAL_UART_Transmit+0x66>
 8003d90:	3602      	adds	r6, #2
 8003d92:	e7cb      	b.n	8003d2c <HAL_UART_Transmit+0x40>
 8003d94:	6813      	ldr	r3, [r2, #0]
 8003d96:	065b      	lsls	r3, r3, #25
 8003d98:	d40b      	bmi.n	8003db2 <HAL_UART_Transmit+0xc6>
 8003d9a:	b1df      	cbz	r7, 8003dd4 <HAL_UART_Transmit+0xe8>
 8003d9c:	f7fd f8c2 	bl	8000f24 <HAL_GetTick>
 8003da0:	1b40      	subs	r0, r0, r5
 8003da2:	4287      	cmp	r7, r0
 8003da4:	6822      	ldr	r2, [r4, #0]
 8003da6:	d315      	bcc.n	8003dd4 <HAL_UART_Transmit+0xe8>
 8003da8:	1c78      	adds	r0, r7, #1
 8003daa:	d1f3      	bne.n	8003d94 <HAL_UART_Transmit+0xa8>
 8003dac:	6813      	ldr	r3, [r2, #0]
 8003dae:	0659      	lsls	r1, r3, #25
 8003db0:	d5fc      	bpl.n	8003dac <HAL_UART_Transmit+0xc0>
 8003db2:	2320      	movs	r3, #32
 8003db4:	2000      	movs	r0, #0
 8003db6:	f884 3039 	strb.w	r3, [r4, #57]	; 0x39
 8003dba:	f884 0038 	strb.w	r0, [r4, #56]	; 0x38
 8003dbe:	e7cb      	b.n	8003d58 <HAL_UART_Transmit+0x6c>
 8003dc0:	6813      	ldr	r3, [r2, #0]
 8003dc2:	061b      	lsls	r3, r3, #24
 8003dc4:	d4c3      	bmi.n	8003d4e <HAL_UART_Transmit+0x62>
 8003dc6:	b12f      	cbz	r7, 8003dd4 <HAL_UART_Transmit+0xe8>
 8003dc8:	f7fd f8ac 	bl	8000f24 <HAL_GetTick>
 8003dcc:	1b40      	subs	r0, r0, r5
 8003dce:	4287      	cmp	r7, r0
 8003dd0:	6822      	ldr	r2, [r4, #0]
 8003dd2:	d2b7      	bcs.n	8003d44 <HAL_UART_Transmit+0x58>
 8003dd4:	68d3      	ldr	r3, [r2, #12]
 8003dd6:	f423 73d0 	bic.w	r3, r3, #416	; 0x1a0
 8003dda:	60d3      	str	r3, [r2, #12]
 8003ddc:	6953      	ldr	r3, [r2, #20]
 8003dde:	2120      	movs	r1, #32
 8003de0:	f023 0301 	bic.w	r3, r3, #1
 8003de4:	2500      	movs	r5, #0
 8003de6:	2003      	movs	r0, #3
 8003de8:	6153      	str	r3, [r2, #20]
 8003dea:	f884 1039 	strb.w	r1, [r4, #57]	; 0x39
 8003dee:	f884 5038 	strb.w	r5, [r4, #56]	; 0x38
 8003df2:	f884 103a 	strb.w	r1, [r4, #58]	; 0x3a
 8003df6:	b003      	add	sp, #12
 8003df8:	bdf0      	pop	{r4, r5, r6, r7, pc}
 8003dfa:	bf00      	nop

08003dfc <MadgwickAHRSupdateIMU>:
 8003dfc:	4b93      	ldr	r3, [pc, #588]	; (800404c <MadgwickAHRSupdateIMU+0x250>)
 8003dfe:	ed93 7a01 	vldr	s14, [r3, #4]
 8003e02:	edd3 4a02 	vldr	s9, [r3, #8]
 8003e06:	edd3 6a00 	vldr	s13, [r3]
 8003e0a:	ed93 6a03 	vldr	s12, [r3, #12]
 8003e0e:	eef0 5a41 	vmov.f32	s11, s2
 8003e12:	eef0 7a60 	vmov.f32	s15, s1
 8003e16:	ee21 3a47 	vnmul.f32	s6, s2, s14
 8003e1a:	ee67 3a20 	vmul.f32	s7, s14, s1
 8003e1e:	ee20 1ae4 	vnmul.f32	s2, s1, s9
 8003e22:	ee64 0aa5 	vmul.f32	s1, s9, s11
 8003e26:	eea6 3aa7 	vfma.f32	s6, s13, s15
 8003e2a:	eee6 3aa5 	vfma.f32	s7, s13, s11
 8003e2e:	eea7 1a40 	vfms.f32	s2, s14, s0
 8003e32:	eee6 0a80 	vfma.f32	s1, s13, s0
 8003e36:	eeb1 5a46 	vneg.f32	s10, s12
 8003e3a:	eee5 0a27 	vfma.f32	s1, s10, s15
 8003e3e:	eea6 3a00 	vfma.f32	s6, s12, s0
 8003e42:	eee4 3ac0 	vfms.f32	s7, s9, s0
 8003e46:	eea5 1a25 	vfma.f32	s2, s10, s11
 8003e4a:	eef5 1a40 	vcmp.f32	s3, #0.0
 8003e4e:	eef6 7a00 	vmov.f32	s15, #96	; 0x3f000000  0.5
 8003e52:	eef1 fa10 	vmrs	APSR_nzcv, fpscr
 8003e56:	ed2d 8b0a 	vpush	{d8-d12}
 8003e5a:	ee23 3a27 	vmul.f32	s6, s6, s15
 8003e5e:	ee63 3aa7 	vmul.f32	s7, s7, s15
 8003e62:	ee21 1a27 	vmul.f32	s2, s2, s15
 8003e66:	ee60 0aa7 	vmul.f32	s1, s1, s15
 8003e6a:	d105      	bne.n	8003e78 <MadgwickAHRSupdateIMU+0x7c>
 8003e6c:	eeb5 2a40 	vcmp.f32	s4, #0.0
 8003e70:	eef1 fa10 	vmrs	APSR_nzcv, fpscr
 8003e74:	f000 80e2 	beq.w	800403c <MadgwickAHRSupdateIMU+0x240>
 8003e78:	ee62 7a02 	vmul.f32	s15, s4, s4
 8003e7c:	4a74      	ldr	r2, [pc, #464]	; (8004050 <MadgwickAHRSupdateIMU+0x254>)
 8003e7e:	4975      	ldr	r1, [pc, #468]	; (8004054 <MadgwickAHRSupdateIMU+0x258>)
 8003e80:	eee1 7aa1 	vfma.f32	s15, s3, s3
 8003e84:	eeb6 8a00 	vmov.f32	s16, #96	; 0x3f000000  0.5
 8003e88:	eee2 7aa2 	vfma.f32	s15, s5, s5
 8003e8c:	eeb7 0a08 	vmov.f32	s0, #120	; 0x3fc00000  1.5
 8003e90:	ee17 0a90 	vmov	r0, s15
 8003e94:	eba2 0060 	sub.w	r0, r2, r0, asr #1
 8003e98:	ee67 5a88 	vmul.f32	s11, s15, s16
 8003e9c:	ee07 0a90 	vmov	s15, r0
 8003ea0:	ee65 5aa7 	vmul.f32	s11, s11, s15
 8003ea4:	eeb0 5a40 	vmov.f32	s10, s0
 8003ea8:	eea7 5ae5 	vfms.f32	s10, s15, s11
 8003eac:	ee36 4a06 	vadd.f32	s8, s12, s12
 8003eb0:	ee65 7a27 	vmul.f32	s15, s10, s15
 8003eb4:	eef1 8a00 	vmov.f32	s17, #16	; 0x40800000  4.0
 8003eb8:	ee61 1aa7 	vmul.f32	s3, s3, s15
 8003ebc:	ee27 ba28 	vmul.f32	s22, s14, s17
 8003ec0:	ee26 9a06 	vmul.f32	s18, s12, s12
 8003ec4:	ee24 5a61 	vnmul.f32	s10, s8, s3
 8003ec8:	ee76 9aa6 	vadd.f32	s19, s13, s13
 8003ecc:	ee26 aaa6 	vmul.f32	s20, s13, s13
 8003ed0:	ee61 5aa9 	vmul.f32	s11, s3, s19
 8003ed4:	ee2a aa28 	vmul.f32	s20, s20, s17
 8003ed8:	eeab 5a09 	vfma.f32	s10, s22, s18
 8003edc:	eee4 5a8a 	vfma.f32	s11, s9, s20
 8003ee0:	eea7 5a0a 	vfma.f32	s10, s14, s20
 8003ee4:	ee24 aaa8 	vmul.f32	s20, s9, s17
 8003ee8:	ee27 2ac2 	vnmul.f32	s4, s15, s4
 8003eec:	eeea 5a09 	vfma.f32	s11, s20, s18
 8003ef0:	eea2 5a29 	vfma.f32	s10, s4, s19
 8003ef4:	eee2 5a04 	vfma.f32	s11, s4, s8
 8003ef8:	eef2 ba00 	vmov.f32	s23, #32	; 0x41000000  8.0
 8003efc:	ee27 9a07 	vmul.f32	s18, s14, s14
 8003f00:	ee67 ca2b 	vmul.f32	s25, s14, s23
 8003f04:	ee35 5a4b 	vsub.f32	s10, s10, s22
 8003f08:	ee74 9aa4 	vadd.f32	s19, s9, s9
 8003f0c:	eeac 5a89 	vfma.f32	s10, s25, s18
 8003f10:	ee64 baab 	vmul.f32	s23, s9, s23
 8003f14:	ee75 5aca 	vsub.f32	s11, s11, s20
 8003f18:	ee64 aaa4 	vmul.f32	s21, s9, s9
 8003f1c:	ee26 caa8 	vmul.f32	s24, s13, s17
 8003f20:	ee21 4aa9 	vmul.f32	s8, s3, s19
 8003f24:	eeeb 5a89 	vfma.f32	s11, s23, s18
 8003f28:	eeac 4a2a 	vfma.f32	s8, s24, s21
 8003f2c:	eeac 5aaa 	vfma.f32	s10, s25, s21
 8003f30:	ee62 7aa7 	vmul.f32	s15, s5, s15
 8003f34:	eeeb 5aaa 	vfma.f32	s11, s23, s21
 8003f38:	ee77 2a07 	vadd.f32	s5, s14, s14
 8003f3c:	eeac 4a09 	vfma.f32	s8, s24, s18
 8003f40:	eea7 5a8b 	vfma.f32	s10, s15, s22
 8003f44:	ee29 9a28 	vmul.f32	s18, s18, s17
 8003f48:	ee62 1ae1 	vnmul.f32	s3, s5, s3
 8003f4c:	eee7 5a8a 	vfma.f32	s11, s15, s20
 8003f50:	eea2 4a22 	vfma.f32	s8, s4, s5
 8003f54:	eee6 1a09 	vfma.f32	s3, s12, s18
 8003f58:	ee25 9a05 	vmul.f32	s18, s10, s10
 8003f5c:	ee6a 8aa8 	vmul.f32	s17, s21, s17
 8003f60:	eef0 7a65 	vmov.f32	s15, s11
 8003f64:	eef0 5a49 	vmov.f32	s11, s18
 8003f68:	eee4 5a04 	vfma.f32	s11, s8, s8
 8003f6c:	eee6 1a28 	vfma.f32	s3, s12, s17
 8003f70:	eee7 5aa7 	vfma.f32	s11, s15, s15
 8003f74:	eee2 1a29 	vfma.f32	s3, s4, s19
 8003f78:	ed91 9a00 	vldr	s18, [r1]
 8003f7c:	edd1 8a00 	vldr	s17, [r1]
 8003f80:	ed91 2a00 	vldr	s4, [r1]
 8003f84:	edd1 2a00 	vldr	s5, [r1]
 8003f88:	eee1 5aa1 	vfma.f32	s11, s3, s3
 8003f8c:	ee15 1a90 	vmov	r1, s11
 8003f90:	eba2 0261 	sub.w	r2, r2, r1, asr #1
 8003f94:	ee25 8a88 	vmul.f32	s16, s11, s16
 8003f98:	ee05 2a90 	vmov	s11, r2
 8003f9c:	ee28 8a25 	vmul.f32	s16, s16, s11
 8003fa0:	eea5 0ac8 	vfms.f32	s0, s11, s16
 8003fa4:	ee20 0a25 	vmul.f32	s0, s0, s11
 8003fa8:	ee24 4a00 	vmul.f32	s8, s8, s0
 8003fac:	ee25 5a00 	vmul.f32	s10, s10, s0
 8003fb0:	ee67 7a80 	vmul.f32	s15, s15, s0
 8003fb4:	ee61 1a80 	vmul.f32	s3, s3, s0
 8003fb8:	eea9 1a44 	vfms.f32	s2, s18, s8
 8003fbc:	eee8 0ac5 	vfms.f32	s1, s17, s10
 8003fc0:	eea2 3a67 	vfms.f32	s6, s4, s15
 8003fc4:	eee2 3ae1 	vfms.f32	s7, s5, s3
 8003fc8:	4a21      	ldr	r2, [pc, #132]	; (8004050 <MadgwickAHRSupdateIMU+0x254>)
 8003fca:	eddf 5a23 	vldr	s11, [pc, #140]	; 8004058 <MadgwickAHRSupdateIMU+0x25c>
 8003fce:	eea0 7aa5 	vfma.f32	s14, s1, s11
 8003fd2:	ecbd 8b0a 	vpop	{d8-d12}
 8003fd6:	eee1 6a25 	vfma.f32	s13, s2, s11
 8003fda:	ee27 5a07 	vmul.f32	s10, s14, s14
 8003fde:	eef0 7a64 	vmov.f32	s15, s9
 8003fe2:	eee3 7a25 	vfma.f32	s15, s6, s11
 8003fe6:	eea6 5aa6 	vfma.f32	s10, s13, s13
 8003fea:	eea3 6aa5 	vfma.f32	s12, s7, s11
 8003fee:	eea7 5aa7 	vfma.f32	s10, s15, s15
 8003ff2:	eef6 4a00 	vmov.f32	s9, #96	; 0x3f000000  0.5
 8003ff6:	eea6 5a06 	vfma.f32	s10, s12, s12
 8003ffa:	eef7 5a08 	vmov.f32	s11, #120	; 0x3fc00000  1.5
 8003ffe:	ee15 1a10 	vmov	r1, s10
 8004002:	eba2 0261 	sub.w	r2, r2, r1, asr #1
 8004006:	ee65 4a24 	vmul.f32	s9, s10, s9
 800400a:	ee05 2a10 	vmov	s10, r2
 800400e:	ee64 4a85 	vmul.f32	s9, s9, s10
 8004012:	eee5 5a64 	vfms.f32	s11, s10, s9
 8004016:	ee65 5a85 	vmul.f32	s11, s11, s10
 800401a:	ee66 6aa5 	vmul.f32	s13, s13, s11
 800401e:	ee27 7a25 	vmul.f32	s14, s14, s11
 8004022:	ee67 7aa5 	vmul.f32	s15, s15, s11
 8004026:	ee26 6a25 	vmul.f32	s12, s12, s11
 800402a:	edc3 6a00 	vstr	s13, [r3]
 800402e:	ed83 7a01 	vstr	s14, [r3, #4]
 8004032:	edc3 7a02 	vstr	s15, [r3, #8]
 8004036:	ed83 6a03 	vstr	s12, [r3, #12]
 800403a:	4770      	bx	lr
 800403c:	eef5 2a40 	vcmp.f32	s5, #0.0
 8004040:	eef1 fa10 	vmrs	APSR_nzcv, fpscr
 8004044:	f47f af18 	bne.w	8003e78 <MadgwickAHRSupdateIMU+0x7c>
 8004048:	e7be      	b.n	8003fc8 <MadgwickAHRSupdateIMU+0x1cc>
 800404a:	bf00      	nop
 800404c:	200000b4 	.word	0x200000b4
 8004050:	5f3759df 	.word	0x5f3759df
 8004054:	20000008 	.word	0x20000008
 8004058:	3a83126f 	.word	0x3a83126f

0800405c <led2_t>:
 800405c:	2140      	movs	r1, #64	; 0x40
 800405e:	4801      	ldr	r0, [pc, #4]	; (8004064 <led2_t+0x8>)
 8004060:	f7fd bb3a 	b.w	80016d8 <HAL_GPIO_TogglePin>
 8004064:	40020000 	.word	0x40020000

08004068 <led3_t>:
 8004068:	2180      	movs	r1, #128	; 0x80
 800406a:	4801      	ldr	r0, [pc, #4]	; (8004070 <led3_t+0x8>)
 800406c:	f7fd bb34 	b.w	80016d8 <HAL_GPIO_TogglePin>
 8004070:	40020000 	.word	0x40020000

08004074 <leds_reset>:
 8004074:	b510      	push	{r4, lr}
 8004076:	4c06      	ldr	r4, [pc, #24]	; (8004090 <leds_reset+0x1c>)
 8004078:	2201      	movs	r2, #1
 800407a:	4620      	mov	r0, r4
 800407c:	2140      	movs	r1, #64	; 0x40
 800407e:	f7fd fb27 	bl	80016d0 <HAL_GPIO_WritePin>
 8004082:	4620      	mov	r0, r4
 8004084:	2201      	movs	r2, #1
 8004086:	2180      	movs	r1, #128	; 0x80
 8004088:	e8bd 4010 	ldmia.w	sp!, {r4, lr}
 800408c:	f7fd bb20 	b.w	80016d0 <HAL_GPIO_WritePin>
 8004090:	40020000 	.word	0x40020000

08004094 <blink>:
 8004094:	b570      	push	{r4, r5, r6, lr}
 8004096:	2201      	movs	r2, #1
 8004098:	4606      	mov	r6, r0
 800409a:	2140      	movs	r1, #64	; 0x40
 800409c:	4814      	ldr	r0, [pc, #80]	; (80040f0 <blink+0x5c>)
 800409e:	f7fd fb17 	bl	80016d0 <HAL_GPIO_WritePin>
 80040a2:	2201      	movs	r2, #1
 80040a4:	2180      	movs	r1, #128	; 0x80
 80040a6:	4812      	ldr	r0, [pc, #72]	; (80040f0 <blink+0x5c>)
 80040a8:	f7fd fb12 	bl	80016d0 <HAL_GPIO_WritePin>
 80040ac:	b1fe      	cbz	r6, 80040ee <blink+0x5a>
 80040ae:	4d10      	ldr	r5, [pc, #64]	; (80040f0 <blink+0x5c>)
 80040b0:	2400      	movs	r4, #0
 80040b2:	2200      	movs	r2, #0
 80040b4:	2140      	movs	r1, #64	; 0x40
 80040b6:	4628      	mov	r0, r5
 80040b8:	f7fd fb0a 	bl	80016d0 <HAL_GPIO_WritePin>
 80040bc:	2200      	movs	r2, #0
 80040be:	2180      	movs	r1, #128	; 0x80
 80040c0:	4628      	mov	r0, r5
 80040c2:	f7fd fb05 	bl	80016d0 <HAL_GPIO_WritePin>
 80040c6:	20fa      	movs	r0, #250	; 0xfa
 80040c8:	f7fc ff32 	bl	8000f30 <HAL_Delay>
 80040cc:	2201      	movs	r2, #1
 80040ce:	2140      	movs	r1, #64	; 0x40
 80040d0:	4628      	mov	r0, r5
 80040d2:	f7fd fafd 	bl	80016d0 <HAL_GPIO_WritePin>
 80040d6:	3401      	adds	r4, #1
 80040d8:	2201      	movs	r2, #1
 80040da:	2180      	movs	r1, #128	; 0x80
 80040dc:	4628      	mov	r0, r5
 80040de:	f7fd faf7 	bl	80016d0 <HAL_GPIO_WritePin>
 80040e2:	b2e4      	uxtb	r4, r4
 80040e4:	20fa      	movs	r0, #250	; 0xfa
 80040e6:	f7fc ff23 	bl	8000f30 <HAL_Delay>
 80040ea:	42a6      	cmp	r6, r4
 80040ec:	d1e1      	bne.n	80040b2 <blink+0x1e>
 80040ee:	bd70      	pop	{r4, r5, r6, pc}
 80040f0:	40020000 	.word	0x40020000

080040f4 <print_uart>:
 80040f4:	4770      	bx	lr
 80040f6:	bf00      	nop

080040f8 <yaw>:
 80040f8:	f200 53dc 	addw	r3, r0, #1500	; 0x5dc
 80040fc:	b29b      	uxth	r3, r3
 80040fe:	4a09      	ldr	r2, [pc, #36]	; (8004124 <yaw+0x2c>)
 8004100:	f5b3 7f7a 	cmp.w	r3, #1000	; 0x3e8
 8004104:	8093      	strh	r3, [r2, #4]
 8004106:	d908      	bls.n	800411a <yaw+0x22>
 8004108:	8813      	ldrh	r3, [r2, #0]
 800410a:	f5b3 6ffa 	cmp.w	r3, #2000	; 0x7d0
 800410e:	d303      	bcc.n	8004118 <yaw+0x20>
 8004110:	f44f 63fa 	mov.w	r3, #2000	; 0x7d0
 8004114:	8093      	strh	r3, [r2, #4]
 8004116:	2000      	movs	r0, #0
 8004118:	4770      	bx	lr
 800411a:	f44f 737a 	mov.w	r3, #1000	; 0x3e8
 800411e:	8093      	strh	r3, [r2, #4]
 8004120:	2000      	movs	r0, #0
 8004122:	4770      	bx	lr
 8004124:	200000d4 	.word	0x200000d4

08004128 <center_off>:
 8004128:	4b04      	ldr	r3, [pc, #16]	; (800413c <center_off+0x14>)
 800412a:	4a05      	ldr	r2, [pc, #20]	; (8004140 <center_off+0x18>)
 800412c:	4905      	ldr	r1, [pc, #20]	; (8004144 <center_off+0x1c>)
 800412e:	601a      	str	r2, [r3, #0]
 8004130:	f240 52dc 	movw	r2, #1500	; 0x5dc
 8004134:	6059      	str	r1, [r3, #4]
 8004136:	811a      	strh	r2, [r3, #8]
 8004138:	4770      	bx	lr
 800413a:	bf00      	nop
 800413c:	200000d4 	.word	0x200000d4
 8004140:	05dc03e8 	.word	0x05dc03e8
 8004144:	05dc05dc 	.word	0x05dc05dc

08004148 <pid_yaw>:
 8004148:	b5f0      	push	{r4, r5, r6, r7, lr}
 800414a:	ed2d 8b02 	vpush	{d8}
 800414e:	b08d      	sub	sp, #52	; 0x34
 8004150:	2300      	movs	r3, #0
 8004152:	4669      	mov	r1, sp
 8004154:	f04f 547e 	mov.w	r4, #1065353216	; 0x3f800000
 8004158:	aa04      	add	r2, sp, #16
 800415a:	4831      	ldr	r0, [pc, #196]	; (8004220 <pid_yaw+0xd8>)
 800415c:	9300      	str	r3, [sp, #0]
 800415e:	9302      	str	r3, [sp, #8]
 8004160:	9303      	str	r3, [sp, #12]
 8004162:	9401      	str	r4, [sp, #4]
 8004164:	4d2f      	ldr	r5, [pc, #188]	; (8004224 <pid_yaw+0xdc>)
 8004166:	4c30      	ldr	r4, [pc, #192]	; (8004228 <pid_yaw+0xe0>)
 8004168:	f000 ff0a 	bl	8004f80 <quat_qpq>
 800416c:	aa08      	add	r2, sp, #32
 800416e:	4669      	mov	r1, sp
 8004170:	482e      	ldr	r0, [pc, #184]	; (800422c <pid_yaw+0xe4>)
 8004172:	f000 ff05 	bl	8004f80 <quat_qpq>
 8004176:	eddd 7a05 	vldr	s15, [sp, #20]
 800417a:	ed9d 8a09 	vldr	s16, [sp, #36]	; 0x24
 800417e:	6828      	ldr	r0, [r5, #0]
 8004180:	edd4 8a00 	vldr	s17, [r4]
 8004184:	ee38 8a67 	vsub.f32	s16, s16, s15
 8004188:	f7fc f982 	bl	8000490 <__aeabi_f2d>
 800418c:	4606      	mov	r6, r0
 800418e:	ee18 0a10 	vmov	r0, s16
 8004192:	460f      	mov	r7, r1
 8004194:	f7fc f97c 	bl	8000490 <__aeabi_f2d>
 8004198:	a31f      	add	r3, pc, #124	; (adr r3, 8004218 <pid_yaw+0xd0>)
 800419a:	e9d3 2300 	ldrd	r2, r3, [r3]
 800419e:	f7fc f9cf 	bl	8000540 <__aeabi_dmul>
 80041a2:	4602      	mov	r2, r0
 80041a4:	460b      	mov	r3, r1
 80041a6:	4630      	mov	r0, r6
 80041a8:	4639      	mov	r1, r7
 80041aa:	f7fc f813 	bl	80001d4 <__adddf3>
 80041ae:	f7fc fc9f 	bl	8000af0 <__aeabi_d2f>
 80041b2:	ed94 6a01 	vldr	s12, [r4, #4]
 80041b6:	4b1e      	ldr	r3, [pc, #120]	; (8004230 <pid_yaw+0xe8>)
 80041b8:	edd4 6a02 	vldr	s13, [r4, #8]
 80041bc:	ed93 7a00 	vldr	s14, [r3]
 80041c0:	ed83 8a00 	vstr	s16, [r3]
 80041c4:	ee07 0a90 	vmov	s15, r0
 80041c8:	ee67 7a86 	vmul.f32	s15, s15, s12
 80041cc:	ee38 7a47 	vsub.f32	s14, s16, s14
 80041d0:	eee8 7a88 	vfma.f32	s15, s17, s16
 80041d4:	4a17      	ldr	r2, [pc, #92]	; (8004234 <pid_yaw+0xec>)
 80041d6:	6028      	str	r0, [r5, #0]
 80041d8:	eee7 7a26 	vfma.f32	s15, s14, s13
 80041dc:	eefd 7ae7 	vcvt.s32.f32	s15, s15
 80041e0:	ee17 3a90 	vmov	r3, s15
 80041e4:	f203 53dc 	addw	r3, r3, #1500	; 0x5dc
 80041e8:	b29b      	uxth	r3, r3
 80041ea:	f5b3 7f7a 	cmp.w	r3, #1000	; 0x3e8
 80041ee:	8093      	strh	r3, [r2, #4]
 80041f0:	d806      	bhi.n	8004200 <pid_yaw+0xb8>
 80041f2:	f44f 737a 	mov.w	r3, #1000	; 0x3e8
 80041f6:	8093      	strh	r3, [r2, #4]
 80041f8:	b00d      	add	sp, #52	; 0x34
 80041fa:	ecbd 8b02 	vpop	{d8}
 80041fe:	bdf0      	pop	{r4, r5, r6, r7, pc}
 8004200:	8813      	ldrh	r3, [r2, #0]
 8004202:	f5b3 6ffa 	cmp.w	r3, #2000	; 0x7d0
 8004206:	bf24      	itt	cs
 8004208:	f44f 63fa 	movcs.w	r3, #2000	; 0x7d0
 800420c:	8093      	strhcs	r3, [r2, #4]
 800420e:	b00d      	add	sp, #52	; 0x34
 8004210:	ecbd 8b02 	vpop	{d8}
 8004214:	bdf0      	pop	{r4, r5, r6, r7, pc}
 8004216:	bf00      	nop
 8004218:	d2f1a9fc 	.word	0xd2f1a9fc
 800421c:	3f50624d 	.word	0x3f50624d
 8004220:	200000b4 	.word	0x200000b4
 8004224:	2000009c 	.word	0x2000009c
 8004228:	20000108 	.word	0x20000108
 800422c:	200000c4 	.word	0x200000c4
 8004230:	20000098 	.word	0x20000098
 8004234:	200000d4 	.word	0x200000d4

08004238 <HAL_TIM_PeriodElapsedCallback>:
 8004238:	4a5a      	ldr	r2, [pc, #360]	; (80043a4 <HAL_TIM_PeriodElapsedCallback+0x16c>)
 800423a:	6803      	ldr	r3, [r0, #0]
 800423c:	4293      	cmp	r3, r2
 800423e:	b570      	push	{r4, r5, r6, lr}
 8004240:	4605      	mov	r5, r0
 8004242:	d03c      	beq.n	80042be <HAL_TIM_PeriodElapsedCallback+0x86>
 8004244:	4a58      	ldr	r2, [pc, #352]	; (80043a8 <HAL_TIM_PeriodElapsedCallback+0x170>)
 8004246:	4293      	cmp	r3, r2
 8004248:	d000      	beq.n	800424c <HAL_TIM_PeriodElapsedCallback+0x14>
 800424a:	bd70      	pop	{r4, r5, r6, pc}
 800424c:	2200      	movs	r2, #0
 800424e:	f44f 7180 	mov.w	r1, #256	; 0x100
 8004252:	4856      	ldr	r0, [pc, #344]	; (80043ac <HAL_TIM_PeriodElapsedCallback+0x174>)
 8004254:	4c56      	ldr	r4, [pc, #344]	; (80043b0 <HAL_TIM_PeriodElapsedCallback+0x178>)
 8004256:	f7fd fa3b 	bl	80016d0 <HAL_GPIO_WritePin>
 800425a:	2200      	movs	r2, #0
 800425c:	f44f 7100 	mov.w	r1, #512	; 0x200
 8004260:	4852      	ldr	r0, [pc, #328]	; (80043ac <HAL_TIM_PeriodElapsedCallback+0x174>)
 8004262:	f7fd fa35 	bl	80016d0 <HAL_GPIO_WritePin>
 8004266:	2200      	movs	r2, #0
 8004268:	f44f 6180 	mov.w	r1, #1024	; 0x400
 800426c:	484f      	ldr	r0, [pc, #316]	; (80043ac <HAL_TIM_PeriodElapsedCallback+0x174>)
 800426e:	f7fd fa2f 	bl	80016d0 <HAL_GPIO_WritePin>
 8004272:	2200      	movs	r2, #0
 8004274:	f44f 6100 	mov.w	r1, #2048	; 0x800
 8004278:	484c      	ldr	r0, [pc, #304]	; (80043ac <HAL_TIM_PeriodElapsedCallback+0x174>)
 800427a:	f7fd fa29 	bl	80016d0 <HAL_GPIO_WritePin>
 800427e:	2200      	movs	r2, #0
 8004280:	f44f 5180 	mov.w	r1, #4096	; 0x1000
 8004284:	4849      	ldr	r0, [pc, #292]	; (80043ac <HAL_TIM_PeriodElapsedCallback+0x174>)
 8004286:	f7fd fa23 	bl	80016d0 <HAL_GPIO_WritePin>
 800428a:	7823      	ldrb	r3, [r4, #0]
 800428c:	2b04      	cmp	r3, #4
 800428e:	d80f      	bhi.n	80042b0 <HAL_TIM_PeriodElapsedCallback+0x78>
 8004290:	e8df f003 	tbb	[pc, r3]
 8004294:	5864707c 	.word	0x5864707c
 8004298:	03          	.byte	0x03
 8004299:	00          	.byte	0x00
 800429a:	2201      	movs	r2, #1
 800429c:	f44f 5180 	mov.w	r1, #4096	; 0x1000
 80042a0:	4842      	ldr	r0, [pc, #264]	; (80043ac <HAL_TIM_PeriodElapsedCallback+0x174>)
 80042a2:	f7fd fa15 	bl	80016d0 <HAL_GPIO_WritePin>
 80042a6:	4b43      	ldr	r3, [pc, #268]	; (80043b4 <HAL_TIM_PeriodElapsedCallback+0x17c>)
 80042a8:	682a      	ldr	r2, [r5, #0]
 80042aa:	8919      	ldrh	r1, [r3, #8]
 80042ac:	7823      	ldrb	r3, [r4, #0]
 80042ae:	62d1      	str	r1, [r2, #44]	; 0x2c
 80042b0:	3301      	adds	r3, #1
 80042b2:	b2db      	uxtb	r3, r3
 80042b4:	2b04      	cmp	r3, #4
 80042b6:	bf88      	it	hi
 80042b8:	2300      	movhi	r3, #0
 80042ba:	7023      	strb	r3, [r4, #0]
 80042bc:	bd70      	pop	{r4, r5, r6, pc}
 80042be:	4c3e      	ldr	r4, [pc, #248]	; (80043b8 <HAL_TIM_PeriodElapsedCallback+0x180>)
 80042c0:	4620      	mov	r0, r4
 80042c2:	f000 fe3d 	bl	8004f40 <mpu_get_all_dma>
 80042c6:	493d      	ldr	r1, [pc, #244]	; (80043bc <HAL_TIM_PeriodElapsedCallback+0x184>)
 80042c8:	4a3d      	ldr	r2, [pc, #244]	; (80043c0 <HAL_TIM_PeriodElapsedCallback+0x188>)
 80042ca:	784e      	ldrb	r6, [r1, #1]
 80042cc:	780b      	ldrb	r3, [r1, #0]
 80042ce:	7888      	ldrb	r0, [r1, #2]
 80042d0:	4433      	add	r3, r6
 80042d2:	78ce      	ldrb	r6, [r1, #3]
 80042d4:	4403      	add	r3, r0
 80042d6:	7908      	ldrb	r0, [r1, #4]
 80042d8:	4433      	add	r3, r6
 80042da:	794e      	ldrb	r6, [r1, #5]
 80042dc:	4403      	add	r3, r0
 80042de:	7988      	ldrb	r0, [r1, #6]
 80042e0:	4433      	add	r3, r6
 80042e2:	79ce      	ldrb	r6, [r1, #7]
 80042e4:	4403      	add	r3, r0
 80042e6:	7a08      	ldrb	r0, [r1, #8]
 80042e8:	4433      	add	r3, r6
 80042ea:	7a4e      	ldrb	r6, [r1, #9]
 80042ec:	4403      	add	r3, r0
 80042ee:	7a88      	ldrb	r0, [r1, #10]
 80042f0:	4433      	add	r3, r6
 80042f2:	7ace      	ldrb	r6, [r1, #11]
 80042f4:	fa10 f383 	uxtah	r3, r0, r3
 80042f8:	7b08      	ldrb	r0, [r1, #12]
 80042fa:	7b49      	ldrb	r1, [r1, #13]
 80042fc:	fa16 f383 	uxtah	r3, r6, r3
 8004300:	fa10 f383 	uxtah	r3, r0, r3
 8004304:	fa11 f383 	uxtah	r3, r1, r3
 8004308:	8811      	ldrh	r1, [r2, #0]
 800430a:	b29b      	uxth	r3, r3
 800430c:	4299      	cmp	r1, r3
 800430e:	d005      	beq.n	800431c <HAL_TIM_PeriodElapsedCallback+0xe4>
 8004310:	492c      	ldr	r1, [pc, #176]	; (80043c4 <HAL_TIM_PeriodElapsedCallback+0x18c>)
 8004312:	8013      	strh	r3, [r2, #0]
 8004314:	2300      	movs	r3, #0
 8004316:	700b      	strb	r3, [r1, #0]
 8004318:	682b      	ldr	r3, [r5, #0]
 800431a:	e793      	b.n	8004244 <HAL_TIM_PeriodElapsedCallback+0xc>
 800431c:	4e29      	ldr	r6, [pc, #164]	; (80043c4 <HAL_TIM_PeriodElapsedCallback+0x18c>)
 800431e:	7833      	ldrb	r3, [r6, #0]
 8004320:	3301      	adds	r3, #1
 8004322:	b2db      	uxtb	r3, r3
 8004324:	2b0a      	cmp	r3, #10
 8004326:	7033      	strb	r3, [r6, #0]
 8004328:	d9f6      	bls.n	8004318 <HAL_TIM_PeriodElapsedCallback+0xe0>
 800432a:	f7ff fe9d 	bl	8004068 <led3_t>
 800432e:	4826      	ldr	r0, [pc, #152]	; (80043c8 <HAL_TIM_PeriodElapsedCallback+0x190>)
 8004330:	f7fc ff70 	bl	8001214 <HAL_DMA_Abort>
 8004334:	4825      	ldr	r0, [pc, #148]	; (80043cc <HAL_TIM_PeriodElapsedCallback+0x194>)
 8004336:	f7fc ff6d 	bl	8001214 <HAL_DMA_Abort>
 800433a:	2200      	movs	r2, #0
 800433c:	7032      	strb	r2, [r6, #0]
 800433e:	682b      	ldr	r3, [r5, #0]
 8004340:	6422      	str	r2, [r4, #64]	; 0x40
 8004342:	e77f      	b.n	8004244 <HAL_TIM_PeriodElapsedCallback+0xc>
 8004344:	2201      	movs	r2, #1
 8004346:	f44f 6100 	mov.w	r1, #2048	; 0x800
 800434a:	4818      	ldr	r0, [pc, #96]	; (80043ac <HAL_TIM_PeriodElapsedCallback+0x174>)
 800434c:	f7fd f9c0 	bl	80016d0 <HAL_GPIO_WritePin>
 8004350:	4a18      	ldr	r2, [pc, #96]	; (80043b4 <HAL_TIM_PeriodElapsedCallback+0x17c>)
 8004352:	682b      	ldr	r3, [r5, #0]
 8004354:	88d2      	ldrh	r2, [r2, #6]
 8004356:	62da      	str	r2, [r3, #44]	; 0x2c
 8004358:	7823      	ldrb	r3, [r4, #0]
 800435a:	e7a9      	b.n	80042b0 <HAL_TIM_PeriodElapsedCallback+0x78>
 800435c:	2201      	movs	r2, #1
 800435e:	f44f 6180 	mov.w	r1, #1024	; 0x400
 8004362:	4812      	ldr	r0, [pc, #72]	; (80043ac <HAL_TIM_PeriodElapsedCallback+0x174>)
 8004364:	f7fd f9b4 	bl	80016d0 <HAL_GPIO_WritePin>
 8004368:	4a12      	ldr	r2, [pc, #72]	; (80043b4 <HAL_TIM_PeriodElapsedCallback+0x17c>)
 800436a:	682b      	ldr	r3, [r5, #0]
 800436c:	8892      	ldrh	r2, [r2, #4]
 800436e:	62da      	str	r2, [r3, #44]	; 0x2c
 8004370:	7823      	ldrb	r3, [r4, #0]
 8004372:	e79d      	b.n	80042b0 <HAL_TIM_PeriodElapsedCallback+0x78>
 8004374:	2201      	movs	r2, #1
 8004376:	f44f 7100 	mov.w	r1, #512	; 0x200
 800437a:	480c      	ldr	r0, [pc, #48]	; (80043ac <HAL_TIM_PeriodElapsedCallback+0x174>)
 800437c:	f7fd f9a8 	bl	80016d0 <HAL_GPIO_WritePin>
 8004380:	4a0c      	ldr	r2, [pc, #48]	; (80043b4 <HAL_TIM_PeriodElapsedCallback+0x17c>)
 8004382:	682b      	ldr	r3, [r5, #0]
 8004384:	8852      	ldrh	r2, [r2, #2]
 8004386:	62da      	str	r2, [r3, #44]	; 0x2c
 8004388:	7823      	ldrb	r3, [r4, #0]
 800438a:	e791      	b.n	80042b0 <HAL_TIM_PeriodElapsedCallback+0x78>
 800438c:	2201      	movs	r2, #1
 800438e:	f44f 7180 	mov.w	r1, #256	; 0x100
 8004392:	4806      	ldr	r0, [pc, #24]	; (80043ac <HAL_TIM_PeriodElapsedCallback+0x174>)
 8004394:	f7fd f99c 	bl	80016d0 <HAL_GPIO_WritePin>
 8004398:	4a06      	ldr	r2, [pc, #24]	; (80043b4 <HAL_TIM_PeriodElapsedCallback+0x17c>)
 800439a:	682b      	ldr	r3, [r5, #0]
 800439c:	8812      	ldrh	r2, [r2, #0]
 800439e:	62da      	str	r2, [r3, #44]	; 0x2c
 80043a0:	7823      	ldrb	r3, [r4, #0]
 80043a2:	e785      	b.n	80042b0 <HAL_TIM_PeriodElapsedCallback+0x78>
 80043a4:	40014400 	.word	0x40014400
 80043a8:	40014800 	.word	0x40014800
 80043ac:	40020c00 	.word	0x40020c00
 80043b0:	2000025e 	.word	0x2000025e
 80043b4:	200000d4 	.word	0x200000d4
 80043b8:	200001b4 	.word	0x200001b4
 80043bc:	20000250 	.word	0x20000250
 80043c0:	200000ac 	.word	0x200000ac
 80043c4:	20000404 	.word	0x20000404
 80043c8:	20000154 	.word	0x20000154
 80043cc:	20000344 	.word	0x20000344

080043d0 <HAL_I2C_MemRxCpltCallback>:
 80043d0:	b530      	push	{r4, r5, lr}
 80043d2:	ed2d 8b04 	vpush	{d8-d9}
 80043d6:	4c5c      	ldr	r4, [pc, #368]	; (8004548 <HAL_I2C_MemRxCpltCallback+0x178>)
 80043d8:	4d5c      	ldr	r5, [pc, #368]	; (800454c <HAL_I2C_MemRxCpltCallback+0x17c>)
 80043da:	b083      	sub	sp, #12
 80043dc:	2001      	movs	r0, #1
 80043de:	f000 fdc7 	bl	8004f70 <mpu_cs>
 80043e2:	7923      	ldrb	r3, [r4, #4]
 80043e4:	7960      	ldrb	r0, [r4, #5]
 80043e6:	ea40 2003 	orr.w	r0, r0, r3, lsl #8
 80043ea:	b200      	sxth	r0, r0
 80043ec:	f7fc f83e 	bl	800046c <__aeabi_i2d>
 80043f0:	a34f      	add	r3, pc, #316	; (adr r3, 8004530 <HAL_I2C_MemRxCpltCallback+0x160>)
 80043f2:	e9d3 2300 	ldrd	r2, r3, [r3]
 80043f6:	f7fc f9cd 	bl	8000794 <__aeabi_ddiv>
 80043fa:	f7fc fb51 	bl	8000aa0 <__aeabi_d2iz>
 80043fe:	78a2      	ldrb	r2, [r4, #2]
 8004400:	78e3      	ldrb	r3, [r4, #3]
 8004402:	ea43 2302 	orr.w	r3, r3, r2, lsl #8
 8004406:	b202      	sxth	r2, r0
 8004408:	b218      	sxth	r0, r3
 800440a:	ee09 2a10 	vmov	s18, r2
 800440e:	f7fc f82d 	bl	800046c <__aeabi_i2d>
 8004412:	a347      	add	r3, pc, #284	; (adr r3, 8004530 <HAL_I2C_MemRxCpltCallback+0x160>)
 8004414:	e9d3 2300 	ldrd	r2, r3, [r3]
 8004418:	f7fc f9bc 	bl	8000794 <__aeabi_ddiv>
 800441c:	f7fc fb40 	bl	8000aa0 <__aeabi_d2iz>
 8004420:	7822      	ldrb	r2, [r4, #0]
 8004422:	7863      	ldrb	r3, [r4, #1]
 8004424:	ea43 2302 	orr.w	r3, r3, r2, lsl #8
 8004428:	b202      	sxth	r2, r0
 800442a:	b218      	sxth	r0, r3
 800442c:	ee08 2a90 	vmov	s17, r2
 8004430:	f7fc f81c 	bl	800046c <__aeabi_i2d>
 8004434:	a33e      	add	r3, pc, #248	; (adr r3, 8004530 <HAL_I2C_MemRxCpltCallback+0x160>)
 8004436:	e9d3 2300 	ldrd	r2, r3, [r3]
 800443a:	f7fc f9ab 	bl	8000794 <__aeabi_ddiv>
 800443e:	f7fc fb2f 	bl	8000aa0 <__aeabi_d2iz>
 8004442:	7b21      	ldrb	r1, [r4, #12]
 8004444:	7b63      	ldrb	r3, [r4, #13]
 8004446:	f995 2002 	ldrsb.w	r2, [r5, #2]
 800444a:	ea43 2301 	orr.w	r3, r3, r1, lsl #8
 800444e:	1a9b      	subs	r3, r3, r2
 8004450:	b21b      	sxth	r3, r3
 8004452:	ee07 3a90 	vmov	s15, r3
 8004456:	eef8 7ae7 	vcvt.f32.s32	s15, s15
 800445a:	b202      	sxth	r2, r0
 800445c:	ee17 0a90 	vmov	r0, s15
 8004460:	ee08 2a10 	vmov	s16, r2
 8004464:	f7fc f814 	bl	8000490 <__aeabi_f2d>
 8004468:	a333      	add	r3, pc, #204	; (adr r3, 8004538 <HAL_I2C_MemRxCpltCallback+0x168>)
 800446a:	e9d3 2300 	ldrd	r2, r3, [r3]
 800446e:	f7fc f991 	bl	8000794 <__aeabi_ddiv>
 8004472:	a333      	add	r3, pc, #204	; (adr r3, 8004540 <HAL_I2C_MemRxCpltCallback+0x170>)
 8004474:	e9d3 2300 	ldrd	r2, r3, [r3]
 8004478:	f7fc f862 	bl	8000540 <__aeabi_dmul>
 800447c:	f7fc fb38 	bl	8000af0 <__aeabi_d2f>
 8004480:	7aa2      	ldrb	r2, [r4, #10]
 8004482:	9001      	str	r0, [sp, #4]
 8004484:	7ae0      	ldrb	r0, [r4, #11]
 8004486:	f995 3001 	ldrsb.w	r3, [r5, #1]
 800448a:	ea40 2002 	orr.w	r0, r0, r2, lsl #8
 800448e:	1ac0      	subs	r0, r0, r3
 8004490:	b200      	sxth	r0, r0
 8004492:	ee07 0a90 	vmov	s15, r0
 8004496:	eef8 7ae7 	vcvt.f32.s32	s15, s15
 800449a:	eeb8 9ac9 	vcvt.f32.s32	s18, s18
 800449e:	ee17 0a90 	vmov	r0, s15
 80044a2:	f7fb fff5 	bl	8000490 <__aeabi_f2d>
 80044a6:	a324      	add	r3, pc, #144	; (adr r3, 8004538 <HAL_I2C_MemRxCpltCallback+0x168>)
 80044a8:	e9d3 2300 	ldrd	r2, r3, [r3]
 80044ac:	f7fc f972 	bl	8000794 <__aeabi_ddiv>
 80044b0:	a323      	add	r3, pc, #140	; (adr r3, 8004540 <HAL_I2C_MemRxCpltCallback+0x170>)
 80044b2:	e9d3 2300 	ldrd	r2, r3, [r3]
 80044b6:	f7fc f843 	bl	8000540 <__aeabi_dmul>
 80044ba:	f7fc fb19 	bl	8000af0 <__aeabi_d2f>
 80044be:	7a22      	ldrb	r2, [r4, #8]
 80044c0:	9000      	str	r0, [sp, #0]
 80044c2:	7a60      	ldrb	r0, [r4, #9]
 80044c4:	f995 3000 	ldrsb.w	r3, [r5]
 80044c8:	ea40 2002 	orr.w	r0, r0, r2, lsl #8
 80044cc:	1ac0      	subs	r0, r0, r3
 80044ce:	b200      	sxth	r0, r0
 80044d0:	ee07 0a90 	vmov	s15, r0
 80044d4:	eef8 7ae7 	vcvt.f32.s32	s15, s15
 80044d8:	eef8 8ae8 	vcvt.f32.s32	s17, s17
 80044dc:	ee17 0a90 	vmov	r0, s15
 80044e0:	f7fb ffd6 	bl	8000490 <__aeabi_f2d>
 80044e4:	a314      	add	r3, pc, #80	; (adr r3, 8004538 <HAL_I2C_MemRxCpltCallback+0x168>)
 80044e6:	e9d3 2300 	ldrd	r2, r3, [r3]
 80044ea:	f7fc f953 	bl	8000794 <__aeabi_ddiv>
 80044ee:	a314      	add	r3, pc, #80	; (adr r3, 8004540 <HAL_I2C_MemRxCpltCallback+0x170>)
 80044f0:	e9d3 2300 	ldrd	r2, r3, [r3]
 80044f4:	f7fc f824 	bl	8000540 <__aeabi_dmul>
 80044f8:	f7fc fafa 	bl	8000af0 <__aeabi_d2f>
 80044fc:	eeb8 8ac8 	vcvt.f32.s32	s16, s16
 8004500:	eef0 2a49 	vmov.f32	s5, s18
 8004504:	eeb0 2a68 	vmov.f32	s4, s17
 8004508:	eef0 1a48 	vmov.f32	s3, s16
 800450c:	ed9d 1a01 	vldr	s2, [sp, #4]
 8004510:	eddd 0a00 	vldr	s1, [sp]
 8004514:	ee00 0a10 	vmov	s0, r0
 8004518:	f7ff fc70 	bl	8003dfc <MadgwickAHRSupdateIMU>
 800451c:	f7ff fe14 	bl	8004148 <pid_yaw>
 8004520:	b003      	add	sp, #12
 8004522:	ecbd 8b04 	vpop	{d8-d9}
 8004526:	e8bd 4030 	ldmia.w	sp!, {r4, r5, lr}
 800452a:	f7ff bd97 	b.w	800405c <led2_t>
 800452e:	bf00      	nop
 8004530:	d2f1a9fc 	.word	0xd2f1a9fc
 8004534:	4020624d 	.word	0x4020624d
 8004538:	66666666 	.word	0x66666666
 800453c:	40306666 	.word	0x40306666
 8004540:	a2529d39 	.word	0xa2529d39
 8004544:	3f91df46 	.word	0x3f91df46
 8004548:	20000250 	.word	0x20000250
 800454c:	20000340 	.word	0x20000340

08004550 <dump_quat_on_uart>:
 8004550:	b530      	push	{r4, r5, lr}
 8004552:	ed2d 8b02 	vpush	{d8}
 8004556:	b095      	sub	sp, #84	; 0x54
 8004558:	4669      	mov	r1, sp
 800455a:	4834      	ldr	r0, [pc, #208]	; (800462c <dump_quat_on_uart+0xdc>)
 800455c:	4d34      	ldr	r5, [pc, #208]	; (8004630 <dump_quat_on_uart+0xe0>)
 800455e:	f000 fd7f 	bl	8005060 <quat_copy>
 8004562:	2300      	movs	r3, #0
 8004564:	aa04      	add	r2, sp, #16
 8004566:	4611      	mov	r1, r2
 8004568:	9304      	str	r3, [sp, #16]
 800456a:	9306      	str	r3, [sp, #24]
 800456c:	9307      	str	r3, [sp, #28]
 800456e:	9308      	str	r3, [sp, #32]
 8004570:	9309      	str	r3, [sp, #36]	; 0x24
 8004572:	930b      	str	r3, [sp, #44]	; 0x2c
 8004574:	930c      	str	r3, [sp, #48]	; 0x30
 8004576:	930d      	str	r3, [sp, #52]	; 0x34
 8004578:	930e      	str	r3, [sp, #56]	; 0x38
 800457a:	4668      	mov	r0, sp
 800457c:	f04f 537e 	mov.w	r3, #1065353216	; 0x3f800000
 8004580:	9305      	str	r3, [sp, #20]
 8004582:	930a      	str	r3, [sp, #40]	; 0x28
 8004584:	930f      	str	r3, [sp, #60]	; 0x3c
 8004586:	f000 fcfb 	bl	8004f80 <quat_qpq>
 800458a:	aa08      	add	r2, sp, #32
 800458c:	4611      	mov	r1, r2
 800458e:	4668      	mov	r0, sp
 8004590:	f000 fcf6 	bl	8004f80 <quat_qpq>
 8004594:	aa0c      	add	r2, sp, #48	; 0x30
 8004596:	4668      	mov	r0, sp
 8004598:	4611      	mov	r1, r2
 800459a:	f000 fcf1 	bl	8004f80 <quat_qpq>
 800459e:	4b25      	ldr	r3, [pc, #148]	; (8004634 <dump_quat_on_uart+0xe4>)
 80045a0:	eddd 7a04 	vldr	s15, [sp, #16]
 80045a4:	cb0f      	ldmia	r3, {r0, r1, r2, r3}
 80045a6:	eeb2 8a04 	vmov.f32	s16, #36	; 0x41200000  10.0
 80045aa:	ee67 7a88 	vmul.f32	s15, s15, s16
 80045ae:	ac10      	add	r4, sp, #64	; 0x40
 80045b0:	eefd 7ae7 	vcvt.s32.f32	s15, s15
 80045b4:	e884 000f 	stmia.w	r4, {r0, r1, r2, r3}
 80045b8:	4621      	mov	r1, r4
 80045ba:	ee17 0a90 	vmov	r0, s15
 80045be:	220a      	movs	r2, #10
 80045c0:	f001 f80e 	bl	80055e0 <itoa>
 80045c4:	eddd 7a05 	vldr	s15, [sp, #20]
 80045c8:	ee67 7a88 	vmul.f32	s15, s15, s16
 80045cc:	a911      	add	r1, sp, #68	; 0x44
 80045ce:	eefd 7ae7 	vcvt.s32.f32	s15, s15
 80045d2:	220a      	movs	r2, #10
 80045d4:	ee17 0a90 	vmov	r0, s15
 80045d8:	f001 f802 	bl	80055e0 <itoa>
 80045dc:	eddd 7a06 	vldr	s15, [sp, #24]
 80045e0:	ee67 7a88 	vmul.f32	s15, s15, s16
 80045e4:	a912      	add	r1, sp, #72	; 0x48
 80045e6:	eefd 7ae7 	vcvt.s32.f32	s15, s15
 80045ea:	220a      	movs	r2, #10
 80045ec:	ee17 0a90 	vmov	r0, s15
 80045f0:	f000 fff6 	bl	80055e0 <itoa>
 80045f4:	eddd 7a07 	vldr	s15, [sp, #28]
 80045f8:	ee27 8a88 	vmul.f32	s16, s15, s16
 80045fc:	a913      	add	r1, sp, #76	; 0x4c
 80045fe:	eefd 7ac8 	vcvt.s32.f32	s15, s16
 8004602:	220a      	movs	r2, #10
 8004604:	ee17 0a90 	vmov	r0, s15
 8004608:	f000 ffea 	bl	80055e0 <itoa>
 800460c:	4621      	mov	r1, r4
 800460e:	4628      	mov	r0, r5
 8004610:	23a0      	movs	r3, #160	; 0xa0
 8004612:	2210      	movs	r2, #16
 8004614:	f7ff fb6a 	bl	8003cec <HAL_UART_Transmit>
 8004618:	4628      	mov	r0, r5
 800461a:	23a0      	movs	r3, #160	; 0xa0
 800461c:	2202      	movs	r2, #2
 800461e:	4906      	ldr	r1, [pc, #24]	; (8004638 <dump_quat_on_uart+0xe8>)
 8004620:	f7ff fb64 	bl	8003cec <HAL_UART_Transmit>
 8004624:	b015      	add	sp, #84	; 0x54
 8004626:	ecbd 8b02 	vpop	{d8}
 800462a:	bd30      	pop	{r4, r5, pc}
 800462c:	200000b4 	.word	0x200000b4
 8004630:	200002a0 	.word	0x200002a0
 8004634:	0800738c 	.word	0x0800738c
 8004638:	08007388 	.word	0x08007388

0800463c <SystemClock_Config>:
 800463c:	b570      	push	{r4, r5, r6, lr}
 800463e:	2400      	movs	r4, #0
 8004640:	b098      	sub	sp, #96	; 0x60
 8004642:	e9cd 440f 	strd	r4, r4, [sp, #60]	; 0x3c
 8004646:	e9cd 4408 	strd	r4, r4, [sp, #32]
 800464a:	e9cd 440a 	strd	r4, r4, [sp, #40]	; 0x28
 800464e:	e9cd 4404 	strd	r4, r4, [sp, #16]
 8004652:	4a23      	ldr	r2, [pc, #140]	; (80046e0 <SystemClock_Config+0xa4>)
 8004654:	9401      	str	r4, [sp, #4]
 8004656:	9411      	str	r4, [sp, #68]	; 0x44
 8004658:	9407      	str	r4, [sp, #28]
 800465a:	9403      	str	r4, [sp, #12]
 800465c:	9406      	str	r4, [sp, #24]
 800465e:	6c11      	ldr	r1, [r2, #64]	; 0x40
 8004660:	4b20      	ldr	r3, [pc, #128]	; (80046e4 <SystemClock_Config+0xa8>)
 8004662:	f041 5180 	orr.w	r1, r1, #268435456	; 0x10000000
 8004666:	6411      	str	r1, [r2, #64]	; 0x40
 8004668:	6c12      	ldr	r2, [r2, #64]	; 0x40
 800466a:	f002 5280 	and.w	r2, r2, #268435456	; 0x10000000
 800466e:	9201      	str	r2, [sp, #4]
 8004670:	9a01      	ldr	r2, [sp, #4]
 8004672:	9402      	str	r4, [sp, #8]
 8004674:	681a      	ldr	r2, [r3, #0]
 8004676:	f442 4280 	orr.w	r2, r2, #16384	; 0x4000
 800467a:	601a      	str	r2, [r3, #0]
 800467c:	681b      	ldr	r3, [r3, #0]
 800467e:	f403 4380 	and.w	r3, r3, #16384	; 0x4000
 8004682:	9302      	str	r3, [sp, #8]
 8004684:	2605      	movs	r6, #5
 8004686:	f44f 3380 	mov.w	r3, #65536	; 0x10000
 800468a:	2201      	movs	r2, #1
 800468c:	2502      	movs	r5, #2
 800468e:	e9cd 630c 	strd	r6, r3, [sp, #48]	; 0x30
 8004692:	f44f 0180 	mov.w	r1, #4194304	; 0x400000
 8004696:	2304      	movs	r3, #4
 8004698:	9802      	ldr	r0, [sp, #8]
 800469a:	920e      	str	r2, [sp, #56]	; 0x38
 800469c:	a80c      	add	r0, sp, #48	; 0x30
 800469e:	22a8      	movs	r2, #168	; 0xa8
 80046a0:	9113      	str	r1, [sp, #76]	; 0x4c
 80046a2:	9512      	str	r5, [sp, #72]	; 0x48
 80046a4:	9516      	str	r5, [sp, #88]	; 0x58
 80046a6:	e9cd 3214 	strd	r3, r2, [sp, #80]	; 0x50
 80046aa:	9317      	str	r3, [sp, #92]	; 0x5c
 80046ac:	f7fe fc52 	bl	8002f54 <HAL_RCC_OscConfig>
 80046b0:	4631      	mov	r1, r6
 80046b2:	f44f 52a0 	mov.w	r2, #5120	; 0x1400
 80046b6:	f44f 5380 	mov.w	r3, #4096	; 0x1000
 80046ba:	a807      	add	r0, sp, #28
 80046bc:	260f      	movs	r6, #15
 80046be:	e9cd 230a 	strd	r2, r3, [sp, #40]	; 0x28
 80046c2:	e9cd 5408 	strd	r5, r4, [sp, #32]
 80046c6:	9607      	str	r6, [sp, #28]
 80046c8:	f7fe fe34 	bl	8003334 <HAL_RCC_ClockConfig>
 80046cc:	f44f 7380 	mov.w	r3, #256	; 0x100
 80046d0:	a803      	add	r0, sp, #12
 80046d2:	9503      	str	r5, [sp, #12]
 80046d4:	9306      	str	r3, [sp, #24]
 80046d6:	f7fe fee7 	bl	80034a8 <HAL_RCCEx_PeriphCLKConfig>
 80046da:	b018      	add	sp, #96	; 0x60
 80046dc:	bd70      	pop	{r4, r5, r6, pc}
 80046de:	bf00      	nop
 80046e0:	40023800 	.word	0x40023800
 80046e4:	40007000 	.word	0x40007000

080046e8 <main>:
 80046e8:	e92d 4ff0 	stmdb	sp!, {r4, r5, r6, r7, r8, r9, sl, fp, lr}
 80046ec:	2400      	movs	r4, #0
 80046ee:	b08f      	sub	sp, #60	; 0x3c
 80046f0:	f7fc fbf2 	bl	8000ed8 <HAL_Init>
 80046f4:	f7ff ffa2 	bl	800463c <SystemClock_Config>
 80046f8:	e9cd 4409 	strd	r4, r4, [sp, #36]	; 0x24
 80046fc:	e9cd 440b 	strd	r4, r4, [sp, #44]	; 0x2c
 8004700:	4fc5      	ldr	r7, [pc, #788]	; (8004a18 <main+0x330>)
 8004702:	9403      	str	r4, [sp, #12]
 8004704:	940d      	str	r4, [sp, #52]	; 0x34
 8004706:	6b3b      	ldr	r3, [r7, #48]	; 0x30
 8004708:	48c4      	ldr	r0, [pc, #784]	; (8004a1c <main+0x334>)
 800470a:	f8df 9370 	ldr.w	r9, [pc, #880]	; 8004a7c <main+0x394>
 800470e:	f8df b370 	ldr.w	fp, [pc, #880]	; 8004a80 <main+0x398>
 8004712:	f8df a370 	ldr.w	sl, [pc, #880]	; 8004a84 <main+0x39c>
 8004716:	4ec2      	ldr	r6, [pc, #776]	; (8004a20 <main+0x338>)
 8004718:	f043 0310 	orr.w	r3, r3, #16
 800471c:	633b      	str	r3, [r7, #48]	; 0x30
 800471e:	6b3b      	ldr	r3, [r7, #48]	; 0x30
 8004720:	f003 0310 	and.w	r3, r3, #16
 8004724:	9303      	str	r3, [sp, #12]
 8004726:	9b03      	ldr	r3, [sp, #12]
 8004728:	9404      	str	r4, [sp, #16]
 800472a:	6b3b      	ldr	r3, [r7, #48]	; 0x30
 800472c:	f043 0304 	orr.w	r3, r3, #4
 8004730:	633b      	str	r3, [r7, #48]	; 0x30
 8004732:	6b3b      	ldr	r3, [r7, #48]	; 0x30
 8004734:	f003 0304 	and.w	r3, r3, #4
 8004738:	9304      	str	r3, [sp, #16]
 800473a:	9b04      	ldr	r3, [sp, #16]
 800473c:	9405      	str	r4, [sp, #20]
 800473e:	6b3b      	ldr	r3, [r7, #48]	; 0x30
 8004740:	f043 0380 	orr.w	r3, r3, #128	; 0x80
 8004744:	633b      	str	r3, [r7, #48]	; 0x30
 8004746:	6b3b      	ldr	r3, [r7, #48]	; 0x30
 8004748:	f003 0380 	and.w	r3, r3, #128	; 0x80
 800474c:	9305      	str	r3, [sp, #20]
 800474e:	9b05      	ldr	r3, [sp, #20]
 8004750:	9406      	str	r4, [sp, #24]
 8004752:	6b3b      	ldr	r3, [r7, #48]	; 0x30
 8004754:	f043 0301 	orr.w	r3, r3, #1
 8004758:	633b      	str	r3, [r7, #48]	; 0x30
 800475a:	6b3b      	ldr	r3, [r7, #48]	; 0x30
 800475c:	f003 0301 	and.w	r3, r3, #1
 8004760:	9306      	str	r3, [sp, #24]
 8004762:	9b06      	ldr	r3, [sp, #24]
 8004764:	9407      	str	r4, [sp, #28]
 8004766:	6b3b      	ldr	r3, [r7, #48]	; 0x30
 8004768:	f043 0302 	orr.w	r3, r3, #2
 800476c:	633b      	str	r3, [r7, #48]	; 0x30
 800476e:	6b3b      	ldr	r3, [r7, #48]	; 0x30
 8004770:	f003 0302 	and.w	r3, r3, #2
 8004774:	9307      	str	r3, [sp, #28]
 8004776:	9b07      	ldr	r3, [sp, #28]
 8004778:	9408      	str	r4, [sp, #32]
 800477a:	6b3b      	ldr	r3, [r7, #48]	; 0x30
 800477c:	f043 0308 	orr.w	r3, r3, #8
 8004780:	633b      	str	r3, [r7, #48]	; 0x30
 8004782:	6b3b      	ldr	r3, [r7, #48]	; 0x30
 8004784:	f003 0308 	and.w	r3, r3, #8
 8004788:	9308      	str	r3, [sp, #32]
 800478a:	4622      	mov	r2, r4
 800478c:	21c0      	movs	r1, #192	; 0xc0
 800478e:	9b08      	ldr	r3, [sp, #32]
 8004790:	f7fc ff9e 	bl	80016d0 <HAL_GPIO_WritePin>
 8004794:	4622      	mov	r2, r4
 8004796:	2103      	movs	r1, #3
 8004798:	48a2      	ldr	r0, [pc, #648]	; (8004a24 <main+0x33c>)
 800479a:	f7fc ff99 	bl	80016d0 <HAL_GPIO_WritePin>
 800479e:	4622      	mov	r2, r4
 80047a0:	f44f 51f8 	mov.w	r1, #7936	; 0x1f00
 80047a4:	48a0      	ldr	r0, [pc, #640]	; (8004a28 <main+0x340>)
 80047a6:	f7fc ff93 	bl	80016d0 <HAL_GPIO_WritePin>
 80047aa:	2501      	movs	r5, #1
 80047ac:	2318      	movs	r3, #24
 80047ae:	a909      	add	r1, sp, #36	; 0x24
 80047b0:	489e      	ldr	r0, [pc, #632]	; (8004a2c <main+0x344>)
 80047b2:	950b      	str	r5, [sp, #44]	; 0x2c
 80047b4:	e9cd 3409 	strd	r3, r4, [sp, #36]	; 0x24
 80047b8:	f7fc fe62 	bl	8001480 <HAL_GPIO_Init>
 80047bc:	23c0      	movs	r3, #192	; 0xc0
 80047be:	a909      	add	r1, sp, #36	; 0x24
 80047c0:	4896      	ldr	r0, [pc, #600]	; (8004a1c <main+0x334>)
 80047c2:	9309      	str	r3, [sp, #36]	; 0x24
 80047c4:	e9cd 540a 	strd	r5, r4, [sp, #40]	; 0x28
 80047c8:	940c      	str	r4, [sp, #48]	; 0x30
 80047ca:	f7fc fe59 	bl	8001480 <HAL_GPIO_Init>
 80047ce:	2303      	movs	r3, #3
 80047d0:	a909      	add	r1, sp, #36	; 0x24
 80047d2:	4894      	ldr	r0, [pc, #592]	; (8004a24 <main+0x33c>)
 80047d4:	9309      	str	r3, [sp, #36]	; 0x24
 80047d6:	e9cd 540a 	strd	r5, r4, [sp, #40]	; 0x28
 80047da:	940c      	str	r4, [sp, #48]	; 0x30
 80047dc:	f7fc fe50 	bl	8001480 <HAL_GPIO_Init>
 80047e0:	f44f 53f8 	mov.w	r3, #7936	; 0x1f00
 80047e4:	a909      	add	r1, sp, #36	; 0x24
 80047e6:	4890      	ldr	r0, [pc, #576]	; (8004a28 <main+0x340>)
 80047e8:	9309      	str	r3, [sp, #36]	; 0x24
 80047ea:	e9cd 540a 	strd	r5, r4, [sp, #40]	; 0x28
 80047ee:	940c      	str	r4, [sp, #48]	; 0x30
 80047f0:	f7fc fe46 	bl	8001480 <HAL_GPIO_Init>
 80047f4:	9402      	str	r4, [sp, #8]
 80047f6:	6b3b      	ldr	r3, [r7, #48]	; 0x30
 80047f8:	f443 1300 	orr.w	r3, r3, #2097152	; 0x200000
 80047fc:	633b      	str	r3, [r7, #48]	; 0x30
 80047fe:	6b3b      	ldr	r3, [r7, #48]	; 0x30
 8004800:	f403 1300 	and.w	r3, r3, #2097152	; 0x200000
 8004804:	9302      	str	r3, [sp, #8]
 8004806:	9b02      	ldr	r3, [sp, #8]
 8004808:	9409      	str	r4, [sp, #36]	; 0x24
 800480a:	6b3b      	ldr	r3, [r7, #48]	; 0x30
 800480c:	f443 0380 	orr.w	r3, r3, #4194304	; 0x400000
 8004810:	633b      	str	r3, [r7, #48]	; 0x30
 8004812:	6b3b      	ldr	r3, [r7, #48]	; 0x30
 8004814:	f403 0380 	and.w	r3, r3, #4194304	; 0x400000
 8004818:	4622      	mov	r2, r4
 800481a:	4621      	mov	r1, r4
 800481c:	9309      	str	r3, [sp, #36]	; 0x24
 800481e:	2038      	movs	r0, #56	; 0x38
 8004820:	9b09      	ldr	r3, [sp, #36]	; 0x24
 8004822:	f7fc fba9 	bl	8000f78 <HAL_NVIC_SetPriority>
 8004826:	2038      	movs	r0, #56	; 0x38
 8004828:	f7fc fbdc 	bl	8000fe4 <HAL_NVIC_EnableIRQ>
 800482c:	4622      	mov	r2, r4
 800482e:	4621      	mov	r1, r4
 8004830:	203b      	movs	r0, #59	; 0x3b
 8004832:	f7fc fba1 	bl	8000f78 <HAL_NVIC_SetPriority>
 8004836:	203b      	movs	r0, #59	; 0x3b
 8004838:	f7fc fbd4 	bl	8000fe4 <HAL_NVIC_EnableIRQ>
 800483c:	497c      	ldr	r1, [pc, #496]	; (8004a30 <main+0x348>)
 800483e:	4a7d      	ldr	r2, [pc, #500]	; (8004a34 <main+0x34c>)
 8004840:	f8c9 4008 	str.w	r4, [r9, #8]
 8004844:	f44f 4380 	mov.w	r3, #16384	; 0x4000
 8004848:	4648      	mov	r0, r9
 800484a:	e9c9 1200 	strd	r1, r2, [r9]
 800484e:	f8c9 3010 	str.w	r3, [r9, #16]
 8004852:	f8c9 400c 	str.w	r4, [r9, #12]
 8004856:	e9c9 4405 	strd	r4, r4, [r9, #20]
 800485a:	e9c9 4407 	strd	r4, r4, [r9, #28]
 800485e:	f7fd f937 	bl	8001ad0 <HAL_I2C_Init>
 8004862:	4b75      	ldr	r3, [pc, #468]	; (8004a38 <main+0x350>)
 8004864:	217f      	movs	r1, #127	; 0x7f
 8004866:	22ff      	movs	r2, #255	; 0xff
 8004868:	f5a7 3704 	sub.w	r7, r7, #135168	; 0x21000
 800486c:	4618      	mov	r0, r3
 800486e:	e9c3 1202 	strd	r1, r2, [r3, #8]
 8004872:	601f      	str	r7, [r3, #0]
 8004874:	605c      	str	r4, [r3, #4]
 8004876:	e9c3 4404 	strd	r4, r4, [r3, #16]
 800487a:	619c      	str	r4, [r3, #24]
 800487c:	f7fe feb4 	bl	80035e8 <HAL_RTC_Init>
 8004880:	4a6e      	ldr	r2, [pc, #440]	; (8004a3c <main+0x354>)
 8004882:	4b6f      	ldr	r3, [pc, #444]	; (8004a40 <main+0x358>)
 8004884:	6013      	str	r3, [r2, #0]
 8004886:	f44f 7700 	mov.w	r7, #512	; 0x200
 800488a:	2130      	movs	r1, #48	; 0x30
 800488c:	f44f 7c82 	mov.w	ip, #260	; 0x104
 8004890:	230a      	movs	r3, #10
 8004892:	e9c2 7106 	strd	r7, r1, [r2, #24]
 8004896:	4610      	mov	r0, r2
 8004898:	2102      	movs	r1, #2
 800489a:	f8c2 c004 	str.w	ip, [r2, #4]
 800489e:	6111      	str	r1, [r2, #16]
 80048a0:	62d3      	str	r3, [r2, #44]	; 0x2c
 80048a2:	6094      	str	r4, [r2, #8]
 80048a4:	60d4      	str	r4, [r2, #12]
 80048a6:	6154      	str	r4, [r2, #20]
 80048a8:	e9c2 4408 	strd	r4, r4, [r2, #32]
 80048ac:	6294      	str	r4, [r2, #40]	; 0x28
 80048ae:	9301      	str	r3, [sp, #4]
 80048b0:	f7fe ff08 	bl	80036c4 <HAL_SPI_Init>
 80048b4:	4a63      	ldr	r2, [pc, #396]	; (8004a44 <main+0x35c>)
 80048b6:	f8cb 4008 	str.w	r4, [fp, #8]
 80048ba:	f44f 737a 	mov.w	r3, #1000	; 0x3e8
 80048be:	27a7      	movs	r7, #167	; 0xa7
 80048c0:	4658      	mov	r0, fp
 80048c2:	f8cb 300c 	str.w	r3, [fp, #12]
 80048c6:	e9cb 2700 	strd	r2, r7, [fp]
 80048ca:	f8cb 4010 	str.w	r4, [fp, #16]
 80048ce:	f8cb 4018 	str.w	r4, [fp, #24]
 80048d2:	f7fe ff37 	bl	8003744 <HAL_TIM_Base_Init>
 80048d6:	495c      	ldr	r1, [pc, #368]	; (8004a48 <main+0x360>)
 80048d8:	f8ca 7004 	str.w	r7, [sl, #4]
 80048dc:	f240 52dc 	movw	r2, #1500	; 0x5dc
 80048e0:	4650      	mov	r0, sl
 80048e2:	f8ca 1000 	str.w	r1, [sl]
 80048e6:	f8ca 200c 	str.w	r2, [sl, #12]
 80048ea:	f8ca 4008 	str.w	r4, [sl, #8]
 80048ee:	f8ca 4010 	str.w	r4, [sl, #16]
 80048f2:	f8ca 4018 	str.w	r4, [sl, #24]
 80048f6:	f7fe ff25 	bl	8003744 <HAL_TIM_Base_Init>
 80048fa:	4a54      	ldr	r2, [pc, #336]	; (8004a4c <main+0x364>)
 80048fc:	f8df c188 	ldr.w	ip, [pc, #392]	; 8004a88 <main+0x3a0>
 8004900:	f8c2 c000 	str.w	ip, [r2]
 8004904:	4610      	mov	r0, r2
 8004906:	f241 3188 	movw	r1, #5000	; 0x1388
 800490a:	6057      	str	r7, [r2, #4]
 800490c:	60d1      	str	r1, [r2, #12]
 800490e:	6094      	str	r4, [r2, #8]
 8004910:	6114      	str	r4, [r2, #16]
 8004912:	6194      	str	r4, [r2, #24]
 8004914:	f7fe ff16 	bl	8003744 <HAL_TIM_Base_Init>
 8004918:	494d      	ldr	r1, [pc, #308]	; (8004a50 <main+0x368>)
 800491a:	4f4e      	ldr	r7, [pc, #312]	; (8004a54 <main+0x36c>)
 800491c:	600f      	str	r7, [r1, #0]
 800491e:	f44f 38e1 	mov.w	r8, #115200	; 0x1c200
 8004922:	270c      	movs	r7, #12
 8004924:	4608      	mov	r0, r1
 8004926:	f8c1 8004 	str.w	r8, [r1, #4]
 800492a:	614f      	str	r7, [r1, #20]
 800492c:	608c      	str	r4, [r1, #8]
 800492e:	e9c1 4403 	strd	r4, r4, [r1, #12]
 8004932:	e9c1 4406 	strd	r4, r4, [r1, #24]
 8004936:	f7ff f84f 	bl	80039d8 <HAL_UART_Init>
 800493a:	4847      	ldr	r0, [pc, #284]	; (8004a58 <main+0x370>)
 800493c:	4947      	ldr	r1, [pc, #284]	; (8004a5c <main+0x374>)
 800493e:	6001      	str	r1, [r0, #0]
 8004940:	e9c0 8401 	strd	r8, r4, [r0, #4]
 8004944:	e9c0 7405 	strd	r7, r4, [r0, #20]
 8004948:	e9c0 4403 	strd	r4, r4, [r0, #12]
 800494c:	61c4      	str	r4, [r0, #28]
 800494e:	f7ff f843 	bl	80039d8 <HAL_UART_Init>
 8004952:	4943      	ldr	r1, [pc, #268]	; (8004a60 <main+0x378>)
 8004954:	4a43      	ldr	r2, [pc, #268]	; (8004a64 <main+0x37c>)
 8004956:	f8c1 8004 	str.w	r8, [r1, #4]
 800495a:	4608      	mov	r0, r1
 800495c:	e9c1 4704 	strd	r4, r7, [r1, #16]
 8004960:	600a      	str	r2, [r1, #0]
 8004962:	e9c1 4402 	strd	r4, r4, [r1, #8]
 8004966:	e9c1 4406 	strd	r4, r4, [r1, #24]
 800496a:	f7ff f835 	bl	80039d8 <HAL_UART_Init>
 800496e:	4622      	mov	r2, r4
 8004970:	4621      	mov	r1, r4
 8004972:	200b      	movs	r0, #11
 8004974:	f7fc fb00 	bl	8000f78 <HAL_NVIC_SetPriority>
 8004978:	200b      	movs	r0, #11
 800497a:	f7fc fb33 	bl	8000fe4 <HAL_NVIC_EnableIRQ>
 800497e:	4622      	mov	r2, r4
 8004980:	4621      	mov	r1, r4
 8004982:	2011      	movs	r0, #17
 8004984:	f7fc faf8 	bl	8000f78 <HAL_NVIC_SetPriority>
 8004988:	2011      	movs	r0, #17
 800498a:	f7fc fb2b 	bl	8000fe4 <HAL_NVIC_EnableIRQ>
 800498e:	4622      	mov	r2, r4
 8004990:	4621      	mov	r1, r4
 8004992:	2019      	movs	r0, #25
 8004994:	f7fc faf0 	bl	8000f78 <HAL_NVIC_SetPriority>
 8004998:	2019      	movs	r0, #25
 800499a:	f7fc fb23 	bl	8000fe4 <HAL_NVIC_EnableIRQ>
 800499e:	4622      	mov	r2, r4
 80049a0:	4621      	mov	r1, r4
 80049a2:	201f      	movs	r0, #31
 80049a4:	f7fc fae8 	bl	8000f78 <HAL_NVIC_SetPriority>
 80049a8:	201f      	movs	r0, #31
 80049aa:	f7fc fb1b 	bl	8000fe4 <HAL_NVIC_EnableIRQ>
 80049ae:	4622      	mov	r2, r4
 80049b0:	4621      	mov	r1, r4
 80049b2:	201a      	movs	r0, #26
 80049b4:	f7fc fae0 	bl	8000f78 <HAL_NVIC_SetPriority>
 80049b8:	201a      	movs	r0, #26
 80049ba:	f7fc fb13 	bl	8000fe4 <HAL_NVIC_EnableIRQ>
 80049be:	482a      	ldr	r0, [pc, #168]	; (8004a68 <main+0x380>)
 80049c0:	f8df 80c8 	ldr.w	r8, [pc, #200]	; 8004a8c <main+0x3a4>
 80049c4:	f7ff fb96 	bl	80040f4 <print_uart>
 80049c8:	201f      	movs	r0, #31
 80049ca:	f7fc fb19 	bl	8001000 <HAL_NVIC_DisableIRQ>
 80049ce:	4648      	mov	r0, r9
 80049d0:	f000 f930 	bl	8004c34 <mpu_init_std>
 80049d4:	f7ff fb4e 	bl	8004074 <leds_reset>
 80049d8:	462a      	mov	r2, r5
 80049da:	2102      	movs	r1, #2
 80049dc:	4811      	ldr	r0, [pc, #68]	; (8004a24 <main+0x33c>)
 80049de:	f7fc fe77 	bl	80016d0 <HAL_GPIO_WritePin>
 80049e2:	462a      	mov	r2, r5
 80049e4:	4629      	mov	r1, r5
 80049e6:	480f      	ldr	r0, [pc, #60]	; (8004a24 <main+0x33c>)
 80049e8:	4d10      	ldr	r5, [pc, #64]	; (8004a2c <main+0x344>)
 80049ea:	f7fc fe71 	bl	80016d0 <HAL_GPIO_WritePin>
 80049ee:	9b01      	ldr	r3, [sp, #4]
 80049f0:	4618      	mov	r0, r3
 80049f2:	f7fc fa9d 	bl	8000f30 <HAL_Delay>
 80049f6:	2004      	movs	r0, #4
 80049f8:	f7ff fb4c 	bl	8004094 <blink>
 80049fc:	4a1b      	ldr	r2, [pc, #108]	; (8004a6c <main+0x384>)
 80049fe:	491c      	ldr	r1, [pc, #112]	; (8004a70 <main+0x388>)
 8004a00:	4648      	mov	r0, r9
 8004a02:	f000 f951 	bl	8004ca8 <mpu_calibrate>
 8004a06:	4b1b      	ldr	r3, [pc, #108]	; (8004a74 <main+0x38c>)
 8004a08:	701c      	strb	r4, [r3, #0]
 8004a0a:	f7ff fb8d 	bl	8004128 <center_off>
 8004a0e:	4b1a      	ldr	r3, [pc, #104]	; (8004a78 <main+0x390>)
 8004a10:	201f      	movs	r0, #31
 8004a12:	701c      	strb	r4, [r3, #0]
 8004a14:	e03c      	b.n	8004a90 <main+0x3a8>
 8004a16:	bf00      	nop
 8004a18:	40023800 	.word	0x40023800
 8004a1c:	40020000 	.word	0x40020000
 8004a20:	200000d4 	.word	0x200000d4
 8004a24:	40020400 	.word	0x40020400
 8004a28:	40020c00 	.word	0x40020c00
 8004a2c:	40021000 	.word	0x40021000
 8004a30:	40005400 	.word	0x40005400
 8004a34:	00061a80 	.word	0x00061a80
 8004a38:	20000320 	.word	0x20000320
 8004a3c:	200003ac 	.word	0x200003ac
 8004a40:	40013000 	.word	0x40013000
 8004a44:	40014400 	.word	0x40014400
 8004a48:	40014800 	.word	0x40014800
 8004a4c:	20000260 	.word	0x20000260
 8004a50:	200002a0 	.word	0x200002a0
 8004a54:	40011000 	.word	0x40011000
 8004a58:	20000408 	.word	0x20000408
 8004a5c:	40004400 	.word	0x40004400
 8004a60:	20000114 	.word	0x20000114
 8004a64:	40004800 	.word	0x40004800
 8004a68:	0800739c 	.word	0x0800739c
 8004a6c:	200000a0 	.word	0x200000a0
 8004a70:	20000340 	.word	0x20000340
 8004a74:	2000025e 	.word	0x2000025e
 8004a78:	20000404 	.word	0x20000404
 8004a7c:	200001b4 	.word	0x200001b4
 8004a80:	20000208 	.word	0x20000208
 8004a84:	200002e0 	.word	0x200002e0
 8004a88:	40001c00 	.word	0x40001c00
 8004a8c:	0001193f 	.word	0x0001193f
 8004a90:	f7fc faa8 	bl	8000fe4 <HAL_NVIC_EnableIRQ>
 8004a94:	4658      	mov	r0, fp
 8004a96:	f7fe fed9 	bl	800384c <HAL_TIM_Base_Start_IT>
 8004a9a:	4650      	mov	r0, sl
 8004a9c:	f7fe fed6 	bl	800384c <HAL_TIM_Base_Start_IT>
 8004aa0:	f44f 777a 	mov.w	r7, #1000	; 0x3e8
 8004aa4:	46a2      	mov	sl, r4
 8004aa6:	46a1      	mov	r9, r4
 8004aa8:	8037      	strh	r7, [r6, #0]
 8004aaa:	f7fc fa3b 	bl	8000f24 <HAL_GetTick>
 8004aae:	1b03      	subs	r3, r0, r4
 8004ab0:	f5b3 7ffa 	cmp.w	r3, #500	; 0x1f4
 8004ab4:	f04f 0110 	mov.w	r1, #16
 8004ab8:	4628      	mov	r0, r5
 8004aba:	d22c      	bcs.n	8004b16 <main+0x42e>
 8004abc:	f7fc fe02 	bl	80016c4 <HAL_GPIO_ReadPin>
 8004ac0:	2800      	cmp	r0, #0
 8004ac2:	d1f1      	bne.n	8004aa8 <main+0x3c0>
 8004ac4:	464f      	mov	r7, r9
 8004ac6:	2f01      	cmp	r7, #1
 8004ac8:	d013      	beq.n	8004af2 <main+0x40a>
 8004aca:	d32c      	bcc.n	8004b26 <main+0x43e>
 8004acc:	2f02      	cmp	r7, #2
 8004ace:	d147      	bne.n	8004b60 <main+0x478>
 8004ad0:	f44f 7096 	mov.w	r0, #300	; 0x12c
 8004ad4:	f7ff fb10 	bl	80040f8 <yaw>
 8004ad8:	f7fc fa24 	bl	8000f24 <HAL_GetTick>
 8004adc:	1b00      	subs	r0, r0, r4
 8004ade:	f5b0 7ffa 	cmp.w	r0, #500	; 0x1f4
 8004ae2:	d268      	bcs.n	8004bb6 <main+0x4ce>
 8004ae4:	2110      	movs	r1, #16
 8004ae6:	4628      	mov	r0, r5
 8004ae8:	2703      	movs	r7, #3
 8004aea:	f7fc fdeb 	bl	80016c4 <HAL_GPIO_ReadPin>
 8004aee:	2f01      	cmp	r7, #1
 8004af0:	d1eb      	bne.n	8004aca <main+0x3e2>
 8004af2:	f7fc fa17 	bl	8000f24 <HAL_GetTick>
 8004af6:	eba0 000a 	sub.w	r0, r0, sl
 8004afa:	4540      	cmp	r0, r8
 8004afc:	d83c      	bhi.n	8004b78 <main+0x490>
 8004afe:	f7fc fa11 	bl	8000f24 <HAL_GetTick>
 8004b02:	1b00      	subs	r0, r0, r4
 8004b04:	f5b0 7ffa 	cmp.w	r0, #500	; 0x1f4
 8004b08:	d24b      	bcs.n	8004ba2 <main+0x4ba>
 8004b0a:	2110      	movs	r1, #16
 8004b0c:	4628      	mov	r0, r5
 8004b0e:	f7fc fdd9 	bl	80016c4 <HAL_GPIO_ReadPin>
 8004b12:	2701      	movs	r7, #1
 8004b14:	e7d7      	b.n	8004ac6 <main+0x3de>
 8004b16:	f7ff fd1b 	bl	8004550 <dump_quat_on_uart>
 8004b1a:	f7fc fa03 	bl	8000f24 <HAL_GetTick>
 8004b1e:	2110      	movs	r1, #16
 8004b20:	4604      	mov	r4, r0
 8004b22:	4628      	mov	r0, r5
 8004b24:	e7ca      	b.n	8004abc <main+0x3d4>
 8004b26:	f240 59db 	movw	r9, #1499	; 0x5db
 8004b2a:	8833      	ldrh	r3, [r6, #0]
 8004b2c:	454b      	cmp	r3, r9
 8004b2e:	f103 0201 	add.w	r2, r3, #1
 8004b32:	d82d      	bhi.n	8004b90 <main+0x4a8>
 8004b34:	8032      	strh	r2, [r6, #0]
 8004b36:	f7fc f9f5 	bl	8000f24 <HAL_GetTick>
 8004b3a:	1b00      	subs	r0, r0, r4
 8004b3c:	f5b0 7ffa 	cmp.w	r0, #500	; 0x1f4
 8004b40:	d259      	bcs.n	8004bf6 <main+0x50e>
 8004b42:	2110      	movs	r1, #16
 8004b44:	4628      	mov	r0, r5
 8004b46:	f7fc fdbd 	bl	80016c4 <HAL_GPIO_ReadPin>
 8004b4a:	e7bc      	b.n	8004ac6 <main+0x3de>
 8004b4c:	f7ff fd00 	bl	8004550 <dump_quat_on_uart>
 8004b50:	f7fc f9e8 	bl	8000f24 <HAL_GetTick>
 8004b54:	2110      	movs	r1, #16
 8004b56:	4604      	mov	r4, r0
 8004b58:	4628      	mov	r0, r5
 8004b5a:	f7fc fdb3 	bl	80016c4 <HAL_GPIO_ReadPin>
 8004b5e:	2703      	movs	r7, #3
 8004b60:	f7fc f9e0 	bl	8000f24 <HAL_GetTick>
 8004b64:	1b00      	subs	r0, r0, r4
 8004b66:	f5b0 7ffa 	cmp.w	r0, #500	; 0x1f4
 8004b6a:	d3ea      	bcc.n	8004b42 <main+0x45a>
 8004b6c:	f7ff fcf0 	bl	8004550 <dump_quat_on_uart>
 8004b70:	f7fc f9d8 	bl	8000f24 <HAL_GetTick>
 8004b74:	4604      	mov	r4, r0
 8004b76:	e7e4      	b.n	8004b42 <main+0x45a>
 8004b78:	f7fc f9d4 	bl	8000f24 <HAL_GetTick>
 8004b7c:	1b00      	subs	r0, r0, r4
 8004b7e:	f5b0 7ffa 	cmp.w	r0, #500	; 0x1f4
 8004b82:	d242      	bcs.n	8004c0a <main+0x522>
 8004b84:	2110      	movs	r1, #16
 8004b86:	4628      	mov	r0, r5
 8004b88:	f7fc fd9c 	bl	80016c4 <HAL_GPIO_ReadPin>
 8004b8c:	2702      	movs	r7, #2
 8004b8e:	e79a      	b.n	8004ac6 <main+0x3de>
 8004b90:	f7fc f9c8 	bl	8000f24 <HAL_GetTick>
 8004b94:	4682      	mov	sl, r0
 8004b96:	f7fc f9c5 	bl	8000f24 <HAL_GetTick>
 8004b9a:	1b00      	subs	r0, r0, r4
 8004b9c:	f5b0 7ffa 	cmp.w	r0, #500	; 0x1f4
 8004ba0:	d3b3      	bcc.n	8004b0a <main+0x422>
 8004ba2:	f7ff fcd5 	bl	8004550 <dump_quat_on_uart>
 8004ba6:	f7fc f9bd 	bl	8000f24 <HAL_GetTick>
 8004baa:	2110      	movs	r1, #16
 8004bac:	4604      	mov	r4, r0
 8004bae:	4628      	mov	r0, r5
 8004bb0:	f7fc fd88 	bl	80016c4 <HAL_GPIO_ReadPin>
 8004bb4:	e79d      	b.n	8004af2 <main+0x40a>
 8004bb6:	f7ff fccb 	bl	8004550 <dump_quat_on_uart>
 8004bba:	f7fc f9b3 	bl	8000f24 <HAL_GetTick>
 8004bbe:	2110      	movs	r1, #16
 8004bc0:	4604      	mov	r4, r0
 8004bc2:	4628      	mov	r0, r5
 8004bc4:	f7fc fd7e 	bl	80016c4 <HAL_GPIO_ReadPin>
 8004bc8:	b348      	cbz	r0, 8004c1e <main+0x536>
 8004bca:	f7fc f9ab 	bl	8000f24 <HAL_GetTick>
 8004bce:	1b00      	subs	r0, r0, r4
 8004bd0:	f5b0 7ffa 	cmp.w	r0, #500	; 0x1f4
 8004bd4:	d386      	bcc.n	8004ae4 <main+0x3fc>
 8004bd6:	f7ff fcbb 	bl	8004550 <dump_quat_on_uart>
 8004bda:	f7fc f9a3 	bl	8000f24 <HAL_GetTick>
 8004bde:	2110      	movs	r1, #16
 8004be0:	4604      	mov	r4, r0
 8004be2:	4628      	mov	r0, r5
 8004be4:	f7fc fd6e 	bl	80016c4 <HAL_GPIO_ReadPin>
 8004be8:	f04f 0903 	mov.w	r9, #3
 8004bec:	464f      	mov	r7, r9
 8004bee:	2800      	cmp	r0, #0
 8004bf0:	f43f af69 	beq.w	8004ac6 <main+0x3de>
 8004bf4:	e766      	b.n	8004ac4 <main+0x3dc>
 8004bf6:	f7ff fcab 	bl	8004550 <dump_quat_on_uart>
 8004bfa:	f7fc f993 	bl	8000f24 <HAL_GetTick>
 8004bfe:	2110      	movs	r1, #16
 8004c00:	4604      	mov	r4, r0
 8004c02:	4628      	mov	r0, r5
 8004c04:	f7fc fd5e 	bl	80016c4 <HAL_GPIO_ReadPin>
 8004c08:	e78f      	b.n	8004b2a <main+0x442>
 8004c0a:	f7ff fca1 	bl	8004550 <dump_quat_on_uart>
 8004c0e:	f7fc f989 	bl	8000f24 <HAL_GetTick>
 8004c12:	2110      	movs	r1, #16
 8004c14:	4604      	mov	r4, r0
 8004c16:	4628      	mov	r0, r5
 8004c18:	f7fc fd54 	bl	80016c4 <HAL_GPIO_ReadPin>
 8004c1c:	e758      	b.n	8004ad0 <main+0x3e8>
 8004c1e:	f7fc f981 	bl	8000f24 <HAL_GetTick>
 8004c22:	1b00      	subs	r0, r0, r4
 8004c24:	f5b0 7ffa 	cmp.w	r0, #500	; 0x1f4
 8004c28:	d290      	bcs.n	8004b4c <main+0x464>
 8004c2a:	2703      	movs	r7, #3
 8004c2c:	e789      	b.n	8004b42 <main+0x45a>
 8004c2e:	bf00      	nop

08004c30 <Error_Handler>:
 8004c30:	4770      	bx	lr
 8004c32:	bf00      	nop

08004c34 <mpu_init_std>:
 8004c34:	b570      	push	{r4, r5, r6, lr}
 8004c36:	b086      	sub	sp, #24
 8004c38:	4604      	mov	r4, r0
 8004c3a:	ad06      	add	r5, sp, #24
 8004c3c:	4817      	ldr	r0, [pc, #92]	; (8004c9c <mpu_init_std+0x68>)
 8004c3e:	f7ff fa59 	bl	80040f4 <print_uart>
 8004c42:	2318      	movs	r3, #24
 8004c44:	f805 3d01 	strb.w	r3, [r5, #-1]!
 8004c48:	4915      	ldr	r1, [pc, #84]	; (8004ca0 <mpu_init_std+0x6c>)
 8004c4a:	9500      	str	r5, [sp, #0]
 8004c4c:	22a0      	movs	r2, #160	; 0xa0
 8004c4e:	2301      	movs	r3, #1
 8004c50:	f44f 66fa 	mov.w	r6, #2000	; 0x7d0
 8004c54:	e9cd 3201 	strd	r3, r2, [sp, #4]
 8004c58:	4620      	mov	r0, r4
 8004c5a:	800e      	strh	r6, [r1, #0]
 8004c5c:	221b      	movs	r2, #27
 8004c5e:	21d0      	movs	r1, #208	; 0xd0
 8004c60:	f7fc ffee 	bl	8001c40 <HAL_I2C_Mem_Write>
 8004c64:	f894 303d 	ldrb.w	r3, [r4, #61]	; 0x3d
 8004c68:	2b20      	cmp	r3, #32
 8004c6a:	d1fb      	bne.n	8004c64 <mpu_init_std+0x30>
 8004c6c:	490d      	ldr	r1, [pc, #52]	; (8004ca4 <mpu_init_std+0x70>)
 8004c6e:	9500      	str	r5, [sp, #0]
 8004c70:	22a0      	movs	r2, #160	; 0xa0
 8004c72:	f44f 607a 	mov.w	r0, #4000	; 0xfa0
 8004c76:	2301      	movs	r3, #1
 8004c78:	e9cd 3201 	strd	r3, r2, [sp, #4]
 8004c7c:	2508      	movs	r5, #8
 8004c7e:	8008      	strh	r0, [r1, #0]
 8004c80:	221c      	movs	r2, #28
 8004c82:	21d0      	movs	r1, #208	; 0xd0
 8004c84:	4620      	mov	r0, r4
 8004c86:	f88d 5017 	strb.w	r5, [sp, #23]
 8004c8a:	f7fc ffd9 	bl	8001c40 <HAL_I2C_Mem_Write>
 8004c8e:	f894 303d 	ldrb.w	r3, [r4, #61]	; 0x3d
 8004c92:	2b20      	cmp	r3, #32
 8004c94:	d1fb      	bne.n	8004c8e <mpu_init_std+0x5a>
 8004c96:	b006      	add	sp, #24
 8004c98:	bd70      	pop	{r4, r5, r6, pc}
 8004c9a:	bf00      	nop
 8004c9c:	080073a8 	.word	0x080073a8
 8004ca0:	2000000e 	.word	0x2000000e
 8004ca4:	2000000c 	.word	0x2000000c

08004ca8 <mpu_calibrate>:
 8004ca8:	e92d 4ff0 	stmdb	sp!, {r4, r5, r6, r7, r8, r9, sl, fp, lr}
 8004cac:	ed2d 8b06 	vpush	{d8-d10}
 8004cb0:	b089      	sub	sp, #36	; 0x24
 8004cb2:	e9cd 1204 	strd	r1, r2, [sp, #16]
 8004cb6:	2400      	movs	r4, #0
 8004cb8:	4680      	mov	r8, r0
 8004cba:	4626      	mov	r6, r4
 8004cbc:	4625      	mov	r5, r4
 8004cbe:	271e      	movs	r7, #30
 8004cc0:	f10d 0918 	add.w	r9, sp, #24
 8004cc4:	f04f 0ba0 	mov.w	fp, #160	; 0xa0
 8004cc8:	f04f 0a06 	mov.w	sl, #6
 8004ccc:	2301      	movs	r3, #1
 8004cce:	2243      	movs	r2, #67	; 0x43
 8004cd0:	21d0      	movs	r1, #208	; 0xd0
 8004cd2:	e9cd ab01 	strd	sl, fp, [sp, #4]
 8004cd6:	f8cd 9000 	str.w	r9, [sp]
 8004cda:	4640      	mov	r0, r8
 8004cdc:	f7fd f8a0 	bl	8001e20 <HAL_I2C_Mem_Read>
 8004ce0:	f89d 001c 	ldrb.w	r0, [sp, #28]
 8004ce4:	f89d e018 	ldrb.w	lr, [sp, #24]
 8004ce8:	f89d 1019 	ldrb.w	r1, [sp, #25]
 8004cec:	f89d c01a 	ldrb.w	ip, [sp, #26]
 8004cf0:	f89d 201b 	ldrb.w	r2, [sp, #27]
 8004cf4:	f89d 301d 	ldrb.w	r3, [sp, #29]
 8004cf8:	ea41 210e 	orr.w	r1, r1, lr, lsl #8
 8004cfc:	ea43 2300 	orr.w	r3, r3, r0, lsl #8
 8004d00:	ea42 220c 	orr.w	r2, r2, ip, lsl #8
 8004d04:	200a      	movs	r0, #10
 8004d06:	3f01      	subs	r7, #1
 8004d08:	440c      	add	r4, r1
 8004d0a:	4416      	add	r6, r2
 8004d0c:	441d      	add	r5, r3
 8004d0e:	f7fc f90f 	bl	8000f30 <HAL_Delay>
 8004d12:	f017 07ff 	ands.w	r7, r7, #255	; 0xff
 8004d16:	b224      	sxth	r4, r4
 8004d18:	b236      	sxth	r6, r6
 8004d1a:	b22d      	sxth	r5, r5
 8004d1c:	d1d6      	bne.n	8004ccc <mpu_calibrate+0x24>
 8004d1e:	4b82      	ldr	r3, [pc, #520]	; (8004f28 <mpu_calibrate+0x280>)
 8004d20:	fb83 2104 	smull	r2, r1, r3, r4
 8004d24:	fb83 0206 	smull	r0, r2, r3, r6
 8004d28:	fb83 0305 	smull	r0, r3, r3, r5
 8004d2c:	442b      	add	r3, r5
 8004d2e:	17ed      	asrs	r5, r5, #31
 8004d30:	ebc5 1523 	rsb	r5, r5, r3, asr #4
 8004d34:	4421      	add	r1, r4
 8004d36:	9b04      	ldr	r3, [sp, #16]
 8004d38:	4432      	add	r2, r6
 8004d3a:	17e4      	asrs	r4, r4, #31
 8004d3c:	17f6      	asrs	r6, r6, #31
 8004d3e:	ebc4 1421 	rsb	r4, r4, r1, asr #4
 8004d42:	ebc6 1622 	rsb	r6, r6, r2, asr #4
 8004d46:	701c      	strb	r4, [r3, #0]
 8004d48:	705e      	strb	r6, [r3, #1]
 8004d4a:	709d      	strb	r5, [r3, #2]
 8004d4c:	463c      	mov	r4, r7
 8004d4e:	463d      	mov	r5, r7
 8004d50:	2603      	movs	r6, #3
 8004d52:	f04f 0ba0 	mov.w	fp, #160	; 0xa0
 8004d56:	f04f 0a06 	mov.w	sl, #6
 8004d5a:	2301      	movs	r3, #1
 8004d5c:	223b      	movs	r2, #59	; 0x3b
 8004d5e:	21d0      	movs	r1, #208	; 0xd0
 8004d60:	e9cd ab01 	strd	sl, fp, [sp, #4]
 8004d64:	f8cd 9000 	str.w	r9, [sp]
 8004d68:	4640      	mov	r0, r8
 8004d6a:	f7fd f859 	bl	8001e20 <HAL_I2C_Mem_Read>
 8004d6e:	f89d 001c 	ldrb.w	r0, [sp, #28]
 8004d72:	f89d e018 	ldrb.w	lr, [sp, #24]
 8004d76:	f89d 1019 	ldrb.w	r1, [sp, #25]
 8004d7a:	f89d c01a 	ldrb.w	ip, [sp, #26]
 8004d7e:	f89d 201b 	ldrb.w	r2, [sp, #27]
 8004d82:	f89d 301d 	ldrb.w	r3, [sp, #29]
 8004d86:	ea41 210e 	orr.w	r1, r1, lr, lsl #8
 8004d8a:	ea43 2300 	orr.w	r3, r3, r0, lsl #8
 8004d8e:	ea42 220c 	orr.w	r2, r2, ip, lsl #8
 8004d92:	2005      	movs	r0, #5
 8004d94:	3e01      	subs	r6, #1
 8004d96:	440c      	add	r4, r1
 8004d98:	4415      	add	r5, r2
 8004d9a:	441f      	add	r7, r3
 8004d9c:	f7fc f8c8 	bl	8000f30 <HAL_Delay>
 8004da0:	f016 06ff 	ands.w	r6, r6, #255	; 0xff
 8004da4:	b224      	sxth	r4, r4
 8004da6:	b22d      	sxth	r5, r5
 8004da8:	b23f      	sxth	r7, r7
 8004daa:	d1d6      	bne.n	8004d5a <mpu_calibrate+0xb2>
 8004dac:	4b5f      	ldr	r3, [pc, #380]	; (8004f2c <mpu_calibrate+0x284>)
 8004dae:	fb83 1205 	smull	r1, r2, r3, r5
 8004db2:	eba2 75e5 	sub.w	r5, r2, r5, asr #31
 8004db6:	fb83 1204 	smull	r1, r2, r3, r4
 8004dba:	eba2 74e4 	sub.w	r4, r2, r4, asr #31
 8004dbe:	b22d      	sxth	r5, r5
 8004dc0:	fb83 2307 	smull	r2, r3, r3, r7
 8004dc4:	eba3 77e7 	sub.w	r7, r3, r7, asr #31
 8004dc8:	fb05 f205 	mul.w	r2, r5, r5
 8004dcc:	b224      	sxth	r4, r4
 8004dce:	fb04 2304 	mla	r3, r4, r4, r2
 8004dd2:	b23f      	sxth	r7, r7
 8004dd4:	fb07 3307 	mla	r3, r7, r7, r3
 8004dd8:	ee00 3a10 	vmov	s0, r3
 8004ddc:	eeb8 0ac0 	vcvt.f32.s32	s0, s0
 8004de0:	eeb5 0a40 	vcmp.f32	s0, #0.0
 8004de4:	eef1 fa10 	vmrs	APSR_nzcv, fpscr
 8004de8:	eeb1 9ac0 	vsqrt.f32	s18, s0
 8004dec:	f100 8093 	bmi.w	8004f16 <mpu_calibrate+0x26e>
 8004df0:	ee07 4a90 	vmov	s15, r4
 8004df4:	ee07 5a10 	vmov	s14, r5
 8004df8:	eef8 7ae7 	vcvt.f32.s32	s15, s15
 8004dfc:	eeb8 7ac7 	vcvt.f32.s32	s14, s14
 8004e00:	eec7 8a89 	vdiv.f32	s17, s15, s18
 8004e04:	426d      	negs	r5, r5
 8004e06:	eec7 7a09 	vdiv.f32	s15, s14, s18
 8004e0a:	ed9f 8a49 	vldr	s16, [pc, #292]	; 8004f30 <mpu_calibrate+0x288>
 8004e0e:	ee17 0a90 	vmov	r0, s15
 8004e12:	f7fb fb3d 	bl	8000490 <__aeabi_f2d>
 8004e16:	ec41 0b10 	vmov	d0, r0, r1
 8004e1a:	f000 fd05 	bl	8005828 <asin>
 8004e1e:	2200      	movs	r2, #0
 8004e20:	ec51 0b10 	vmov	r0, r1, d0
 8004e24:	4b43      	ldr	r3, [pc, #268]	; (8004f34 <mpu_calibrate+0x28c>)
 8004e26:	f7fb fb8b 	bl	8000540 <__aeabi_dmul>
 8004e2a:	a33d      	add	r3, pc, #244	; (adr r3, 8004f20 <mpu_calibrate+0x278>)
 8004e2c:	e9d3 2300 	ldrd	r2, r3, [r3]
 8004e30:	f7fb fcb0 	bl	8000794 <__aeabi_ddiv>
 8004e34:	f7fb fe5c 	bl	8000af0 <__aeabi_d2f>
 8004e38:	9c05      	ldr	r4, [sp, #20]
 8004e3a:	eef1 7a68 	vneg.f32	s15, s17
 8004e3e:	6020      	str	r0, [r4, #0]
 8004e40:	ee17 0a90 	vmov	r0, s15
 8004e44:	f7fb fb24 	bl	8000490 <__aeabi_f2d>
 8004e48:	ec41 0b10 	vmov	d0, r0, r1
 8004e4c:	f000 fcec 	bl	8005828 <asin>
 8004e50:	2200      	movs	r2, #0
 8004e52:	ec51 0b10 	vmov	r0, r1, d0
 8004e56:	4b37      	ldr	r3, [pc, #220]	; (8004f34 <mpu_calibrate+0x28c>)
 8004e58:	f7fb fb72 	bl	8000540 <__aeabi_dmul>
 8004e5c:	a330      	add	r3, pc, #192	; (adr r3, 8004f20 <mpu_calibrate+0x278>)
 8004e5e:	e9d3 2300 	ldrd	r2, r3, [r3]
 8004e62:	f7fb fc97 	bl	8000794 <__aeabi_ddiv>
 8004e66:	f7fb fe43 	bl	8000af0 <__aeabi_d2f>
 8004e6a:	ee07 7a90 	vmov	s15, r7
 8004e6e:	eef8 7ae7 	vcvt.f32.s32	s15, s15
 8004e72:	6060      	str	r0, [r4, #4]
 8004e74:	eec7 7a89 	vdiv.f32	s15, s15, s18
 8004e78:	ed84 8a02 	vstr	s16, [r4, #8]
 8004e7c:	ee17 0a90 	vmov	r0, s15
 8004e80:	f7fb fb06 	bl	8000490 <__aeabi_f2d>
 8004e84:	ec41 0b10 	vmov	d0, r0, r1
 8004e88:	f000 fc76 	bl	8005778 <acos>
 8004e8c:	ec51 0b10 	vmov	r0, r1, d0
 8004e90:	f7fb fe2e 	bl	8000af0 <__aeabi_d2f>
 8004e94:	ee07 0a10 	vmov	s14, r0
 8004e98:	eef6 7a00 	vmov.f32	s15, #96	; 0x3f000000  0.5
 8004e9c:	ee67 7a27 	vmul.f32	s15, s14, s15
 8004ea0:	ee17 0a90 	vmov	r0, s15
 8004ea4:	f7fb faf4 	bl	8000490 <__aeabi_f2d>
 8004ea8:	ec41 0b10 	vmov	d0, r0, r1
 8004eac:	ec41 0b1a 	vmov	d10, r0, r1
 8004eb0:	f000 fc1a 	bl	80056e8 <sin>
 8004eb4:	ec51 0b10 	vmov	r0, r1, d0
 8004eb8:	f7fb fe1a 	bl	8000af0 <__aeabi_d2f>
 8004ebc:	eeb0 0a4a 	vmov.f32	s0, s20
 8004ec0:	eef0 0a6a 	vmov.f32	s1, s21
 8004ec4:	ee09 0a90 	vmov	s19, r0
 8004ec8:	f000 fbca 	bl	8005660 <cos>
 8004ecc:	ec51 0b10 	vmov	r0, r1, d0
 8004ed0:	f7fb fe0e 	bl	8000af0 <__aeabi_d2f>
 8004ed4:	ee07 5a90 	vmov	s15, r5
 8004ed8:	eef8 7ae7 	vcvt.f32.s32	s15, s15
 8004edc:	4a16      	ldr	r2, [pc, #88]	; (8004f38 <mpu_calibrate+0x290>)
 8004ede:	4b17      	ldr	r3, [pc, #92]	; (8004f3c <mpu_calibrate+0x294>)
 8004ee0:	6010      	str	r0, [r2, #0]
 8004ee2:	ee87 7a89 	vdiv.f32	s14, s15, s18
 8004ee6:	6018      	str	r0, [r3, #0]
 8004ee8:	ee68 8aa9 	vmul.f32	s17, s17, s19
 8004eec:	ee29 8a88 	vmul.f32	s16, s19, s16
 8004ef0:	ee67 7a29 	vmul.f32	s15, s14, s19
 8004ef4:	edc2 8a02 	vstr	s17, [r2, #8]
 8004ef8:	edc2 7a01 	vstr	s15, [r2, #4]
 8004efc:	ed82 8a03 	vstr	s16, [r2, #12]
 8004f00:	edc3 7a01 	vstr	s15, [r3, #4]
 8004f04:	edc3 8a02 	vstr	s17, [r3, #8]
 8004f08:	ed83 8a03 	vstr	s16, [r3, #12]
 8004f0c:	b009      	add	sp, #36	; 0x24
 8004f0e:	ecbd 8b06 	vpop	{d8-d10}
 8004f12:	e8bd 8ff0 	ldmia.w	sp!, {r4, r5, r6, r7, r8, r9, sl, fp, pc}
 8004f16:	f000 fcdf 	bl	80058d8 <sqrtf>
 8004f1a:	e769      	b.n	8004df0 <mpu_calibrate+0x148>
 8004f1c:	f3af 8000 	nop.w
 8004f20:	54442d18 	.word	0x54442d18
 8004f24:	401921fb 	.word	0x401921fb
 8004f28:	88888889 	.word	0x88888889
 8004f2c:	55555556 	.word	0x55555556
 8004f30:	00000000 	.word	0x00000000
 8004f34:	40768000 	.word	0x40768000
 8004f38:	200000b4 	.word	0x200000b4
 8004f3c:	200000f8 	.word	0x200000f8

08004f40 <mpu_get_all_dma>:
 8004f40:	b510      	push	{r4, lr}
 8004f42:	2200      	movs	r2, #0
 8004f44:	b082      	sub	sp, #8
 8004f46:	4604      	mov	r4, r0
 8004f48:	2102      	movs	r1, #2
 8004f4a:	4807      	ldr	r0, [pc, #28]	; (8004f68 <mpu_get_all_dma+0x28>)
 8004f4c:	f7fc fbc0 	bl	80016d0 <HAL_GPIO_WritePin>
 8004f50:	220e      	movs	r2, #14
 8004f52:	4b06      	ldr	r3, [pc, #24]	; (8004f6c <mpu_get_all_dma+0x2c>)
 8004f54:	9201      	str	r2, [sp, #4]
 8004f56:	9300      	str	r3, [sp, #0]
 8004f58:	4620      	mov	r0, r4
 8004f5a:	2301      	movs	r3, #1
 8004f5c:	223b      	movs	r2, #59	; 0x3b
 8004f5e:	21d0      	movs	r1, #208	; 0xd0
 8004f60:	f7fd f8e6 	bl	8002130 <HAL_I2C_Mem_Read_DMA>
 8004f64:	b002      	add	sp, #8
 8004f66:	bd10      	pop	{r4, pc}
 8004f68:	40020400 	.word	0x40020400
 8004f6c:	20000250 	.word	0x20000250

08004f70 <mpu_cs>:
 8004f70:	4602      	mov	r2, r0
 8004f72:	2102      	movs	r1, #2
 8004f74:	4801      	ldr	r0, [pc, #4]	; (8004f7c <mpu_cs+0xc>)
 8004f76:	f7fc bbab 	b.w	80016d0 <HAL_GPIO_WritePin>
 8004f7a:	bf00      	nop
 8004f7c:	40020400 	.word	0x40020400

08004f80 <quat_qpq>:
 8004f80:	ed90 6a01 	vldr	s12, [r0, #4]
 8004f84:	ed91 2a00 	vldr	s4, [r1]
 8004f88:	edd0 7a03 	vldr	s15, [r0, #12]
 8004f8c:	edd0 4a02 	vldr	s9, [r0, #8]
 8004f90:	ed90 4a00 	vldr	s8, [r0]
 8004f94:	ed91 3a01 	vldr	s6, [r1, #4]
 8004f98:	edd1 3a03 	vldr	s7, [r1, #12]
 8004f9c:	edd1 2a02 	vldr	s5, [r1, #8]
 8004fa0:	ee26 7a02 	vmul.f32	s14, s12, s4
 8004fa4:	ee67 5a82 	vmul.f32	s11, s15, s4
 8004fa8:	ee64 6a82 	vmul.f32	s13, s9, s4
 8004fac:	eea4 7a03 	vfma.f32	s14, s8, s6
 8004fb0:	4610      	mov	r0, r2
 8004fb2:	ee23 5a46 	vnmul.f32	s10, s6, s12
 8004fb6:	eee4 5a23 	vfma.f32	s11, s8, s7
 8004fba:	eee4 6a22 	vfma.f32	s13, s8, s5
 8004fbe:	eea4 5a02 	vfma.f32	s10, s8, s4
 8004fc2:	eea4 7aa3 	vfma.f32	s14, s9, s7
 8004fc6:	eee6 5a22 	vfma.f32	s11, s12, s5
 8004fca:	eef1 4a64 	vneg.f32	s9, s9
 8004fce:	eee7 6a83 	vfma.f32	s13, s15, s6
 8004fd2:	eea4 5aa2 	vfma.f32	s10, s9, s5
 8004fd6:	eef1 7a67 	vneg.f32	s15, s15
 8004fda:	eeb1 6a46 	vneg.f32	s12, s12
 8004fde:	eea7 7aa2 	vfma.f32	s14, s15, s5
 8004fe2:	eee4 5a83 	vfma.f32	s11, s9, s6
 8004fe6:	eee6 6a23 	vfma.f32	s13, s12, s7
 8004fea:	eea7 5aa3 	vfma.f32	s10, s15, s7
 8004fee:	ee24 3a25 	vmul.f32	s6, s8, s11
 8004ff2:	ee27 2a46 	vnmul.f32	s4, s14, s12
 8004ff6:	ee64 2a07 	vmul.f32	s5, s8, s14
 8004ffa:	ee64 3a26 	vmul.f32	s7, s8, s13
 8004ffe:	eea4 2a05 	vfma.f32	s4, s8, s10
 8005002:	eeb0 4a43 	vmov.f32	s8, s6
 8005006:	eee6 2a05 	vfma.f32	s5, s12, s10
 800500a:	eea7 4a85 	vfma.f32	s8, s15, s10
 800500e:	eee4 3a85 	vfma.f32	s7, s9, s10
 8005012:	eef1 1a64 	vneg.f32	s3, s9
 8005016:	eeb0 3a42 	vmov.f32	s6, s4
 800501a:	eea4 4a87 	vfma.f32	s8, s9, s14
 800501e:	eeb0 5a63 	vmov.f32	s10, s7
 8005022:	eea1 3aa6 	vfma.f32	s6, s3, s13
 8005026:	eef0 3a62 	vmov.f32	s7, s5
 800502a:	eee7 3aa6 	vfma.f32	s7, s15, s13
 800502e:	eea6 5a25 	vfma.f32	s10, s12, s11
 8005032:	eef1 7a67 	vneg.f32	s15, s15
 8005036:	eef0 4a44 	vmov.f32	s9, s8
 800503a:	eeb0 4a43 	vmov.f32	s8, s6
 800503e:	eea7 4aa5 	vfma.f32	s8, s15, s11
 8005042:	eee1 3aa5 	vfma.f32	s7, s3, s11
 8005046:	eee6 4a66 	vfms.f32	s9, s12, s13
 800504a:	eea7 5a87 	vfma.f32	s10, s15, s14
 800504e:	ed82 4a00 	vstr	s8, [r2]
 8005052:	edc2 3a01 	vstr	s7, [r2, #4]
 8005056:	edc2 4a03 	vstr	s9, [r2, #12]
 800505a:	ed82 5a02 	vstr	s10, [r2, #8]
 800505e:	4770      	bx	lr

08005060 <quat_copy>:
 8005060:	b430      	push	{r4, r5}
 8005062:	6882      	ldr	r2, [r0, #8]
 8005064:	6805      	ldr	r5, [r0, #0]
 8005066:	6844      	ldr	r4, [r0, #4]
 8005068:	68c3      	ldr	r3, [r0, #12]
 800506a:	60cb      	str	r3, [r1, #12]
 800506c:	600d      	str	r5, [r1, #0]
 800506e:	604c      	str	r4, [r1, #4]
 8005070:	608a      	str	r2, [r1, #8]
 8005072:	bc30      	pop	{r4, r5}
 8005074:	4770      	bx	lr
 8005076:	bf00      	nop

08005078 <HAL_MspInit>:
 8005078:	b082      	sub	sp, #8
 800507a:	4b0c      	ldr	r3, [pc, #48]	; (80050ac <HAL_MspInit+0x34>)
 800507c:	2100      	movs	r1, #0
 800507e:	9100      	str	r1, [sp, #0]
 8005080:	6c5a      	ldr	r2, [r3, #68]	; 0x44
 8005082:	f442 4280 	orr.w	r2, r2, #16384	; 0x4000
 8005086:	645a      	str	r2, [r3, #68]	; 0x44
 8005088:	6c5a      	ldr	r2, [r3, #68]	; 0x44
 800508a:	f402 4280 	and.w	r2, r2, #16384	; 0x4000
 800508e:	9200      	str	r2, [sp, #0]
 8005090:	9a00      	ldr	r2, [sp, #0]
 8005092:	9101      	str	r1, [sp, #4]
 8005094:	6c1a      	ldr	r2, [r3, #64]	; 0x40
 8005096:	f042 5280 	orr.w	r2, r2, #268435456	; 0x10000000
 800509a:	641a      	str	r2, [r3, #64]	; 0x40
 800509c:	6c1b      	ldr	r3, [r3, #64]	; 0x40
 800509e:	f003 5380 	and.w	r3, r3, #268435456	; 0x10000000
 80050a2:	9301      	str	r3, [sp, #4]
 80050a4:	9b01      	ldr	r3, [sp, #4]
 80050a6:	b002      	add	sp, #8
 80050a8:	4770      	bx	lr
 80050aa:	bf00      	nop
 80050ac:	40023800 	.word	0x40023800

080050b0 <HAL_I2C_MspInit>:
 80050b0:	b5f0      	push	{r4, r5, r6, r7, lr}
 80050b2:	6802      	ldr	r2, [r0, #0]
 80050b4:	4b32      	ldr	r3, [pc, #200]	; (8005180 <HAL_I2C_MspInit+0xd0>)
 80050b6:	b089      	sub	sp, #36	; 0x24
 80050b8:	2400      	movs	r4, #0
 80050ba:	429a      	cmp	r2, r3
 80050bc:	e9cd 4403 	strd	r4, r4, [sp, #12]
 80050c0:	e9cd 4405 	strd	r4, r4, [sp, #20]
 80050c4:	9407      	str	r4, [sp, #28]
 80050c6:	d001      	beq.n	80050cc <HAL_I2C_MspInit+0x1c>
 80050c8:	b009      	add	sp, #36	; 0x24
 80050ca:	bdf0      	pop	{r4, r5, r6, r7, pc}
 80050cc:	4f2d      	ldr	r7, [pc, #180]	; (8005184 <HAL_I2C_MspInit+0xd4>)
 80050ce:	9401      	str	r4, [sp, #4]
 80050d0:	6b3b      	ldr	r3, [r7, #48]	; 0x30
 80050d2:	f043 0302 	orr.w	r3, r3, #2
 80050d6:	633b      	str	r3, [r7, #48]	; 0x30
 80050d8:	6b3b      	ldr	r3, [r7, #48]	; 0x30
 80050da:	f003 0302 	and.w	r3, r3, #2
 80050de:	9301      	str	r3, [sp, #4]
 80050e0:	23c0      	movs	r3, #192	; 0xc0
 80050e2:	9a01      	ldr	r2, [sp, #4]
 80050e4:	9303      	str	r3, [sp, #12]
 80050e6:	2212      	movs	r2, #18
 80050e8:	2301      	movs	r3, #1
 80050ea:	e9cd 2304 	strd	r2, r3, [sp, #16]
 80050ee:	a903      	add	r1, sp, #12
 80050f0:	2304      	movs	r3, #4
 80050f2:	2503      	movs	r5, #3
 80050f4:	4606      	mov	r6, r0
 80050f6:	4824      	ldr	r0, [pc, #144]	; (8005188 <HAL_I2C_MspInit+0xd8>)
 80050f8:	e9cd 5306 	strd	r5, r3, [sp, #24]
 80050fc:	f7fc f9c0 	bl	8001480 <HAL_GPIO_Init>
 8005100:	9402      	str	r4, [sp, #8]
 8005102:	6c3b      	ldr	r3, [r7, #64]	; 0x40
 8005104:	4d21      	ldr	r5, [pc, #132]	; (800518c <HAL_I2C_MspInit+0xdc>)
 8005106:	4922      	ldr	r1, [pc, #136]	; (8005190 <HAL_I2C_MspInit+0xe0>)
 8005108:	60ac      	str	r4, [r5, #8]
 800510a:	f443 1300 	orr.w	r3, r3, #2097152	; 0x200000
 800510e:	643b      	str	r3, [r7, #64]	; 0x40
 8005110:	6c3b      	ldr	r3, [r7, #64]	; 0x40
 8005112:	60ec      	str	r4, [r5, #12]
 8005114:	f403 1300 	and.w	r3, r3, #2097152	; 0x200000
 8005118:	9302      	str	r3, [sp, #8]
 800511a:	f04f 7200 	mov.w	r2, #33554432	; 0x2000000
 800511e:	f44f 6380 	mov.w	r3, #1024	; 0x400
 8005122:	9802      	ldr	r0, [sp, #8]
 8005124:	626c      	str	r4, [r5, #36]	; 0x24
 8005126:	4628      	mov	r0, r5
 8005128:	e9c5 4405 	strd	r4, r4, [r5, #20]
 800512c:	e9c5 4407 	strd	r4, r4, [r5, #28]
 8005130:	e9c5 1200 	strd	r1, r2, [r5]
 8005134:	612b      	str	r3, [r5, #16]
 8005136:	f7fb ff91 	bl	800105c <HAL_DMA_Init>
 800513a:	b9d8      	cbnz	r0, 8005174 <HAL_I2C_MspInit+0xc4>
 800513c:	4c15      	ldr	r4, [pc, #84]	; (8005194 <HAL_I2C_MspInit+0xe4>)
 800513e:	4816      	ldr	r0, [pc, #88]	; (8005198 <HAL_I2C_MspInit+0xe8>)
 8005140:	63b5      	str	r5, [r6, #56]	; 0x38
 8005142:	f04f 7300 	mov.w	r3, #33554432	; 0x2000000
 8005146:	2140      	movs	r1, #64	; 0x40
 8005148:	f44f 6280 	mov.w	r2, #1024	; 0x400
 800514c:	6020      	str	r0, [r4, #0]
 800514e:	6063      	str	r3, [r4, #4]
 8005150:	4620      	mov	r0, r4
 8005152:	2300      	movs	r3, #0
 8005154:	63ae      	str	r6, [r5, #56]	; 0x38
 8005156:	60a1      	str	r1, [r4, #8]
 8005158:	e9c4 3203 	strd	r3, r2, [r4, #12]
 800515c:	e9c4 3305 	strd	r3, r3, [r4, #20]
 8005160:	e9c4 3307 	strd	r3, r3, [r4, #28]
 8005164:	6263      	str	r3, [r4, #36]	; 0x24
 8005166:	f7fb ff79 	bl	800105c <HAL_DMA_Init>
 800516a:	b930      	cbnz	r0, 800517a <HAL_I2C_MspInit+0xca>
 800516c:	6374      	str	r4, [r6, #52]	; 0x34
 800516e:	63a6      	str	r6, [r4, #56]	; 0x38
 8005170:	b009      	add	sp, #36	; 0x24
 8005172:	bdf0      	pop	{r4, r5, r6, r7, pc}
 8005174:	f7ff fd5c 	bl	8004c30 <Error_Handler>
 8005178:	e7e0      	b.n	800513c <HAL_I2C_MspInit+0x8c>
 800517a:	f7ff fd59 	bl	8004c30 <Error_Handler>
 800517e:	e7f5      	b.n	800516c <HAL_I2C_MspInit+0xbc>
 8005180:	40005400 	.word	0x40005400
 8005184:	40023800 	.word	0x40023800
 8005188:	40020400 	.word	0x40020400
 800518c:	20000344 	.word	0x20000344
 8005190:	40026010 	.word	0x40026010
 8005194:	20000154 	.word	0x20000154
 8005198:	400260a0 	.word	0x400260a0

0800519c <HAL_RTC_MspInit>:
 800519c:	6802      	ldr	r2, [r0, #0]
 800519e:	4b03      	ldr	r3, [pc, #12]	; (80051ac <HAL_RTC_MspInit+0x10>)
 80051a0:	429a      	cmp	r2, r3
 80051a2:	d102      	bne.n	80051aa <HAL_RTC_MspInit+0xe>
 80051a4:	4b02      	ldr	r3, [pc, #8]	; (80051b0 <HAL_RTC_MspInit+0x14>)
 80051a6:	2201      	movs	r2, #1
 80051a8:	601a      	str	r2, [r3, #0]
 80051aa:	4770      	bx	lr
 80051ac:	40002800 	.word	0x40002800
 80051b0:	42470e3c 	.word	0x42470e3c

080051b4 <HAL_SPI_MspInit>:
 80051b4:	b570      	push	{r4, r5, r6, lr}
 80051b6:	6802      	ldr	r2, [r0, #0]
 80051b8:	4b32      	ldr	r3, [pc, #200]	; (8005284 <HAL_SPI_MspInit+0xd0>)
 80051ba:	b088      	sub	sp, #32
 80051bc:	2400      	movs	r4, #0
 80051be:	429a      	cmp	r2, r3
 80051c0:	e9cd 4403 	strd	r4, r4, [sp, #12]
 80051c4:	e9cd 4405 	strd	r4, r4, [sp, #20]
 80051c8:	9407      	str	r4, [sp, #28]
 80051ca:	d001      	beq.n	80051d0 <HAL_SPI_MspInit+0x1c>
 80051cc:	b008      	add	sp, #32
 80051ce:	bd70      	pop	{r4, r5, r6, pc}
 80051d0:	f503 3384 	add.w	r3, r3, #67584	; 0x10800
 80051d4:	9401      	str	r4, [sp, #4]
 80051d6:	6c5a      	ldr	r2, [r3, #68]	; 0x44
 80051d8:	4d2b      	ldr	r5, [pc, #172]	; (8005288 <HAL_SPI_MspInit+0xd4>)
 80051da:	f442 5280 	orr.w	r2, r2, #4096	; 0x1000
 80051de:	645a      	str	r2, [r3, #68]	; 0x44
 80051e0:	6c5a      	ldr	r2, [r3, #68]	; 0x44
 80051e2:	f402 5280 	and.w	r2, r2, #4096	; 0x1000
 80051e6:	9201      	str	r2, [sp, #4]
 80051e8:	9a01      	ldr	r2, [sp, #4]
 80051ea:	9402      	str	r4, [sp, #8]
 80051ec:	6b1a      	ldr	r2, [r3, #48]	; 0x30
 80051ee:	f042 0202 	orr.w	r2, r2, #2
 80051f2:	631a      	str	r2, [r3, #48]	; 0x30
 80051f4:	6b1b      	ldr	r3, [r3, #48]	; 0x30
 80051f6:	f003 0302 	and.w	r3, r3, #2
 80051fa:	9302      	str	r3, [sp, #8]
 80051fc:	2338      	movs	r3, #56	; 0x38
 80051fe:	9303      	str	r3, [sp, #12]
 8005200:	2302      	movs	r3, #2
 8005202:	a903      	add	r1, sp, #12
 8005204:	9304      	str	r3, [sp, #16]
 8005206:	f04f 0c03 	mov.w	ip, #3
 800520a:	2305      	movs	r3, #5
 800520c:	4606      	mov	r6, r0
 800520e:	481f      	ldr	r0, [pc, #124]	; (800528c <HAL_SPI_MspInit+0xd8>)
 8005210:	9a02      	ldr	r2, [sp, #8]
 8005212:	e9cd c306 	strd	ip, r3, [sp, #24]
 8005216:	f7fc f933 	bl	8001480 <HAL_GPIO_Init>
 800521a:	491d      	ldr	r1, [pc, #116]	; (8005290 <HAL_SPI_MspInit+0xdc>)
 800521c:	60ac      	str	r4, [r5, #8]
 800521e:	f04f 62c0 	mov.w	r2, #100663296	; 0x6000000
 8005222:	f44f 6380 	mov.w	r3, #1024	; 0x400
 8005226:	4628      	mov	r0, r5
 8005228:	60ec      	str	r4, [r5, #12]
 800522a:	e9c5 4405 	strd	r4, r4, [r5, #20]
 800522e:	e9c5 4407 	strd	r4, r4, [r5, #28]
 8005232:	626c      	str	r4, [r5, #36]	; 0x24
 8005234:	e9c5 1200 	strd	r1, r2, [r5]
 8005238:	612b      	str	r3, [r5, #16]
 800523a:	f7fb ff0f 	bl	800105c <HAL_DMA_Init>
 800523e:	b9d8      	cbnz	r0, 8005278 <HAL_SPI_MspInit+0xc4>
 8005240:	4c14      	ldr	r4, [pc, #80]	; (8005294 <HAL_SPI_MspInit+0xe0>)
 8005242:	4815      	ldr	r0, [pc, #84]	; (8005298 <HAL_SPI_MspInit+0xe4>)
 8005244:	6020      	str	r0, [r4, #0]
 8005246:	f04f 63c0 	mov.w	r3, #100663296	; 0x6000000
 800524a:	2140      	movs	r1, #64	; 0x40
 800524c:	f44f 6280 	mov.w	r2, #1024	; 0x400
 8005250:	6063      	str	r3, [r4, #4]
 8005252:	64f5      	str	r5, [r6, #76]	; 0x4c
 8005254:	2300      	movs	r3, #0
 8005256:	4620      	mov	r0, r4
 8005258:	63ae      	str	r6, [r5, #56]	; 0x38
 800525a:	60a1      	str	r1, [r4, #8]
 800525c:	e9c4 3203 	strd	r3, r2, [r4, #12]
 8005260:	e9c4 3305 	strd	r3, r3, [r4, #20]
 8005264:	e9c4 3307 	strd	r3, r3, [r4, #28]
 8005268:	6263      	str	r3, [r4, #36]	; 0x24
 800526a:	f7fb fef7 	bl	800105c <HAL_DMA_Init>
 800526e:	b930      	cbnz	r0, 800527e <HAL_SPI_MspInit+0xca>
 8005270:	64b4      	str	r4, [r6, #72]	; 0x48
 8005272:	63a6      	str	r6, [r4, #56]	; 0x38
 8005274:	b008      	add	sp, #32
 8005276:	bd70      	pop	{r4, r5, r6, pc}
 8005278:	f7ff fcda 	bl	8004c30 <Error_Handler>
 800527c:	e7e0      	b.n	8005240 <HAL_SPI_MspInit+0x8c>
 800527e:	f7ff fcd7 	bl	8004c30 <Error_Handler>
 8005282:	e7f5      	b.n	8005270 <HAL_SPI_MspInit+0xbc>
 8005284:	40013000 	.word	0x40013000
 8005288:	20000448 	.word	0x20000448
 800528c:	40020400 	.word	0x40020400
 8005290:	40026410 	.word	0x40026410
 8005294:	200004a8 	.word	0x200004a8
 8005298:	40026458 	.word	0x40026458

0800529c <HAL_TIM_Base_MspInit>:
 800529c:	b500      	push	{lr}
 800529e:	6803      	ldr	r3, [r0, #0]
 80052a0:	4a20      	ldr	r2, [pc, #128]	; (8005324 <HAL_TIM_Base_MspInit+0x88>)
 80052a2:	4293      	cmp	r3, r2
 80052a4:	b085      	sub	sp, #20
 80052a6:	d008      	beq.n	80052ba <HAL_TIM_Base_MspInit+0x1e>
 80052a8:	4a1f      	ldr	r2, [pc, #124]	; (8005328 <HAL_TIM_Base_MspInit+0x8c>)
 80052aa:	4293      	cmp	r3, r2
 80052ac:	d02a      	beq.n	8005304 <HAL_TIM_Base_MspInit+0x68>
 80052ae:	4a1f      	ldr	r2, [pc, #124]	; (800532c <HAL_TIM_Base_MspInit+0x90>)
 80052b0:	4293      	cmp	r3, r2
 80052b2:	d011      	beq.n	80052d8 <HAL_TIM_Base_MspInit+0x3c>
 80052b4:	b005      	add	sp, #20
 80052b6:	f85d fb04 	ldr.w	pc, [sp], #4
 80052ba:	4b1d      	ldr	r3, [pc, #116]	; (8005330 <HAL_TIM_Base_MspInit+0x94>)
 80052bc:	2200      	movs	r2, #0
 80052be:	9201      	str	r2, [sp, #4]
 80052c0:	6c5a      	ldr	r2, [r3, #68]	; 0x44
 80052c2:	f442 3200 	orr.w	r2, r2, #131072	; 0x20000
 80052c6:	645a      	str	r2, [r3, #68]	; 0x44
 80052c8:	6c5b      	ldr	r3, [r3, #68]	; 0x44
 80052ca:	f403 3300 	and.w	r3, r3, #131072	; 0x20000
 80052ce:	9301      	str	r3, [sp, #4]
 80052d0:	9b01      	ldr	r3, [sp, #4]
 80052d2:	b005      	add	sp, #20
 80052d4:	f85d fb04 	ldr.w	pc, [sp], #4
 80052d8:	2200      	movs	r2, #0
 80052da:	4b15      	ldr	r3, [pc, #84]	; (8005330 <HAL_TIM_Base_MspInit+0x94>)
 80052dc:	9203      	str	r2, [sp, #12]
 80052de:	6c19      	ldr	r1, [r3, #64]	; 0x40
 80052e0:	f041 0180 	orr.w	r1, r1, #128	; 0x80
 80052e4:	6419      	str	r1, [r3, #64]	; 0x40
 80052e6:	6c1b      	ldr	r3, [r3, #64]	; 0x40
 80052e8:	f003 0380 	and.w	r3, r3, #128	; 0x80
 80052ec:	9303      	str	r3, [sp, #12]
 80052ee:	4611      	mov	r1, r2
 80052f0:	202c      	movs	r0, #44	; 0x2c
 80052f2:	9b03      	ldr	r3, [sp, #12]
 80052f4:	f7fb fe40 	bl	8000f78 <HAL_NVIC_SetPriority>
 80052f8:	202c      	movs	r0, #44	; 0x2c
 80052fa:	b005      	add	sp, #20
 80052fc:	f85d eb04 	ldr.w	lr, [sp], #4
 8005300:	f7fb be70 	b.w	8000fe4 <HAL_NVIC_EnableIRQ>
 8005304:	4b0a      	ldr	r3, [pc, #40]	; (8005330 <HAL_TIM_Base_MspInit+0x94>)
 8005306:	2200      	movs	r2, #0
 8005308:	9202      	str	r2, [sp, #8]
 800530a:	6c5a      	ldr	r2, [r3, #68]	; 0x44
 800530c:	f442 2280 	orr.w	r2, r2, #262144	; 0x40000
 8005310:	645a      	str	r2, [r3, #68]	; 0x44
 8005312:	6c5b      	ldr	r3, [r3, #68]	; 0x44
 8005314:	f403 2380 	and.w	r3, r3, #262144	; 0x40000
 8005318:	9302      	str	r3, [sp, #8]
 800531a:	9b02      	ldr	r3, [sp, #8]
 800531c:	b005      	add	sp, #20
 800531e:	f85d fb04 	ldr.w	pc, [sp], #4
 8005322:	bf00      	nop
 8005324:	40014400 	.word	0x40014400
 8005328:	40014800 	.word	0x40014800
 800532c:	40001c00 	.word	0x40001c00
 8005330:	40023800 	.word	0x40023800

08005334 <HAL_UART_MspInit>:
 8005334:	b570      	push	{r4, r5, r6, lr}
 8005336:	6802      	ldr	r2, [r0, #0]
 8005338:	4938      	ldr	r1, [pc, #224]	; (800541c <HAL_UART_MspInit+0xe8>)
 800533a:	b08c      	sub	sp, #48	; 0x30
 800533c:	2300      	movs	r3, #0
 800533e:	428a      	cmp	r2, r1
 8005340:	e9cd 3307 	strd	r3, r3, [sp, #28]
 8005344:	e9cd 3309 	strd	r3, r3, [sp, #36]	; 0x24
 8005348:	930b      	str	r3, [sp, #44]	; 0x2c
 800534a:	d007      	beq.n	800535c <HAL_UART_MspInit+0x28>
 800534c:	4934      	ldr	r1, [pc, #208]	; (8005420 <HAL_UART_MspInit+0xec>)
 800534e:	428a      	cmp	r2, r1
 8005350:	d047      	beq.n	80053e2 <HAL_UART_MspInit+0xae>
 8005352:	4934      	ldr	r1, [pc, #208]	; (8005424 <HAL_UART_MspInit+0xf0>)
 8005354:	428a      	cmp	r2, r1
 8005356:	d027      	beq.n	80053a8 <HAL_UART_MspInit+0x74>
 8005358:	b00c      	add	sp, #48	; 0x30
 800535a:	bd70      	pop	{r4, r5, r6, pc}
 800535c:	4a32      	ldr	r2, [pc, #200]	; (8005428 <HAL_UART_MspInit+0xf4>)
 800535e:	9301      	str	r3, [sp, #4]
 8005360:	6c51      	ldr	r1, [r2, #68]	; 0x44
 8005362:	4832      	ldr	r0, [pc, #200]	; (800542c <HAL_UART_MspInit+0xf8>)
 8005364:	f041 0110 	orr.w	r1, r1, #16
 8005368:	6451      	str	r1, [r2, #68]	; 0x44
 800536a:	6c51      	ldr	r1, [r2, #68]	; 0x44
 800536c:	f001 0110 	and.w	r1, r1, #16
 8005370:	9101      	str	r1, [sp, #4]
 8005372:	9901      	ldr	r1, [sp, #4]
 8005374:	9302      	str	r3, [sp, #8]
 8005376:	6b13      	ldr	r3, [r2, #48]	; 0x30
 8005378:	f043 0301 	orr.w	r3, r3, #1
 800537c:	6313      	str	r3, [r2, #48]	; 0x30
 800537e:	6b13      	ldr	r3, [r2, #48]	; 0x30
 8005380:	f003 0301 	and.w	r3, r3, #1
 8005384:	9302      	str	r3, [sp, #8]
 8005386:	9e02      	ldr	r6, [sp, #8]
 8005388:	a907      	add	r1, sp, #28
 800538a:	f44f 63c0 	mov.w	r3, #1536	; 0x600
 800538e:	2502      	movs	r5, #2
 8005390:	2401      	movs	r4, #1
 8005392:	2203      	movs	r2, #3
 8005394:	9307      	str	r3, [sp, #28]
 8005396:	2307      	movs	r3, #7
 8005398:	e9cd 5408 	strd	r5, r4, [sp, #32]
 800539c:	e9cd 230a 	strd	r2, r3, [sp, #40]	; 0x28
 80053a0:	f7fc f86e 	bl	8001480 <HAL_GPIO_Init>
 80053a4:	b00c      	add	sp, #48	; 0x30
 80053a6:	bd70      	pop	{r4, r5, r6, pc}
 80053a8:	4a1f      	ldr	r2, [pc, #124]	; (8005428 <HAL_UART_MspInit+0xf4>)
 80053aa:	9305      	str	r3, [sp, #20]
 80053ac:	6c11      	ldr	r1, [r2, #64]	; 0x40
 80053ae:	4820      	ldr	r0, [pc, #128]	; (8005430 <HAL_UART_MspInit+0xfc>)
 80053b0:	f441 2180 	orr.w	r1, r1, #262144	; 0x40000
 80053b4:	6411      	str	r1, [r2, #64]	; 0x40
 80053b6:	6c11      	ldr	r1, [r2, #64]	; 0x40
 80053b8:	f401 2180 	and.w	r1, r1, #262144	; 0x40000
 80053bc:	9105      	str	r1, [sp, #20]
 80053be:	9905      	ldr	r1, [sp, #20]
 80053c0:	9306      	str	r3, [sp, #24]
 80053c2:	6b13      	ldr	r3, [r2, #48]	; 0x30
 80053c4:	f043 0302 	orr.w	r3, r3, #2
 80053c8:	6313      	str	r3, [r2, #48]	; 0x30
 80053ca:	6b13      	ldr	r3, [r2, #48]	; 0x30
 80053cc:	f003 0302 	and.w	r3, r3, #2
 80053d0:	9306      	str	r3, [sp, #24]
 80053d2:	a907      	add	r1, sp, #28
 80053d4:	f44f 6340 	mov.w	r3, #3072	; 0xc00
 80053d8:	2502      	movs	r5, #2
 80053da:	2401      	movs	r4, #1
 80053dc:	2203      	movs	r2, #3
 80053de:	9e06      	ldr	r6, [sp, #24]
 80053e0:	e7d8      	b.n	8005394 <HAL_UART_MspInit+0x60>
 80053e2:	4a11      	ldr	r2, [pc, #68]	; (8005428 <HAL_UART_MspInit+0xf4>)
 80053e4:	9303      	str	r3, [sp, #12]
 80053e6:	6c11      	ldr	r1, [r2, #64]	; 0x40
 80053e8:	4810      	ldr	r0, [pc, #64]	; (800542c <HAL_UART_MspInit+0xf8>)
 80053ea:	f441 3100 	orr.w	r1, r1, #131072	; 0x20000
 80053ee:	6411      	str	r1, [r2, #64]	; 0x40
 80053f0:	6c11      	ldr	r1, [r2, #64]	; 0x40
 80053f2:	f401 3100 	and.w	r1, r1, #131072	; 0x20000
 80053f6:	9103      	str	r1, [sp, #12]
 80053f8:	9903      	ldr	r1, [sp, #12]
 80053fa:	9304      	str	r3, [sp, #16]
 80053fc:	6b13      	ldr	r3, [r2, #48]	; 0x30
 80053fe:	f043 0301 	orr.w	r3, r3, #1
 8005402:	6313      	str	r3, [r2, #48]	; 0x30
 8005404:	6b13      	ldr	r3, [r2, #48]	; 0x30
 8005406:	f003 0301 	and.w	r3, r3, #1
 800540a:	9304      	str	r3, [sp, #16]
 800540c:	a907      	add	r1, sp, #28
 800540e:	230c      	movs	r3, #12
 8005410:	2502      	movs	r5, #2
 8005412:	2401      	movs	r4, #1
 8005414:	2203      	movs	r2, #3
 8005416:	9e04      	ldr	r6, [sp, #16]
 8005418:	e7bc      	b.n	8005394 <HAL_UART_MspInit+0x60>
 800541a:	bf00      	nop
 800541c:	40011000 	.word	0x40011000
 8005420:	40004400 	.word	0x40004400
 8005424:	40004800 	.word	0x40004800
 8005428:	40023800 	.word	0x40023800
 800542c:	40020000 	.word	0x40020000
 8005430:	40020400 	.word	0x40020400

08005434 <NMI_Handler>:
 8005434:	4770      	bx	lr
 8005436:	bf00      	nop

08005438 <HardFault_Handler>:
 8005438:	e7fe      	b.n	8005438 <HardFault_Handler>
 800543a:	bf00      	nop

0800543c <MemManage_Handler>:
 800543c:	e7fe      	b.n	800543c <MemManage_Handler>
 800543e:	bf00      	nop

08005440 <BusFault_Handler>:
 8005440:	e7fe      	b.n	8005440 <BusFault_Handler>
 8005442:	bf00      	nop

08005444 <UsageFault_Handler>:
 8005444:	e7fe      	b.n	8005444 <UsageFault_Handler>
 8005446:	bf00      	nop

08005448 <SVC_Handler>:
 8005448:	4770      	bx	lr
 800544a:	bf00      	nop

0800544c <DebugMon_Handler>:
 800544c:	4770      	bx	lr
 800544e:	bf00      	nop

08005450 <PendSV_Handler>:
 8005450:	4770      	bx	lr
 8005452:	bf00      	nop

08005454 <SysTick_Handler>:
 8005454:	f7fb bd5a 	b.w	8000f0c <HAL_IncTick>

08005458 <DMA1_Stream0_IRQHandler>:
 8005458:	4801      	ldr	r0, [pc, #4]	; (8005460 <DMA1_Stream0_IRQHandler+0x8>)
 800545a:	f7fb bf35 	b.w	80012c8 <HAL_DMA_IRQHandler>
 800545e:	bf00      	nop
 8005460:	20000344 	.word	0x20000344

08005464 <DMA1_Stream6_IRQHandler>:
 8005464:	4801      	ldr	r0, [pc, #4]	; (800546c <DMA1_Stream6_IRQHandler+0x8>)
 8005466:	f7fb bf2f 	b.w	80012c8 <HAL_DMA_IRQHandler>
 800546a:	bf00      	nop
 800546c:	20000154 	.word	0x20000154

08005470 <TIM1_UP_TIM10_IRQHandler>:
 8005470:	4801      	ldr	r0, [pc, #4]	; (8005478 <TIM1_UP_TIM10_IRQHandler+0x8>)
 8005472:	f7fe ba03 	b.w	800387c <HAL_TIM_IRQHandler>
 8005476:	bf00      	nop
 8005478:	20000208 	.word	0x20000208

0800547c <TIM1_TRG_COM_TIM11_IRQHandler>:
 800547c:	4801      	ldr	r0, [pc, #4]	; (8005484 <TIM1_TRG_COM_TIM11_IRQHandler+0x8>)
 800547e:	f7fe b9fd 	b.w	800387c <HAL_TIM_IRQHandler>
 8005482:	bf00      	nop
 8005484:	200002e0 	.word	0x200002e0

08005488 <I2C1_EV_IRQHandler>:
 8005488:	4801      	ldr	r0, [pc, #4]	; (8005490 <I2C1_EV_IRQHandler+0x8>)
 800548a:	f7fd b819 	b.w	80024c0 <HAL_I2C_EV_IRQHandler>
 800548e:	bf00      	nop
 8005490:	200001b4 	.word	0x200001b4

08005494 <TIM8_UP_TIM13_IRQHandler>:
 8005494:	4801      	ldr	r0, [pc, #4]	; (800549c <TIM8_UP_TIM13_IRQHandler+0x8>)
 8005496:	f7fe b9f1 	b.w	800387c <HAL_TIM_IRQHandler>
 800549a:	bf00      	nop
 800549c:	20000260 	.word	0x20000260

080054a0 <DMA2_Stream0_IRQHandler>:
 80054a0:	4801      	ldr	r0, [pc, #4]	; (80054a8 <DMA2_Stream0_IRQHandler+0x8>)
 80054a2:	f7fb bf11 	b.w	80012c8 <HAL_DMA_IRQHandler>
 80054a6:	bf00      	nop
 80054a8:	20000448 	.word	0x20000448

080054ac <DMA2_Stream3_IRQHandler>:
 80054ac:	4801      	ldr	r0, [pc, #4]	; (80054b4 <DMA2_Stream3_IRQHandler+0x8>)
 80054ae:	f7fb bf0b 	b.w	80012c8 <HAL_DMA_IRQHandler>
 80054b2:	bf00      	nop
 80054b4:	200004a8 	.word	0x200004a8

080054b8 <SystemInit>:
 80054b8:	4910      	ldr	r1, [pc, #64]	; (80054fc <SystemInit+0x44>)
 80054ba:	4b11      	ldr	r3, [pc, #68]	; (8005500 <SystemInit+0x48>)
 80054bc:	f8d1 2088 	ldr.w	r2, [r1, #136]	; 0x88
 80054c0:	f442 0270 	orr.w	r2, r2, #15728640	; 0xf00000
 80054c4:	b410      	push	{r4}
 80054c6:	f8c1 2088 	str.w	r2, [r1, #136]	; 0x88
 80054ca:	681a      	ldr	r2, [r3, #0]
 80054cc:	4c0d      	ldr	r4, [pc, #52]	; (8005504 <SystemInit+0x4c>)
 80054ce:	2000      	movs	r0, #0
 80054d0:	f042 0201 	orr.w	r2, r2, #1
 80054d4:	601a      	str	r2, [r3, #0]
 80054d6:	6098      	str	r0, [r3, #8]
 80054d8:	681a      	ldr	r2, [r3, #0]
 80054da:	f022 7284 	bic.w	r2, r2, #17301504	; 0x1080000
 80054de:	f422 3280 	bic.w	r2, r2, #65536	; 0x10000
 80054e2:	601a      	str	r2, [r3, #0]
 80054e4:	605c      	str	r4, [r3, #4]
 80054e6:	681a      	ldr	r2, [r3, #0]
 80054e8:	f04f 6400 	mov.w	r4, #134217728	; 0x8000000
 80054ec:	f422 2280 	bic.w	r2, r2, #262144	; 0x40000
 80054f0:	601a      	str	r2, [r3, #0]
 80054f2:	60d8      	str	r0, [r3, #12]
 80054f4:	608c      	str	r4, [r1, #8]
 80054f6:	f85d 4b04 	ldr.w	r4, [sp], #4
 80054fa:	4770      	bx	lr
 80054fc:	e000ed00 	.word	0xe000ed00
 8005500:	40023800 	.word	0x40023800
 8005504:	24003010 	.word	0x24003010

08005508 <Reset_Handler>:
 8005508:	f8df d034 	ldr.w	sp, [pc, #52]	; 8005540 <LoopFillZerobss+0x14>
 800550c:	2100      	movs	r1, #0
 800550e:	e003      	b.n	8005518 <LoopCopyDataInit>

08005510 <CopyDataInit>:
 8005510:	4b0c      	ldr	r3, [pc, #48]	; (8005544 <LoopFillZerobss+0x18>)
 8005512:	585b      	ldr	r3, [r3, r1]
 8005514:	5043      	str	r3, [r0, r1]
 8005516:	3104      	adds	r1, #4

08005518 <LoopCopyDataInit>:
 8005518:	480b      	ldr	r0, [pc, #44]	; (8005548 <LoopFillZerobss+0x1c>)
 800551a:	4b0c      	ldr	r3, [pc, #48]	; (800554c <LoopFillZerobss+0x20>)
 800551c:	1842      	adds	r2, r0, r1
 800551e:	429a      	cmp	r2, r3
 8005520:	d3f6      	bcc.n	8005510 <CopyDataInit>
 8005522:	4a0b      	ldr	r2, [pc, #44]	; (8005550 <LoopFillZerobss+0x24>)
 8005524:	e002      	b.n	800552c <LoopFillZerobss>

08005526 <FillZerobss>:
 8005526:	2300      	movs	r3, #0
 8005528:	f842 3b04 	str.w	r3, [r2], #4

0800552c <LoopFillZerobss>:
 800552c:	4b09      	ldr	r3, [pc, #36]	; (8005554 <LoopFillZerobss+0x28>)
 800552e:	429a      	cmp	r2, r3
 8005530:	d3f9      	bcc.n	8005526 <FillZerobss>
 8005532:	f7ff ffc1 	bl	80054b8 <SystemInit>
 8005536:	f000 f817 	bl	8005568 <__libc_init_array>
 800553a:	f7ff f8d5 	bl	80046e8 <main>
 800553e:	4770      	bx	lr
 8005540:	2001ffff 	.word	0x2001ffff
 8005544:	080075f0 	.word	0x080075f0
 8005548:	20000000 	.word	0x20000000
 800554c:	2000007c 	.word	0x2000007c
 8005550:	2000007c 	.word	0x2000007c
 8005554:	20000508 	.word	0x20000508

08005558 <ADC_IRQHandler>:
 8005558:	e7fe      	b.n	8005558 <ADC_IRQHandler>
	...

0800555c <__errno>:
 800555c:	4b01      	ldr	r3, [pc, #4]	; (8005564 <__errno+0x8>)
 800555e:	6818      	ldr	r0, [r3, #0]
 8005560:	4770      	bx	lr
 8005562:	bf00      	nop
 8005564:	20000014 	.word	0x20000014

08005568 <__libc_init_array>:
 8005568:	b570      	push	{r4, r5, r6, lr}
 800556a:	4e0d      	ldr	r6, [pc, #52]	; (80055a0 <__libc_init_array+0x38>)
 800556c:	4c0d      	ldr	r4, [pc, #52]	; (80055a4 <__libc_init_array+0x3c>)
 800556e:	1ba4      	subs	r4, r4, r6
 8005570:	10a4      	asrs	r4, r4, #2
 8005572:	2500      	movs	r5, #0
 8005574:	42a5      	cmp	r5, r4
 8005576:	d109      	bne.n	800558c <__libc_init_array+0x24>
 8005578:	4e0b      	ldr	r6, [pc, #44]	; (80055a8 <__libc_init_array+0x40>)
 800557a:	4c0c      	ldr	r4, [pc, #48]	; (80055ac <__libc_init_array+0x44>)
 800557c:	f001 fef2 	bl	8007364 <_init>
 8005580:	1ba4      	subs	r4, r4, r6
 8005582:	10a4      	asrs	r4, r4, #2
 8005584:	2500      	movs	r5, #0
 8005586:	42a5      	cmp	r5, r4
 8005588:	d105      	bne.n	8005596 <__libc_init_array+0x2e>
 800558a:	bd70      	pop	{r4, r5, r6, pc}
 800558c:	f856 3025 	ldr.w	r3, [r6, r5, lsl #2]
 8005590:	4798      	blx	r3
 8005592:	3501      	adds	r5, #1
 8005594:	e7ee      	b.n	8005574 <__libc_init_array+0xc>
 8005596:	f856 3025 	ldr.w	r3, [r6, r5, lsl #2]
 800559a:	4798      	blx	r3
 800559c:	3501      	adds	r5, #1
 800559e:	e7f2      	b.n	8005586 <__libc_init_array+0x1e>
 80055a0:	080075e8 	.word	0x080075e8
 80055a4:	080075e8 	.word	0x080075e8
 80055a8:	080075e8 	.word	0x080075e8
 80055ac:	080075ec 	.word	0x080075ec

080055b0 <__itoa>:
 80055b0:	1e93      	subs	r3, r2, #2
 80055b2:	2b22      	cmp	r3, #34	; 0x22
 80055b4:	b510      	push	{r4, lr}
 80055b6:	460c      	mov	r4, r1
 80055b8:	d904      	bls.n	80055c4 <__itoa+0x14>
 80055ba:	2300      	movs	r3, #0
 80055bc:	700b      	strb	r3, [r1, #0]
 80055be:	461c      	mov	r4, r3
 80055c0:	4620      	mov	r0, r4
 80055c2:	bd10      	pop	{r4, pc}
 80055c4:	2a0a      	cmp	r2, #10
 80055c6:	d109      	bne.n	80055dc <__itoa+0x2c>
 80055c8:	2800      	cmp	r0, #0
 80055ca:	da07      	bge.n	80055dc <__itoa+0x2c>
 80055cc:	232d      	movs	r3, #45	; 0x2d
 80055ce:	700b      	strb	r3, [r1, #0]
 80055d0:	4240      	negs	r0, r0
 80055d2:	2101      	movs	r1, #1
 80055d4:	4421      	add	r1, r4
 80055d6:	f000 f805 	bl	80055e4 <__utoa>
 80055da:	e7f1      	b.n	80055c0 <__itoa+0x10>
 80055dc:	2100      	movs	r1, #0
 80055de:	e7f9      	b.n	80055d4 <__itoa+0x24>

080055e0 <itoa>:
 80055e0:	f7ff bfe6 	b.w	80055b0 <__itoa>

080055e4 <__utoa>:
 80055e4:	b5f0      	push	{r4, r5, r6, r7, lr}
 80055e6:	4b1d      	ldr	r3, [pc, #116]	; (800565c <__utoa+0x78>)
 80055e8:	b08b      	sub	sp, #44	; 0x2c
 80055ea:	4605      	mov	r5, r0
 80055ec:	460c      	mov	r4, r1
 80055ee:	466e      	mov	r6, sp
 80055f0:	f103 0c20 	add.w	ip, r3, #32
 80055f4:	6818      	ldr	r0, [r3, #0]
 80055f6:	6859      	ldr	r1, [r3, #4]
 80055f8:	4637      	mov	r7, r6
 80055fa:	c703      	stmia	r7!, {r0, r1}
 80055fc:	3308      	adds	r3, #8
 80055fe:	4563      	cmp	r3, ip
 8005600:	463e      	mov	r6, r7
 8005602:	d1f7      	bne.n	80055f4 <__utoa+0x10>
 8005604:	6818      	ldr	r0, [r3, #0]
 8005606:	791b      	ldrb	r3, [r3, #4]
 8005608:	713b      	strb	r3, [r7, #4]
 800560a:	1e93      	subs	r3, r2, #2
 800560c:	2b22      	cmp	r3, #34	; 0x22
 800560e:	6038      	str	r0, [r7, #0]
 8005610:	f04f 0300 	mov.w	r3, #0
 8005614:	d904      	bls.n	8005620 <__utoa+0x3c>
 8005616:	7023      	strb	r3, [r4, #0]
 8005618:	461c      	mov	r4, r3
 800561a:	4620      	mov	r0, r4
 800561c:	b00b      	add	sp, #44	; 0x2c
 800561e:	bdf0      	pop	{r4, r5, r6, r7, pc}
 8005620:	1e66      	subs	r6, r4, #1
 8005622:	fbb5 f0f2 	udiv	r0, r5, r2
 8005626:	af0a      	add	r7, sp, #40	; 0x28
 8005628:	fb02 5510 	mls	r5, r2, r0, r5
 800562c:	443d      	add	r5, r7
 800562e:	1c59      	adds	r1, r3, #1
 8005630:	f815 5c28 	ldrb.w	r5, [r5, #-40]
 8005634:	f806 5f01 	strb.w	r5, [r6, #1]!
 8005638:	4605      	mov	r5, r0
 800563a:	b968      	cbnz	r0, 8005658 <__utoa+0x74>
 800563c:	5460      	strb	r0, [r4, r1]
 800563e:	4423      	add	r3, r4
 8005640:	4622      	mov	r2, r4
 8005642:	1b19      	subs	r1, r3, r4
 8005644:	1b10      	subs	r0, r2, r4
 8005646:	4281      	cmp	r1, r0
 8005648:	dde7      	ble.n	800561a <__utoa+0x36>
 800564a:	7811      	ldrb	r1, [r2, #0]
 800564c:	7818      	ldrb	r0, [r3, #0]
 800564e:	f802 0b01 	strb.w	r0, [r2], #1
 8005652:	f803 1901 	strb.w	r1, [r3], #-1
 8005656:	e7f4      	b.n	8005642 <__utoa+0x5e>
 8005658:	460b      	mov	r3, r1
 800565a:	e7e2      	b.n	8005622 <__utoa+0x3e>
 800565c:	080073cc 	.word	0x080073cc

08005660 <cos>:
 8005660:	b51f      	push	{r0, r1, r2, r3, r4, lr}
 8005662:	ec51 0b10 	vmov	r0, r1, d0
 8005666:	4a1e      	ldr	r2, [pc, #120]	; (80056e0 <cos+0x80>)
 8005668:	f021 4300 	bic.w	r3, r1, #2147483648	; 0x80000000
 800566c:	4293      	cmp	r3, r2
 800566e:	dc06      	bgt.n	800567e <cos+0x1e>
 8005670:	ed9f 1b19 	vldr	d1, [pc, #100]	; 80056d8 <cos+0x78>
 8005674:	f001 f894 	bl	80067a0 <__kernel_cos>
 8005678:	ec51 0b10 	vmov	r0, r1, d0
 800567c:	e007      	b.n	800568e <cos+0x2e>
 800567e:	4a19      	ldr	r2, [pc, #100]	; (80056e4 <cos+0x84>)
 8005680:	4293      	cmp	r3, r2
 8005682:	dd09      	ble.n	8005698 <cos+0x38>
 8005684:	ee10 2a10 	vmov	r2, s0
 8005688:	460b      	mov	r3, r1
 800568a:	f7fa fda1 	bl	80001d0 <__aeabi_dsub>
 800568e:	ec41 0b10 	vmov	d0, r0, r1
 8005692:	b005      	add	sp, #20
 8005694:	f85d fb04 	ldr.w	pc, [sp], #4
 8005698:	4668      	mov	r0, sp
 800569a:	f000 fdd9 	bl	8006250 <__ieee754_rem_pio2>
 800569e:	f000 0003 	and.w	r0, r0, #3
 80056a2:	2801      	cmp	r0, #1
 80056a4:	ed9d 1b02 	vldr	d1, [sp, #8]
 80056a8:	ed9d 0b00 	vldr	d0, [sp]
 80056ac:	d007      	beq.n	80056be <cos+0x5e>
 80056ae:	2802      	cmp	r0, #2
 80056b0:	d00e      	beq.n	80056d0 <cos+0x70>
 80056b2:	2800      	cmp	r0, #0
 80056b4:	d0de      	beq.n	8005674 <cos+0x14>
 80056b6:	2001      	movs	r0, #1
 80056b8:	f001 fc7a 	bl	8006fb0 <__kernel_sin>
 80056bc:	e7dc      	b.n	8005678 <cos+0x18>
 80056be:	f001 fc77 	bl	8006fb0 <__kernel_sin>
 80056c2:	ec53 2b10 	vmov	r2, r3, d0
 80056c6:	ee10 0a10 	vmov	r0, s0
 80056ca:	f103 4100 	add.w	r1, r3, #2147483648	; 0x80000000
 80056ce:	e7de      	b.n	800568e <cos+0x2e>
 80056d0:	f001 f866 	bl	80067a0 <__kernel_cos>
 80056d4:	e7f5      	b.n	80056c2 <cos+0x62>
 80056d6:	bf00      	nop
	...
 80056e0:	3fe921fb 	.word	0x3fe921fb
 80056e4:	7fefffff 	.word	0x7fefffff

080056e8 <sin>:
 80056e8:	b51f      	push	{r0, r1, r2, r3, r4, lr}
 80056ea:	ec51 0b10 	vmov	r0, r1, d0
 80056ee:	4a20      	ldr	r2, [pc, #128]	; (8005770 <sin+0x88>)
 80056f0:	f021 4300 	bic.w	r3, r1, #2147483648	; 0x80000000
 80056f4:	4293      	cmp	r3, r2
 80056f6:	dc07      	bgt.n	8005708 <sin+0x20>
 80056f8:	ed9f 1b1b 	vldr	d1, [pc, #108]	; 8005768 <sin+0x80>
 80056fc:	2000      	movs	r0, #0
 80056fe:	f001 fc57 	bl	8006fb0 <__kernel_sin>
 8005702:	ec51 0b10 	vmov	r0, r1, d0
 8005706:	e007      	b.n	8005718 <sin+0x30>
 8005708:	4a1a      	ldr	r2, [pc, #104]	; (8005774 <sin+0x8c>)
 800570a:	4293      	cmp	r3, r2
 800570c:	dd09      	ble.n	8005722 <sin+0x3a>
 800570e:	ee10 2a10 	vmov	r2, s0
 8005712:	460b      	mov	r3, r1
 8005714:	f7fa fd5c 	bl	80001d0 <__aeabi_dsub>
 8005718:	ec41 0b10 	vmov	d0, r0, r1
 800571c:	b005      	add	sp, #20
 800571e:	f85d fb04 	ldr.w	pc, [sp], #4
 8005722:	4668      	mov	r0, sp
 8005724:	f000 fd94 	bl	8006250 <__ieee754_rem_pio2>
 8005728:	f000 0003 	and.w	r0, r0, #3
 800572c:	2801      	cmp	r0, #1
 800572e:	ed9d 1b02 	vldr	d1, [sp, #8]
 8005732:	ed9d 0b00 	vldr	d0, [sp]
 8005736:	d004      	beq.n	8005742 <sin+0x5a>
 8005738:	2802      	cmp	r0, #2
 800573a:	d005      	beq.n	8005748 <sin+0x60>
 800573c:	b970      	cbnz	r0, 800575c <sin+0x74>
 800573e:	2001      	movs	r0, #1
 8005740:	e7dd      	b.n	80056fe <sin+0x16>
 8005742:	f001 f82d 	bl	80067a0 <__kernel_cos>
 8005746:	e7dc      	b.n	8005702 <sin+0x1a>
 8005748:	2001      	movs	r0, #1
 800574a:	f001 fc31 	bl	8006fb0 <__kernel_sin>
 800574e:	ec53 2b10 	vmov	r2, r3, d0
 8005752:	ee10 0a10 	vmov	r0, s0
 8005756:	f103 4100 	add.w	r1, r3, #2147483648	; 0x80000000
 800575a:	e7dd      	b.n	8005718 <sin+0x30>
 800575c:	f001 f820 	bl	80067a0 <__kernel_cos>
 8005760:	e7f5      	b.n	800574e <sin+0x66>
 8005762:	bf00      	nop
 8005764:	f3af 8000 	nop.w
	...
 8005770:	3fe921fb 	.word	0x3fe921fb
 8005774:	7fefffff 	.word	0x7fefffff

08005778 <acos>:
 8005778:	b5f0      	push	{r4, r5, r6, r7, lr}
 800577a:	ed2d 8b02 	vpush	{d8}
 800577e:	4e26      	ldr	r6, [pc, #152]	; (8005818 <acos+0xa0>)
 8005780:	b08b      	sub	sp, #44	; 0x2c
 8005782:	ec55 4b10 	vmov	r4, r5, d0
 8005786:	f000 f8f7 	bl	8005978 <__ieee754_acos>
 800578a:	f996 3000 	ldrsb.w	r3, [r6]
 800578e:	eeb0 8a40 	vmov.f32	s16, s0
 8005792:	eef0 8a60 	vmov.f32	s17, s1
 8005796:	3301      	adds	r3, #1
 8005798:	d036      	beq.n	8005808 <acos+0x90>
 800579a:	4622      	mov	r2, r4
 800579c:	462b      	mov	r3, r5
 800579e:	4620      	mov	r0, r4
 80057a0:	4629      	mov	r1, r5
 80057a2:	f7fb f967 	bl	8000a74 <__aeabi_dcmpun>
 80057a6:	4607      	mov	r7, r0
 80057a8:	bb70      	cbnz	r0, 8005808 <acos+0x90>
 80057aa:	ec45 4b10 	vmov	d0, r4, r5
 80057ae:	f001 fcb9 	bl	8007124 <fabs>
 80057b2:	2200      	movs	r2, #0
 80057b4:	4b19      	ldr	r3, [pc, #100]	; (800581c <acos+0xa4>)
 80057b6:	ec51 0b10 	vmov	r0, r1, d0
 80057ba:	f7fb f951 	bl	8000a60 <__aeabi_dcmpgt>
 80057be:	b318      	cbz	r0, 8005808 <acos+0x90>
 80057c0:	2301      	movs	r3, #1
 80057c2:	9300      	str	r3, [sp, #0]
 80057c4:	4816      	ldr	r0, [pc, #88]	; (8005820 <acos+0xa8>)
 80057c6:	4b17      	ldr	r3, [pc, #92]	; (8005824 <acos+0xac>)
 80057c8:	9301      	str	r3, [sp, #4]
 80057ca:	9708      	str	r7, [sp, #32]
 80057cc:	e9cd 4504 	strd	r4, r5, [sp, #16]
 80057d0:	e9cd 4502 	strd	r4, r5, [sp, #8]
 80057d4:	f001 fd38 	bl	8007248 <nan>
 80057d8:	f996 3000 	ldrsb.w	r3, [r6]
 80057dc:	2b02      	cmp	r3, #2
 80057de:	ed8d 0b06 	vstr	d0, [sp, #24]
 80057e2:	d104      	bne.n	80057ee <acos+0x76>
 80057e4:	f7ff feba 	bl	800555c <__errno>
 80057e8:	2321      	movs	r3, #33	; 0x21
 80057ea:	6003      	str	r3, [r0, #0]
 80057ec:	e004      	b.n	80057f8 <acos+0x80>
 80057ee:	4668      	mov	r0, sp
 80057f0:	f001 fd26 	bl	8007240 <matherr>
 80057f4:	2800      	cmp	r0, #0
 80057f6:	d0f5      	beq.n	80057e4 <acos+0x6c>
 80057f8:	9b08      	ldr	r3, [sp, #32]
 80057fa:	b11b      	cbz	r3, 8005804 <acos+0x8c>
 80057fc:	f7ff feae 	bl	800555c <__errno>
 8005800:	9b08      	ldr	r3, [sp, #32]
 8005802:	6003      	str	r3, [r0, #0]
 8005804:	ed9d 8b06 	vldr	d8, [sp, #24]
 8005808:	eeb0 0a48 	vmov.f32	s0, s16
 800580c:	eef0 0a68 	vmov.f32	s1, s17
 8005810:	b00b      	add	sp, #44	; 0x2c
 8005812:	ecbd 8b02 	vpop	{d8}
 8005816:	bdf0      	pop	{r4, r5, r6, r7, pc}
 8005818:	20000078 	.word	0x20000078
 800581c:	3ff00000 	.word	0x3ff00000
 8005820:	08007400 	.word	0x08007400
 8005824:	080073f1 	.word	0x080073f1

08005828 <asin>:
 8005828:	b5f0      	push	{r4, r5, r6, r7, lr}
 800582a:	ed2d 8b02 	vpush	{d8}
 800582e:	4e26      	ldr	r6, [pc, #152]	; (80058c8 <asin+0xa0>)
 8005830:	b08b      	sub	sp, #44	; 0x2c
 8005832:	ec55 4b10 	vmov	r4, r5, d0
 8005836:	f000 fafb 	bl	8005e30 <__ieee754_asin>
 800583a:	f996 3000 	ldrsb.w	r3, [r6]
 800583e:	eeb0 8a40 	vmov.f32	s16, s0
 8005842:	eef0 8a60 	vmov.f32	s17, s1
 8005846:	3301      	adds	r3, #1
 8005848:	d036      	beq.n	80058b8 <asin+0x90>
 800584a:	4622      	mov	r2, r4
 800584c:	462b      	mov	r3, r5
 800584e:	4620      	mov	r0, r4
 8005850:	4629      	mov	r1, r5
 8005852:	f7fb f90f 	bl	8000a74 <__aeabi_dcmpun>
 8005856:	4607      	mov	r7, r0
 8005858:	bb70      	cbnz	r0, 80058b8 <asin+0x90>
 800585a:	ec45 4b10 	vmov	d0, r4, r5
 800585e:	f001 fc61 	bl	8007124 <fabs>
 8005862:	2200      	movs	r2, #0
 8005864:	4b19      	ldr	r3, [pc, #100]	; (80058cc <asin+0xa4>)
 8005866:	ec51 0b10 	vmov	r0, r1, d0
 800586a:	f7fb f8f9 	bl	8000a60 <__aeabi_dcmpgt>
 800586e:	b318      	cbz	r0, 80058b8 <asin+0x90>
 8005870:	2301      	movs	r3, #1
 8005872:	9300      	str	r3, [sp, #0]
 8005874:	4816      	ldr	r0, [pc, #88]	; (80058d0 <asin+0xa8>)
 8005876:	4b17      	ldr	r3, [pc, #92]	; (80058d4 <asin+0xac>)
 8005878:	9301      	str	r3, [sp, #4]
 800587a:	9708      	str	r7, [sp, #32]
 800587c:	e9cd 4504 	strd	r4, r5, [sp, #16]
 8005880:	e9cd 4502 	strd	r4, r5, [sp, #8]
 8005884:	f001 fce0 	bl	8007248 <nan>
 8005888:	f996 3000 	ldrsb.w	r3, [r6]
 800588c:	2b02      	cmp	r3, #2
 800588e:	ed8d 0b06 	vstr	d0, [sp, #24]
 8005892:	d104      	bne.n	800589e <asin+0x76>
 8005894:	f7ff fe62 	bl	800555c <__errno>
 8005898:	2321      	movs	r3, #33	; 0x21
 800589a:	6003      	str	r3, [r0, #0]
 800589c:	e004      	b.n	80058a8 <asin+0x80>
 800589e:	4668      	mov	r0, sp
 80058a0:	f001 fcce 	bl	8007240 <matherr>
 80058a4:	2800      	cmp	r0, #0
 80058a6:	d0f5      	beq.n	8005894 <asin+0x6c>
 80058a8:	9b08      	ldr	r3, [sp, #32]
 80058aa:	b11b      	cbz	r3, 80058b4 <asin+0x8c>
 80058ac:	f7ff fe56 	bl	800555c <__errno>
 80058b0:	9b08      	ldr	r3, [sp, #32]
 80058b2:	6003      	str	r3, [r0, #0]
 80058b4:	ed9d 8b06 	vldr	d8, [sp, #24]
 80058b8:	eeb0 0a48 	vmov.f32	s0, s16
 80058bc:	eef0 0a68 	vmov.f32	s1, s17
 80058c0:	b00b      	add	sp, #44	; 0x2c
 80058c2:	ecbd 8b02 	vpop	{d8}
 80058c6:	bdf0      	pop	{r4, r5, r6, r7, pc}
 80058c8:	20000078 	.word	0x20000078
 80058cc:	3ff00000 	.word	0x3ff00000
 80058d0:	08007400 	.word	0x08007400
 80058d4:	080073f6 	.word	0x080073f6

080058d8 <sqrtf>:
 80058d8:	b510      	push	{r4, lr}
 80058da:	ed2d 8b02 	vpush	{d8}
 80058de:	b08a      	sub	sp, #40	; 0x28
 80058e0:	eeb0 8a40 	vmov.f32	s16, s0
 80058e4:	f000 ff56 	bl	8006794 <__ieee754_sqrtf>
 80058e8:	4b21      	ldr	r3, [pc, #132]	; (8005970 <sqrtf+0x98>)
 80058ea:	f993 4000 	ldrsb.w	r4, [r3]
 80058ee:	1c63      	adds	r3, r4, #1
 80058f0:	d02c      	beq.n	800594c <sqrtf+0x74>
 80058f2:	eeb4 8a48 	vcmp.f32	s16, s16
 80058f6:	eef1 fa10 	vmrs	APSR_nzcv, fpscr
 80058fa:	d627      	bvs.n	800594c <sqrtf+0x74>
 80058fc:	eeb5 8ac0 	vcmpe.f32	s16, #0.0
 8005900:	eef1 fa10 	vmrs	APSR_nzcv, fpscr
 8005904:	d522      	bpl.n	800594c <sqrtf+0x74>
 8005906:	2301      	movs	r3, #1
 8005908:	9300      	str	r3, [sp, #0]
 800590a:	4b1a      	ldr	r3, [pc, #104]	; (8005974 <sqrtf+0x9c>)
 800590c:	9301      	str	r3, [sp, #4]
 800590e:	ee18 0a10 	vmov	r0, s16
 8005912:	2300      	movs	r3, #0
 8005914:	9308      	str	r3, [sp, #32]
 8005916:	f7fa fdbb 	bl	8000490 <__aeabi_f2d>
 800591a:	2200      	movs	r2, #0
 800591c:	e9cd 0104 	strd	r0, r1, [sp, #16]
 8005920:	e9cd 0102 	strd	r0, r1, [sp, #8]
 8005924:	2300      	movs	r3, #0
 8005926:	b9ac      	cbnz	r4, 8005954 <sqrtf+0x7c>
 8005928:	e9cd 2306 	strd	r2, r3, [sp, #24]
 800592c:	4668      	mov	r0, sp
 800592e:	f001 fc87 	bl	8007240 <matherr>
 8005932:	b1b8      	cbz	r0, 8005964 <sqrtf+0x8c>
 8005934:	9b08      	ldr	r3, [sp, #32]
 8005936:	b11b      	cbz	r3, 8005940 <sqrtf+0x68>
 8005938:	f7ff fe10 	bl	800555c <__errno>
 800593c:	9b08      	ldr	r3, [sp, #32]
 800593e:	6003      	str	r3, [r0, #0]
 8005940:	e9dd 0106 	ldrd	r0, r1, [sp, #24]
 8005944:	f7fb f8d4 	bl	8000af0 <__aeabi_d2f>
 8005948:	ee00 0a10 	vmov	s0, r0
 800594c:	b00a      	add	sp, #40	; 0x28
 800594e:	ecbd 8b02 	vpop	{d8}
 8005952:	bd10      	pop	{r4, pc}
 8005954:	4610      	mov	r0, r2
 8005956:	4619      	mov	r1, r3
 8005958:	f7fa ff1c 	bl	8000794 <__aeabi_ddiv>
 800595c:	2c02      	cmp	r4, #2
 800595e:	e9cd 0106 	strd	r0, r1, [sp, #24]
 8005962:	d1e3      	bne.n	800592c <sqrtf+0x54>
 8005964:	f7ff fdfa 	bl	800555c <__errno>
 8005968:	2321      	movs	r3, #33	; 0x21
 800596a:	6003      	str	r3, [r0, #0]
 800596c:	e7e2      	b.n	8005934 <sqrtf+0x5c>
 800596e:	bf00      	nop
 8005970:	20000078 	.word	0x20000078
 8005974:	080073fb 	.word	0x080073fb

08005978 <__ieee754_acos>:
 8005978:	e92d 4ff8 	stmdb	sp!, {r3, r4, r5, r6, r7, r8, r9, sl, fp, lr}
 800597c:	ec55 4b10 	vmov	r4, r5, d0
 8005980:	49b7      	ldr	r1, [pc, #732]	; (8005c60 <__ieee754_acos+0x2e8>)
 8005982:	f025 4300 	bic.w	r3, r5, #2147483648	; 0x80000000
 8005986:	428b      	cmp	r3, r1
 8005988:	dd1b      	ble.n	80059c2 <__ieee754_acos+0x4a>
 800598a:	f103 4340 	add.w	r3, r3, #3221225472	; 0xc0000000
 800598e:	f503 1380 	add.w	r3, r3, #1048576	; 0x100000
 8005992:	4323      	orrs	r3, r4
 8005994:	d109      	bne.n	80059aa <__ieee754_acos+0x32>
 8005996:	2d00      	cmp	r5, #0
 8005998:	f300 8211 	bgt.w	8005dbe <__ieee754_acos+0x446>
 800599c:	a196      	add	r1, pc, #600	; (adr r1, 8005bf8 <__ieee754_acos+0x280>)
 800599e:	e9d1 0100 	ldrd	r0, r1, [r1]
 80059a2:	ec41 0b10 	vmov	d0, r0, r1
 80059a6:	e8bd 8ff8 	ldmia.w	sp!, {r3, r4, r5, r6, r7, r8, r9, sl, fp, pc}
 80059aa:	ee10 2a10 	vmov	r2, s0
 80059ae:	462b      	mov	r3, r5
 80059b0:	4620      	mov	r0, r4
 80059b2:	4629      	mov	r1, r5
 80059b4:	f7fa fc0c 	bl	80001d0 <__aeabi_dsub>
 80059b8:	4602      	mov	r2, r0
 80059ba:	460b      	mov	r3, r1
 80059bc:	f7fa feea 	bl	8000794 <__aeabi_ddiv>
 80059c0:	e7ef      	b.n	80059a2 <__ieee754_acos+0x2a>
 80059c2:	49a8      	ldr	r1, [pc, #672]	; (8005c64 <__ieee754_acos+0x2ec>)
 80059c4:	428b      	cmp	r3, r1
 80059c6:	f300 8087 	bgt.w	8005ad8 <__ieee754_acos+0x160>
 80059ca:	4aa7      	ldr	r2, [pc, #668]	; (8005c68 <__ieee754_acos+0x2f0>)
 80059cc:	4293      	cmp	r3, r2
 80059ce:	f340 81f9 	ble.w	8005dc4 <__ieee754_acos+0x44c>
 80059d2:	ee10 2a10 	vmov	r2, s0
 80059d6:	ee10 0a10 	vmov	r0, s0
 80059da:	462b      	mov	r3, r5
 80059dc:	4629      	mov	r1, r5
 80059de:	f7fa fdaf 	bl	8000540 <__aeabi_dmul>
 80059e2:	a387      	add	r3, pc, #540	; (adr r3, 8005c00 <__ieee754_acos+0x288>)
 80059e4:	e9d3 2300 	ldrd	r2, r3, [r3]
 80059e8:	4606      	mov	r6, r0
 80059ea:	460f      	mov	r7, r1
 80059ec:	f7fa fda8 	bl	8000540 <__aeabi_dmul>
 80059f0:	a385      	add	r3, pc, #532	; (adr r3, 8005c08 <__ieee754_acos+0x290>)
 80059f2:	e9d3 2300 	ldrd	r2, r3, [r3]
 80059f6:	f7fa fbed 	bl	80001d4 <__adddf3>
 80059fa:	4632      	mov	r2, r6
 80059fc:	463b      	mov	r3, r7
 80059fe:	f7fa fd9f 	bl	8000540 <__aeabi_dmul>
 8005a02:	a383      	add	r3, pc, #524	; (adr r3, 8005c10 <__ieee754_acos+0x298>)
 8005a04:	e9d3 2300 	ldrd	r2, r3, [r3]
 8005a08:	f7fa fbe2 	bl	80001d0 <__aeabi_dsub>
 8005a0c:	4632      	mov	r2, r6
 8005a0e:	463b      	mov	r3, r7
 8005a10:	f7fa fd96 	bl	8000540 <__aeabi_dmul>
 8005a14:	a380      	add	r3, pc, #512	; (adr r3, 8005c18 <__ieee754_acos+0x2a0>)
 8005a16:	e9d3 2300 	ldrd	r2, r3, [r3]
 8005a1a:	f7fa fbdb 	bl	80001d4 <__adddf3>
 8005a1e:	4632      	mov	r2, r6
 8005a20:	463b      	mov	r3, r7
 8005a22:	f7fa fd8d 	bl	8000540 <__aeabi_dmul>
 8005a26:	a37e      	add	r3, pc, #504	; (adr r3, 8005c20 <__ieee754_acos+0x2a8>)
 8005a28:	e9d3 2300 	ldrd	r2, r3, [r3]
 8005a2c:	f7fa fbd0 	bl	80001d0 <__aeabi_dsub>
 8005a30:	4632      	mov	r2, r6
 8005a32:	463b      	mov	r3, r7
 8005a34:	f7fa fd84 	bl	8000540 <__aeabi_dmul>
 8005a38:	a37b      	add	r3, pc, #492	; (adr r3, 8005c28 <__ieee754_acos+0x2b0>)
 8005a3a:	e9d3 2300 	ldrd	r2, r3, [r3]
 8005a3e:	f7fa fbc9 	bl	80001d4 <__adddf3>
 8005a42:	4632      	mov	r2, r6
 8005a44:	463b      	mov	r3, r7
 8005a46:	f7fa fd7b 	bl	8000540 <__aeabi_dmul>
 8005a4a:	a379      	add	r3, pc, #484	; (adr r3, 8005c30 <__ieee754_acos+0x2b8>)
 8005a4c:	e9d3 2300 	ldrd	r2, r3, [r3]
 8005a50:	4680      	mov	r8, r0
 8005a52:	4689      	mov	r9, r1
 8005a54:	4630      	mov	r0, r6
 8005a56:	4639      	mov	r1, r7
 8005a58:	f7fa fd72 	bl	8000540 <__aeabi_dmul>
 8005a5c:	a376      	add	r3, pc, #472	; (adr r3, 8005c38 <__ieee754_acos+0x2c0>)
 8005a5e:	e9d3 2300 	ldrd	r2, r3, [r3]
 8005a62:	f7fa fbb5 	bl	80001d0 <__aeabi_dsub>
 8005a66:	4632      	mov	r2, r6
 8005a68:	463b      	mov	r3, r7
 8005a6a:	f7fa fd69 	bl	8000540 <__aeabi_dmul>
 8005a6e:	a374      	add	r3, pc, #464	; (adr r3, 8005c40 <__ieee754_acos+0x2c8>)
 8005a70:	e9d3 2300 	ldrd	r2, r3, [r3]
 8005a74:	f7fa fbae 	bl	80001d4 <__adddf3>
 8005a78:	4632      	mov	r2, r6
 8005a7a:	463b      	mov	r3, r7
 8005a7c:	f7fa fd60 	bl	8000540 <__aeabi_dmul>
 8005a80:	a371      	add	r3, pc, #452	; (adr r3, 8005c48 <__ieee754_acos+0x2d0>)
 8005a82:	e9d3 2300 	ldrd	r2, r3, [r3]
 8005a86:	f7fa fba3 	bl	80001d0 <__aeabi_dsub>
 8005a8a:	4632      	mov	r2, r6
 8005a8c:	463b      	mov	r3, r7
 8005a8e:	f7fa fd57 	bl	8000540 <__aeabi_dmul>
 8005a92:	2200      	movs	r2, #0
 8005a94:	4b75      	ldr	r3, [pc, #468]	; (8005c6c <__ieee754_acos+0x2f4>)
 8005a96:	f7fa fb9d 	bl	80001d4 <__adddf3>
 8005a9a:	4602      	mov	r2, r0
 8005a9c:	460b      	mov	r3, r1
 8005a9e:	4640      	mov	r0, r8
 8005aa0:	4649      	mov	r1, r9
 8005aa2:	f7fa fe77 	bl	8000794 <__aeabi_ddiv>
 8005aa6:	4622      	mov	r2, r4
 8005aa8:	462b      	mov	r3, r5
 8005aaa:	f7fa fd49 	bl	8000540 <__aeabi_dmul>
 8005aae:	4602      	mov	r2, r0
 8005ab0:	460b      	mov	r3, r1
 8005ab2:	a167      	add	r1, pc, #412	; (adr r1, 8005c50 <__ieee754_acos+0x2d8>)
 8005ab4:	e9d1 0100 	ldrd	r0, r1, [r1]
 8005ab8:	f7fa fb8a 	bl	80001d0 <__aeabi_dsub>
 8005abc:	4602      	mov	r2, r0
 8005abe:	460b      	mov	r3, r1
 8005ac0:	4620      	mov	r0, r4
 8005ac2:	4629      	mov	r1, r5
 8005ac4:	f7fa fb84 	bl	80001d0 <__aeabi_dsub>
 8005ac8:	4602      	mov	r2, r0
 8005aca:	460b      	mov	r3, r1
 8005acc:	a162      	add	r1, pc, #392	; (adr r1, 8005c58 <__ieee754_acos+0x2e0>)
 8005ace:	e9d1 0100 	ldrd	r0, r1, [r1]
 8005ad2:	f7fa fb7d 	bl	80001d0 <__aeabi_dsub>
 8005ad6:	e764      	b.n	80059a2 <__ieee754_acos+0x2a>
 8005ad8:	2d00      	cmp	r5, #0
 8005ada:	f280 80cb 	bge.w	8005c74 <__ieee754_acos+0x2fc>
 8005ade:	ee10 0a10 	vmov	r0, s0
 8005ae2:	2200      	movs	r2, #0
 8005ae4:	4b61      	ldr	r3, [pc, #388]	; (8005c6c <__ieee754_acos+0x2f4>)
 8005ae6:	4629      	mov	r1, r5
 8005ae8:	f7fa fb74 	bl	80001d4 <__adddf3>
 8005aec:	2200      	movs	r2, #0
 8005aee:	4b60      	ldr	r3, [pc, #384]	; (8005c70 <__ieee754_acos+0x2f8>)
 8005af0:	f7fa fd26 	bl	8000540 <__aeabi_dmul>
 8005af4:	a342      	add	r3, pc, #264	; (adr r3, 8005c00 <__ieee754_acos+0x288>)
 8005af6:	e9d3 2300 	ldrd	r2, r3, [r3]
 8005afa:	4604      	mov	r4, r0
 8005afc:	460d      	mov	r5, r1
 8005afe:	f7fa fd1f 	bl	8000540 <__aeabi_dmul>
 8005b02:	a341      	add	r3, pc, #260	; (adr r3, 8005c08 <__ieee754_acos+0x290>)
 8005b04:	e9d3 2300 	ldrd	r2, r3, [r3]
 8005b08:	f7fa fb64 	bl	80001d4 <__adddf3>
 8005b0c:	4622      	mov	r2, r4
 8005b0e:	462b      	mov	r3, r5
 8005b10:	f7fa fd16 	bl	8000540 <__aeabi_dmul>
 8005b14:	a33e      	add	r3, pc, #248	; (adr r3, 8005c10 <__ieee754_acos+0x298>)
 8005b16:	e9d3 2300 	ldrd	r2, r3, [r3]
 8005b1a:	f7fa fb59 	bl	80001d0 <__aeabi_dsub>
 8005b1e:	4622      	mov	r2, r4
 8005b20:	462b      	mov	r3, r5
 8005b22:	f7fa fd0d 	bl	8000540 <__aeabi_dmul>
 8005b26:	a33c      	add	r3, pc, #240	; (adr r3, 8005c18 <__ieee754_acos+0x2a0>)
 8005b28:	e9d3 2300 	ldrd	r2, r3, [r3]
 8005b2c:	f7fa fb52 	bl	80001d4 <__adddf3>
 8005b30:	4622      	mov	r2, r4
 8005b32:	462b      	mov	r3, r5
 8005b34:	f7fa fd04 	bl	8000540 <__aeabi_dmul>
 8005b38:	a339      	add	r3, pc, #228	; (adr r3, 8005c20 <__ieee754_acos+0x2a8>)
 8005b3a:	e9d3 2300 	ldrd	r2, r3, [r3]
 8005b3e:	f7fa fb47 	bl	80001d0 <__aeabi_dsub>
 8005b42:	4622      	mov	r2, r4
 8005b44:	462b      	mov	r3, r5
 8005b46:	f7fa fcfb 	bl	8000540 <__aeabi_dmul>
 8005b4a:	a337      	add	r3, pc, #220	; (adr r3, 8005c28 <__ieee754_acos+0x2b0>)
 8005b4c:	e9d3 2300 	ldrd	r2, r3, [r3]
 8005b50:	f7fa fb40 	bl	80001d4 <__adddf3>
 8005b54:	4622      	mov	r2, r4
 8005b56:	462b      	mov	r3, r5
 8005b58:	f7fa fcf2 	bl	8000540 <__aeabi_dmul>
 8005b5c:	ec45 4b10 	vmov	d0, r4, r5
 8005b60:	4680      	mov	r8, r0
 8005b62:	4689      	mov	r9, r1
 8005b64:	f000 fd66 	bl	8006634 <__ieee754_sqrt>
 8005b68:	a331      	add	r3, pc, #196	; (adr r3, 8005c30 <__ieee754_acos+0x2b8>)
 8005b6a:	e9d3 2300 	ldrd	r2, r3, [r3]
 8005b6e:	4620      	mov	r0, r4
 8005b70:	4629      	mov	r1, r5
 8005b72:	ec57 6b10 	vmov	r6, r7, d0
 8005b76:	f7fa fce3 	bl	8000540 <__aeabi_dmul>
 8005b7a:	a32f      	add	r3, pc, #188	; (adr r3, 8005c38 <__ieee754_acos+0x2c0>)
 8005b7c:	e9d3 2300 	ldrd	r2, r3, [r3]
 8005b80:	f7fa fb26 	bl	80001d0 <__aeabi_dsub>
 8005b84:	4622      	mov	r2, r4
 8005b86:	462b      	mov	r3, r5
 8005b88:	f7fa fcda 	bl	8000540 <__aeabi_dmul>
 8005b8c:	a32c      	add	r3, pc, #176	; (adr r3, 8005c40 <__ieee754_acos+0x2c8>)
 8005b8e:	e9d3 2300 	ldrd	r2, r3, [r3]
 8005b92:	f7fa fb1f 	bl	80001d4 <__adddf3>
 8005b96:	4622      	mov	r2, r4
 8005b98:	462b      	mov	r3, r5
 8005b9a:	f7fa fcd1 	bl	8000540 <__aeabi_dmul>
 8005b9e:	a32a      	add	r3, pc, #168	; (adr r3, 8005c48 <__ieee754_acos+0x2d0>)
 8005ba0:	e9d3 2300 	ldrd	r2, r3, [r3]
 8005ba4:	f7fa fb14 	bl	80001d0 <__aeabi_dsub>
 8005ba8:	4622      	mov	r2, r4
 8005baa:	462b      	mov	r3, r5
 8005bac:	f7fa fcc8 	bl	8000540 <__aeabi_dmul>
 8005bb0:	2200      	movs	r2, #0
 8005bb2:	4b2e      	ldr	r3, [pc, #184]	; (8005c6c <__ieee754_acos+0x2f4>)
 8005bb4:	f7fa fb0e 	bl	80001d4 <__adddf3>
 8005bb8:	4602      	mov	r2, r0
 8005bba:	460b      	mov	r3, r1
 8005bbc:	4640      	mov	r0, r8
 8005bbe:	4649      	mov	r1, r9
 8005bc0:	f7fa fde8 	bl	8000794 <__aeabi_ddiv>
 8005bc4:	4632      	mov	r2, r6
 8005bc6:	463b      	mov	r3, r7
 8005bc8:	f7fa fcba 	bl	8000540 <__aeabi_dmul>
 8005bcc:	a320      	add	r3, pc, #128	; (adr r3, 8005c50 <__ieee754_acos+0x2d8>)
 8005bce:	e9d3 2300 	ldrd	r2, r3, [r3]
 8005bd2:	f7fa fafd 	bl	80001d0 <__aeabi_dsub>
 8005bd6:	4632      	mov	r2, r6
 8005bd8:	463b      	mov	r3, r7
 8005bda:	f7fa fafb 	bl	80001d4 <__adddf3>
 8005bde:	4602      	mov	r2, r0
 8005be0:	460b      	mov	r3, r1
 8005be2:	f7fa faf7 	bl	80001d4 <__adddf3>
 8005be6:	4602      	mov	r2, r0
 8005be8:	460b      	mov	r3, r1
 8005bea:	a103      	add	r1, pc, #12	; (adr r1, 8005bf8 <__ieee754_acos+0x280>)
 8005bec:	e9d1 0100 	ldrd	r0, r1, [r1]
 8005bf0:	e76f      	b.n	8005ad2 <__ieee754_acos+0x15a>
 8005bf2:	bf00      	nop
 8005bf4:	f3af 8000 	nop.w
 8005bf8:	54442d18 	.word	0x54442d18
 8005bfc:	400921fb 	.word	0x400921fb
 8005c00:	0dfdf709 	.word	0x0dfdf709
 8005c04:	3f023de1 	.word	0x3f023de1
 8005c08:	7501b288 	.word	0x7501b288
 8005c0c:	3f49efe0 	.word	0x3f49efe0
 8005c10:	b5688f3b 	.word	0xb5688f3b
 8005c14:	3fa48228 	.word	0x3fa48228
 8005c18:	0e884455 	.word	0x0e884455
 8005c1c:	3fc9c155 	.word	0x3fc9c155
 8005c20:	03eb6f7d 	.word	0x03eb6f7d
 8005c24:	3fd4d612 	.word	0x3fd4d612
 8005c28:	55555555 	.word	0x55555555
 8005c2c:	3fc55555 	.word	0x3fc55555
 8005c30:	b12e9282 	.word	0xb12e9282
 8005c34:	3fb3b8c5 	.word	0x3fb3b8c5
 8005c38:	1b8d0159 	.word	0x1b8d0159
 8005c3c:	3fe6066c 	.word	0x3fe6066c
 8005c40:	9c598ac8 	.word	0x9c598ac8
 8005c44:	40002ae5 	.word	0x40002ae5
 8005c48:	1c8a2d4b 	.word	0x1c8a2d4b
 8005c4c:	40033a27 	.word	0x40033a27
 8005c50:	33145c07 	.word	0x33145c07
 8005c54:	3c91a626 	.word	0x3c91a626
 8005c58:	54442d18 	.word	0x54442d18
 8005c5c:	3ff921fb 	.word	0x3ff921fb
 8005c60:	3fefffff 	.word	0x3fefffff
 8005c64:	3fdfffff 	.word	0x3fdfffff
 8005c68:	3c600000 	.word	0x3c600000
 8005c6c:	3ff00000 	.word	0x3ff00000
 8005c70:	3fe00000 	.word	0x3fe00000
 8005c74:	ee10 2a10 	vmov	r2, s0
 8005c78:	462b      	mov	r3, r5
 8005c7a:	2000      	movs	r0, #0
 8005c7c:	496a      	ldr	r1, [pc, #424]	; (8005e28 <__ieee754_acos+0x4b0>)
 8005c7e:	f7fa faa7 	bl	80001d0 <__aeabi_dsub>
 8005c82:	2200      	movs	r2, #0
 8005c84:	4b69      	ldr	r3, [pc, #420]	; (8005e2c <__ieee754_acos+0x4b4>)
 8005c86:	f7fa fc5b 	bl	8000540 <__aeabi_dmul>
 8005c8a:	4604      	mov	r4, r0
 8005c8c:	460d      	mov	r5, r1
 8005c8e:	ec45 4b10 	vmov	d0, r4, r5
 8005c92:	f000 fccf 	bl	8006634 <__ieee754_sqrt>
 8005c96:	a34e      	add	r3, pc, #312	; (adr r3, 8005dd0 <__ieee754_acos+0x458>)
 8005c98:	e9d3 2300 	ldrd	r2, r3, [r3]
 8005c9c:	4620      	mov	r0, r4
 8005c9e:	4629      	mov	r1, r5
 8005ca0:	ec59 8b10 	vmov	r8, r9, d0
 8005ca4:	f7fa fc4c 	bl	8000540 <__aeabi_dmul>
 8005ca8:	a34b      	add	r3, pc, #300	; (adr r3, 8005dd8 <__ieee754_acos+0x460>)
 8005caa:	e9d3 2300 	ldrd	r2, r3, [r3]
 8005cae:	f7fa fa91 	bl	80001d4 <__adddf3>
 8005cb2:	4622      	mov	r2, r4
 8005cb4:	462b      	mov	r3, r5
 8005cb6:	f7fa fc43 	bl	8000540 <__aeabi_dmul>
 8005cba:	a349      	add	r3, pc, #292	; (adr r3, 8005de0 <__ieee754_acos+0x468>)
 8005cbc:	e9d3 2300 	ldrd	r2, r3, [r3]
 8005cc0:	f7fa fa86 	bl	80001d0 <__aeabi_dsub>
 8005cc4:	4622      	mov	r2, r4
 8005cc6:	462b      	mov	r3, r5
 8005cc8:	f7fa fc3a 	bl	8000540 <__aeabi_dmul>
 8005ccc:	a346      	add	r3, pc, #280	; (adr r3, 8005de8 <__ieee754_acos+0x470>)
 8005cce:	e9d3 2300 	ldrd	r2, r3, [r3]
 8005cd2:	f7fa fa7f 	bl	80001d4 <__adddf3>
 8005cd6:	4622      	mov	r2, r4
 8005cd8:	462b      	mov	r3, r5
 8005cda:	f7fa fc31 	bl	8000540 <__aeabi_dmul>
 8005cde:	a344      	add	r3, pc, #272	; (adr r3, 8005df0 <__ieee754_acos+0x478>)
 8005ce0:	e9d3 2300 	ldrd	r2, r3, [r3]
 8005ce4:	f7fa fa74 	bl	80001d0 <__aeabi_dsub>
 8005ce8:	4622      	mov	r2, r4
 8005cea:	462b      	mov	r3, r5
 8005cec:	f7fa fc28 	bl	8000540 <__aeabi_dmul>
 8005cf0:	a341      	add	r3, pc, #260	; (adr r3, 8005df8 <__ieee754_acos+0x480>)
 8005cf2:	e9d3 2300 	ldrd	r2, r3, [r3]
 8005cf6:	f7fa fa6d 	bl	80001d4 <__adddf3>
 8005cfa:	4622      	mov	r2, r4
 8005cfc:	462b      	mov	r3, r5
 8005cfe:	f7fa fc1f 	bl	8000540 <__aeabi_dmul>
 8005d02:	a33f      	add	r3, pc, #252	; (adr r3, 8005e00 <__ieee754_acos+0x488>)
 8005d04:	e9d3 2300 	ldrd	r2, r3, [r3]
 8005d08:	4682      	mov	sl, r0
 8005d0a:	468b      	mov	fp, r1
 8005d0c:	4620      	mov	r0, r4
 8005d0e:	4629      	mov	r1, r5
 8005d10:	f7fa fc16 	bl	8000540 <__aeabi_dmul>
 8005d14:	a33c      	add	r3, pc, #240	; (adr r3, 8005e08 <__ieee754_acos+0x490>)
 8005d16:	e9d3 2300 	ldrd	r2, r3, [r3]
 8005d1a:	f7fa fa59 	bl	80001d0 <__aeabi_dsub>
 8005d1e:	4622      	mov	r2, r4
 8005d20:	462b      	mov	r3, r5
 8005d22:	f7fa fc0d 	bl	8000540 <__aeabi_dmul>
 8005d26:	a33a      	add	r3, pc, #232	; (adr r3, 8005e10 <__ieee754_acos+0x498>)
 8005d28:	e9d3 2300 	ldrd	r2, r3, [r3]
 8005d2c:	f7fa fa52 	bl	80001d4 <__adddf3>
 8005d30:	4622      	mov	r2, r4
 8005d32:	462b      	mov	r3, r5
 8005d34:	f7fa fc04 	bl	8000540 <__aeabi_dmul>
 8005d38:	a337      	add	r3, pc, #220	; (adr r3, 8005e18 <__ieee754_acos+0x4a0>)
 8005d3a:	e9d3 2300 	ldrd	r2, r3, [r3]
 8005d3e:	f7fa fa47 	bl	80001d0 <__aeabi_dsub>
 8005d42:	4622      	mov	r2, r4
 8005d44:	462b      	mov	r3, r5
 8005d46:	f7fa fbfb 	bl	8000540 <__aeabi_dmul>
 8005d4a:	2200      	movs	r2, #0
 8005d4c:	4b36      	ldr	r3, [pc, #216]	; (8005e28 <__ieee754_acos+0x4b0>)
 8005d4e:	f7fa fa41 	bl	80001d4 <__adddf3>
 8005d52:	4602      	mov	r2, r0
 8005d54:	460b      	mov	r3, r1
 8005d56:	4650      	mov	r0, sl
 8005d58:	4659      	mov	r1, fp
 8005d5a:	f7fa fd1b 	bl	8000794 <__aeabi_ddiv>
 8005d5e:	4642      	mov	r2, r8
 8005d60:	464b      	mov	r3, r9
 8005d62:	f7fa fbed 	bl	8000540 <__aeabi_dmul>
 8005d66:	2600      	movs	r6, #0
 8005d68:	4682      	mov	sl, r0
 8005d6a:	468b      	mov	fp, r1
 8005d6c:	4632      	mov	r2, r6
 8005d6e:	464b      	mov	r3, r9
 8005d70:	4630      	mov	r0, r6
 8005d72:	4649      	mov	r1, r9
 8005d74:	f7fa fbe4 	bl	8000540 <__aeabi_dmul>
 8005d78:	4602      	mov	r2, r0
 8005d7a:	460b      	mov	r3, r1
 8005d7c:	4620      	mov	r0, r4
 8005d7e:	4629      	mov	r1, r5
 8005d80:	f7fa fa26 	bl	80001d0 <__aeabi_dsub>
 8005d84:	4632      	mov	r2, r6
 8005d86:	4604      	mov	r4, r0
 8005d88:	460d      	mov	r5, r1
 8005d8a:	464b      	mov	r3, r9
 8005d8c:	4640      	mov	r0, r8
 8005d8e:	4649      	mov	r1, r9
 8005d90:	f7fa fa20 	bl	80001d4 <__adddf3>
 8005d94:	4602      	mov	r2, r0
 8005d96:	460b      	mov	r3, r1
 8005d98:	4620      	mov	r0, r4
 8005d9a:	4629      	mov	r1, r5
 8005d9c:	f7fa fcfa 	bl	8000794 <__aeabi_ddiv>
 8005da0:	4602      	mov	r2, r0
 8005da2:	460b      	mov	r3, r1
 8005da4:	4650      	mov	r0, sl
 8005da6:	4659      	mov	r1, fp
 8005da8:	f7fa fa14 	bl	80001d4 <__adddf3>
 8005dac:	4632      	mov	r2, r6
 8005dae:	464b      	mov	r3, r9
 8005db0:	f7fa fa10 	bl	80001d4 <__adddf3>
 8005db4:	4602      	mov	r2, r0
 8005db6:	460b      	mov	r3, r1
 8005db8:	f7fa fa0c 	bl	80001d4 <__adddf3>
 8005dbc:	e5f1      	b.n	80059a2 <__ieee754_acos+0x2a>
 8005dbe:	2000      	movs	r0, #0
 8005dc0:	2100      	movs	r1, #0
 8005dc2:	e5ee      	b.n	80059a2 <__ieee754_acos+0x2a>
 8005dc4:	a116      	add	r1, pc, #88	; (adr r1, 8005e20 <__ieee754_acos+0x4a8>)
 8005dc6:	e9d1 0100 	ldrd	r0, r1, [r1]
 8005dca:	e5ea      	b.n	80059a2 <__ieee754_acos+0x2a>
 8005dcc:	f3af 8000 	nop.w
 8005dd0:	0dfdf709 	.word	0x0dfdf709
 8005dd4:	3f023de1 	.word	0x3f023de1
 8005dd8:	7501b288 	.word	0x7501b288
 8005ddc:	3f49efe0 	.word	0x3f49efe0
 8005de0:	b5688f3b 	.word	0xb5688f3b
 8005de4:	3fa48228 	.word	0x3fa48228
 8005de8:	0e884455 	.word	0x0e884455
 8005dec:	3fc9c155 	.word	0x3fc9c155
 8005df0:	03eb6f7d 	.word	0x03eb6f7d
 8005df4:	3fd4d612 	.word	0x3fd4d612
 8005df8:	55555555 	.word	0x55555555
 8005dfc:	3fc55555 	.word	0x3fc55555
 8005e00:	b12e9282 	.word	0xb12e9282
 8005e04:	3fb3b8c5 	.word	0x3fb3b8c5
 8005e08:	1b8d0159 	.word	0x1b8d0159
 8005e0c:	3fe6066c 	.word	0x3fe6066c
 8005e10:	9c598ac8 	.word	0x9c598ac8
 8005e14:	40002ae5 	.word	0x40002ae5
 8005e18:	1c8a2d4b 	.word	0x1c8a2d4b
 8005e1c:	40033a27 	.word	0x40033a27
 8005e20:	54442d18 	.word	0x54442d18
 8005e24:	3ff921fb 	.word	0x3ff921fb
 8005e28:	3ff00000 	.word	0x3ff00000
 8005e2c:	3fe00000 	.word	0x3fe00000

08005e30 <__ieee754_asin>:
 8005e30:	e92d 4ff0 	stmdb	sp!, {r4, r5, r6, r7, r8, r9, sl, fp, lr}
 8005e34:	ec55 4b10 	vmov	r4, r5, d0
 8005e38:	4bcb      	ldr	r3, [pc, #812]	; (8006168 <__ieee754_asin+0x338>)
 8005e3a:	b087      	sub	sp, #28
 8005e3c:	f025 4700 	bic.w	r7, r5, #2147483648	; 0x80000000
 8005e40:	429f      	cmp	r7, r3
 8005e42:	9501      	str	r5, [sp, #4]
 8005e44:	dd31      	ble.n	8005eaa <__ieee754_asin+0x7a>
 8005e46:	f107 4740 	add.w	r7, r7, #3221225472	; 0xc0000000
 8005e4a:	ee10 3a10 	vmov	r3, s0
 8005e4e:	f507 1780 	add.w	r7, r7, #1048576	; 0x100000
 8005e52:	433b      	orrs	r3, r7
 8005e54:	d117      	bne.n	8005e86 <__ieee754_asin+0x56>
 8005e56:	a3aa      	add	r3, pc, #680	; (adr r3, 8006100 <__ieee754_asin+0x2d0>)
 8005e58:	e9d3 2300 	ldrd	r2, r3, [r3]
 8005e5c:	ee10 0a10 	vmov	r0, s0
 8005e60:	4629      	mov	r1, r5
 8005e62:	f7fa fb6d 	bl	8000540 <__aeabi_dmul>
 8005e66:	a3a8      	add	r3, pc, #672	; (adr r3, 8006108 <__ieee754_asin+0x2d8>)
 8005e68:	e9d3 2300 	ldrd	r2, r3, [r3]
 8005e6c:	4606      	mov	r6, r0
 8005e6e:	460f      	mov	r7, r1
 8005e70:	4620      	mov	r0, r4
 8005e72:	4629      	mov	r1, r5
 8005e74:	f7fa fb64 	bl	8000540 <__aeabi_dmul>
 8005e78:	4602      	mov	r2, r0
 8005e7a:	460b      	mov	r3, r1
 8005e7c:	4630      	mov	r0, r6
 8005e7e:	4639      	mov	r1, r7
 8005e80:	f7fa f9a8 	bl	80001d4 <__adddf3>
 8005e84:	e00a      	b.n	8005e9c <__ieee754_asin+0x6c>
 8005e86:	ee10 2a10 	vmov	r2, s0
 8005e8a:	462b      	mov	r3, r5
 8005e8c:	4620      	mov	r0, r4
 8005e8e:	4629      	mov	r1, r5
 8005e90:	f7fa f99e 	bl	80001d0 <__aeabi_dsub>
 8005e94:	4602      	mov	r2, r0
 8005e96:	460b      	mov	r3, r1
 8005e98:	f7fa fc7c 	bl	8000794 <__aeabi_ddiv>
 8005e9c:	4604      	mov	r4, r0
 8005e9e:	460d      	mov	r5, r1
 8005ea0:	ec45 4b10 	vmov	d0, r4, r5
 8005ea4:	b007      	add	sp, #28
 8005ea6:	e8bd 8ff0 	ldmia.w	sp!, {r4, r5, r6, r7, r8, r9, sl, fp, pc}
 8005eaa:	4bb0      	ldr	r3, [pc, #704]	; (800616c <__ieee754_asin+0x33c>)
 8005eac:	429f      	cmp	r7, r3
 8005eae:	dc11      	bgt.n	8005ed4 <__ieee754_asin+0xa4>
 8005eb0:	f1b7 5f79 	cmp.w	r7, #1044381696	; 0x3e400000
 8005eb4:	f280 80ae 	bge.w	8006014 <__ieee754_asin+0x1e4>
 8005eb8:	a395      	add	r3, pc, #596	; (adr r3, 8006110 <__ieee754_asin+0x2e0>)
 8005eba:	e9d3 2300 	ldrd	r2, r3, [r3]
 8005ebe:	ee10 0a10 	vmov	r0, s0
 8005ec2:	4629      	mov	r1, r5
 8005ec4:	f7fa f986 	bl	80001d4 <__adddf3>
 8005ec8:	2200      	movs	r2, #0
 8005eca:	4ba9      	ldr	r3, [pc, #676]	; (8006170 <__ieee754_asin+0x340>)
 8005ecc:	f7fa fdc8 	bl	8000a60 <__aeabi_dcmpgt>
 8005ed0:	2800      	cmp	r0, #0
 8005ed2:	d1e5      	bne.n	8005ea0 <__ieee754_asin+0x70>
 8005ed4:	ec45 4b10 	vmov	d0, r4, r5
 8005ed8:	f001 f924 	bl	8007124 <fabs>
 8005edc:	2000      	movs	r0, #0
 8005ede:	ec53 2b10 	vmov	r2, r3, d0
 8005ee2:	49a3      	ldr	r1, [pc, #652]	; (8006170 <__ieee754_asin+0x340>)
 8005ee4:	f7fa f974 	bl	80001d0 <__aeabi_dsub>
 8005ee8:	2200      	movs	r2, #0
 8005eea:	4ba2      	ldr	r3, [pc, #648]	; (8006174 <__ieee754_asin+0x344>)
 8005eec:	f7fa fb28 	bl	8000540 <__aeabi_dmul>
 8005ef0:	a389      	add	r3, pc, #548	; (adr r3, 8006118 <__ieee754_asin+0x2e8>)
 8005ef2:	e9d3 2300 	ldrd	r2, r3, [r3]
 8005ef6:	4604      	mov	r4, r0
 8005ef8:	460d      	mov	r5, r1
 8005efa:	f7fa fb21 	bl	8000540 <__aeabi_dmul>
 8005efe:	a388      	add	r3, pc, #544	; (adr r3, 8006120 <__ieee754_asin+0x2f0>)
 8005f00:	e9d3 2300 	ldrd	r2, r3, [r3]
 8005f04:	f7fa f966 	bl	80001d4 <__adddf3>
 8005f08:	4622      	mov	r2, r4
 8005f0a:	462b      	mov	r3, r5
 8005f0c:	f7fa fb18 	bl	8000540 <__aeabi_dmul>
 8005f10:	a385      	add	r3, pc, #532	; (adr r3, 8006128 <__ieee754_asin+0x2f8>)
 8005f12:	e9d3 2300 	ldrd	r2, r3, [r3]
 8005f16:	f7fa f95b 	bl	80001d0 <__aeabi_dsub>
 8005f1a:	4622      	mov	r2, r4
 8005f1c:	462b      	mov	r3, r5
 8005f1e:	f7fa fb0f 	bl	8000540 <__aeabi_dmul>
 8005f22:	a383      	add	r3, pc, #524	; (adr r3, 8006130 <__ieee754_asin+0x300>)
 8005f24:	e9d3 2300 	ldrd	r2, r3, [r3]
 8005f28:	f7fa f954 	bl	80001d4 <__adddf3>
 8005f2c:	4622      	mov	r2, r4
 8005f2e:	462b      	mov	r3, r5
 8005f30:	f7fa fb06 	bl	8000540 <__aeabi_dmul>
 8005f34:	a380      	add	r3, pc, #512	; (adr r3, 8006138 <__ieee754_asin+0x308>)
 8005f36:	e9d3 2300 	ldrd	r2, r3, [r3]
 8005f3a:	f7fa f949 	bl	80001d0 <__aeabi_dsub>
 8005f3e:	4622      	mov	r2, r4
 8005f40:	462b      	mov	r3, r5
 8005f42:	f7fa fafd 	bl	8000540 <__aeabi_dmul>
 8005f46:	a37e      	add	r3, pc, #504	; (adr r3, 8006140 <__ieee754_asin+0x310>)
 8005f48:	e9d3 2300 	ldrd	r2, r3, [r3]
 8005f4c:	f7fa f942 	bl	80001d4 <__adddf3>
 8005f50:	4622      	mov	r2, r4
 8005f52:	462b      	mov	r3, r5
 8005f54:	f7fa faf4 	bl	8000540 <__aeabi_dmul>
 8005f58:	a37b      	add	r3, pc, #492	; (adr r3, 8006148 <__ieee754_asin+0x318>)
 8005f5a:	e9d3 2300 	ldrd	r2, r3, [r3]
 8005f5e:	4680      	mov	r8, r0
 8005f60:	4689      	mov	r9, r1
 8005f62:	4620      	mov	r0, r4
 8005f64:	4629      	mov	r1, r5
 8005f66:	f7fa faeb 	bl	8000540 <__aeabi_dmul>
 8005f6a:	a379      	add	r3, pc, #484	; (adr r3, 8006150 <__ieee754_asin+0x320>)
 8005f6c:	e9d3 2300 	ldrd	r2, r3, [r3]
 8005f70:	f7fa f92e 	bl	80001d0 <__aeabi_dsub>
 8005f74:	4622      	mov	r2, r4
 8005f76:	462b      	mov	r3, r5
 8005f78:	f7fa fae2 	bl	8000540 <__aeabi_dmul>
 8005f7c:	a376      	add	r3, pc, #472	; (adr r3, 8006158 <__ieee754_asin+0x328>)
 8005f7e:	e9d3 2300 	ldrd	r2, r3, [r3]
 8005f82:	f7fa f927 	bl	80001d4 <__adddf3>
 8005f86:	4622      	mov	r2, r4
 8005f88:	462b      	mov	r3, r5
 8005f8a:	f7fa fad9 	bl	8000540 <__aeabi_dmul>
 8005f8e:	a374      	add	r3, pc, #464	; (adr r3, 8006160 <__ieee754_asin+0x330>)
 8005f90:	e9d3 2300 	ldrd	r2, r3, [r3]
 8005f94:	f7fa f91c 	bl	80001d0 <__aeabi_dsub>
 8005f98:	4622      	mov	r2, r4
 8005f9a:	462b      	mov	r3, r5
 8005f9c:	f7fa fad0 	bl	8000540 <__aeabi_dmul>
 8005fa0:	4b73      	ldr	r3, [pc, #460]	; (8006170 <__ieee754_asin+0x340>)
 8005fa2:	2200      	movs	r2, #0
 8005fa4:	f7fa f916 	bl	80001d4 <__adddf3>
 8005fa8:	ec45 4b10 	vmov	d0, r4, r5
 8005fac:	e9cd 0102 	strd	r0, r1, [sp, #8]
 8005fb0:	f000 fb40 	bl	8006634 <__ieee754_sqrt>
 8005fb4:	4b70      	ldr	r3, [pc, #448]	; (8006178 <__ieee754_asin+0x348>)
 8005fb6:	429f      	cmp	r7, r3
 8005fb8:	ec5b ab10 	vmov	sl, fp, d0
 8005fbc:	f340 80de 	ble.w	800617c <__ieee754_asin+0x34c>
 8005fc0:	e9dd 2302 	ldrd	r2, r3, [sp, #8]
 8005fc4:	4640      	mov	r0, r8
 8005fc6:	4649      	mov	r1, r9
 8005fc8:	f7fa fbe4 	bl	8000794 <__aeabi_ddiv>
 8005fcc:	4652      	mov	r2, sl
 8005fce:	465b      	mov	r3, fp
 8005fd0:	f7fa fab6 	bl	8000540 <__aeabi_dmul>
 8005fd4:	4652      	mov	r2, sl
 8005fd6:	465b      	mov	r3, fp
 8005fd8:	f7fa f8fc 	bl	80001d4 <__adddf3>
 8005fdc:	4602      	mov	r2, r0
 8005fde:	460b      	mov	r3, r1
 8005fe0:	f7fa f8f8 	bl	80001d4 <__adddf3>
 8005fe4:	a348      	add	r3, pc, #288	; (adr r3, 8006108 <__ieee754_asin+0x2d8>)
 8005fe6:	e9d3 2300 	ldrd	r2, r3, [r3]
 8005fea:	f7fa f8f1 	bl	80001d0 <__aeabi_dsub>
 8005fee:	4602      	mov	r2, r0
 8005ff0:	460b      	mov	r3, r1
 8005ff2:	a143      	add	r1, pc, #268	; (adr r1, 8006100 <__ieee754_asin+0x2d0>)
 8005ff4:	e9d1 0100 	ldrd	r0, r1, [r1]
 8005ff8:	f7fa f8ea 	bl	80001d0 <__aeabi_dsub>
 8005ffc:	9b01      	ldr	r3, [sp, #4]
 8005ffe:	2b00      	cmp	r3, #0
 8006000:	bfdc      	itt	le
 8006002:	4602      	movle	r2, r0
 8006004:	f101 4300 	addle.w	r3, r1, #2147483648	; 0x80000000
 8006008:	4604      	mov	r4, r0
 800600a:	460d      	mov	r5, r1
 800600c:	bfdc      	itt	le
 800600e:	4614      	movle	r4, r2
 8006010:	461d      	movle	r5, r3
 8006012:	e745      	b.n	8005ea0 <__ieee754_asin+0x70>
 8006014:	ee10 2a10 	vmov	r2, s0
 8006018:	ee10 0a10 	vmov	r0, s0
 800601c:	462b      	mov	r3, r5
 800601e:	4629      	mov	r1, r5
 8006020:	f7fa fa8e 	bl	8000540 <__aeabi_dmul>
 8006024:	a33c      	add	r3, pc, #240	; (adr r3, 8006118 <__ieee754_asin+0x2e8>)
 8006026:	e9d3 2300 	ldrd	r2, r3, [r3]
 800602a:	4606      	mov	r6, r0
 800602c:	460f      	mov	r7, r1
 800602e:	f7fa fa87 	bl	8000540 <__aeabi_dmul>
 8006032:	a33b      	add	r3, pc, #236	; (adr r3, 8006120 <__ieee754_asin+0x2f0>)
 8006034:	e9d3 2300 	ldrd	r2, r3, [r3]
 8006038:	f7fa f8cc 	bl	80001d4 <__adddf3>
 800603c:	4632      	mov	r2, r6
 800603e:	463b      	mov	r3, r7
 8006040:	f7fa fa7e 	bl	8000540 <__aeabi_dmul>
 8006044:	a338      	add	r3, pc, #224	; (adr r3, 8006128 <__ieee754_asin+0x2f8>)
 8006046:	e9d3 2300 	ldrd	r2, r3, [r3]
 800604a:	f7fa f8c1 	bl	80001d0 <__aeabi_dsub>
 800604e:	4632      	mov	r2, r6
 8006050:	463b      	mov	r3, r7
 8006052:	f7fa fa75 	bl	8000540 <__aeabi_dmul>
 8006056:	a336      	add	r3, pc, #216	; (adr r3, 8006130 <__ieee754_asin+0x300>)
 8006058:	e9d3 2300 	ldrd	r2, r3, [r3]
 800605c:	f7fa f8ba 	bl	80001d4 <__adddf3>
 8006060:	4632      	mov	r2, r6
 8006062:	463b      	mov	r3, r7
 8006064:	f7fa fa6c 	bl	8000540 <__aeabi_dmul>
 8006068:	a333      	add	r3, pc, #204	; (adr r3, 8006138 <__ieee754_asin+0x308>)
 800606a:	e9d3 2300 	ldrd	r2, r3, [r3]
 800606e:	f7fa f8af 	bl	80001d0 <__aeabi_dsub>
 8006072:	4632      	mov	r2, r6
 8006074:	463b      	mov	r3, r7
 8006076:	f7fa fa63 	bl	8000540 <__aeabi_dmul>
 800607a:	a331      	add	r3, pc, #196	; (adr r3, 8006140 <__ieee754_asin+0x310>)
 800607c:	e9d3 2300 	ldrd	r2, r3, [r3]
 8006080:	f7fa f8a8 	bl	80001d4 <__adddf3>
 8006084:	4632      	mov	r2, r6
 8006086:	463b      	mov	r3, r7
 8006088:	f7fa fa5a 	bl	8000540 <__aeabi_dmul>
 800608c:	a32e      	add	r3, pc, #184	; (adr r3, 8006148 <__ieee754_asin+0x318>)
 800608e:	e9d3 2300 	ldrd	r2, r3, [r3]
 8006092:	4680      	mov	r8, r0
 8006094:	4689      	mov	r9, r1
 8006096:	4630      	mov	r0, r6
 8006098:	4639      	mov	r1, r7
 800609a:	f7fa fa51 	bl	8000540 <__aeabi_dmul>
 800609e:	a32c      	add	r3, pc, #176	; (adr r3, 8006150 <__ieee754_asin+0x320>)
 80060a0:	e9d3 2300 	ldrd	r2, r3, [r3]
 80060a4:	f7fa f894 	bl	80001d0 <__aeabi_dsub>
 80060a8:	4632      	mov	r2, r6
 80060aa:	463b      	mov	r3, r7
 80060ac:	f7fa fa48 	bl	8000540 <__aeabi_dmul>
 80060b0:	a329      	add	r3, pc, #164	; (adr r3, 8006158 <__ieee754_asin+0x328>)
 80060b2:	e9d3 2300 	ldrd	r2, r3, [r3]
 80060b6:	f7fa f88d 	bl	80001d4 <__adddf3>
 80060ba:	4632      	mov	r2, r6
 80060bc:	463b      	mov	r3, r7
 80060be:	f7fa fa3f 	bl	8000540 <__aeabi_dmul>
 80060c2:	a327      	add	r3, pc, #156	; (adr r3, 8006160 <__ieee754_asin+0x330>)
 80060c4:	e9d3 2300 	ldrd	r2, r3, [r3]
 80060c8:	f7fa f882 	bl	80001d0 <__aeabi_dsub>
 80060cc:	4632      	mov	r2, r6
 80060ce:	463b      	mov	r3, r7
 80060d0:	f7fa fa36 	bl	8000540 <__aeabi_dmul>
 80060d4:	2200      	movs	r2, #0
 80060d6:	4b26      	ldr	r3, [pc, #152]	; (8006170 <__ieee754_asin+0x340>)
 80060d8:	f7fa f87c 	bl	80001d4 <__adddf3>
 80060dc:	4602      	mov	r2, r0
 80060de:	460b      	mov	r3, r1
 80060e0:	4640      	mov	r0, r8
 80060e2:	4649      	mov	r1, r9
 80060e4:	f7fa fb56 	bl	8000794 <__aeabi_ddiv>
 80060e8:	4622      	mov	r2, r4
 80060ea:	462b      	mov	r3, r5
 80060ec:	f7fa fa28 	bl	8000540 <__aeabi_dmul>
 80060f0:	4602      	mov	r2, r0
 80060f2:	460b      	mov	r3, r1
 80060f4:	4620      	mov	r0, r4
 80060f6:	4629      	mov	r1, r5
 80060f8:	e6c2      	b.n	8005e80 <__ieee754_asin+0x50>
 80060fa:	bf00      	nop
 80060fc:	f3af 8000 	nop.w
 8006100:	54442d18 	.word	0x54442d18
 8006104:	3ff921fb 	.word	0x3ff921fb
 8006108:	33145c07 	.word	0x33145c07
 800610c:	3c91a626 	.word	0x3c91a626
 8006110:	8800759c 	.word	0x8800759c
 8006114:	7e37e43c 	.word	0x7e37e43c
 8006118:	0dfdf709 	.word	0x0dfdf709
 800611c:	3f023de1 	.word	0x3f023de1
 8006120:	7501b288 	.word	0x7501b288
 8006124:	3f49efe0 	.word	0x3f49efe0
 8006128:	b5688f3b 	.word	0xb5688f3b
 800612c:	3fa48228 	.word	0x3fa48228
 8006130:	0e884455 	.word	0x0e884455
 8006134:	3fc9c155 	.word	0x3fc9c155
 8006138:	03eb6f7d 	.word	0x03eb6f7d
 800613c:	3fd4d612 	.word	0x3fd4d612
 8006140:	55555555 	.word	0x55555555
 8006144:	3fc55555 	.word	0x3fc55555
 8006148:	b12e9282 	.word	0xb12e9282
 800614c:	3fb3b8c5 	.word	0x3fb3b8c5
 8006150:	1b8d0159 	.word	0x1b8d0159
 8006154:	3fe6066c 	.word	0x3fe6066c
 8006158:	9c598ac8 	.word	0x9c598ac8
 800615c:	40002ae5 	.word	0x40002ae5
 8006160:	1c8a2d4b 	.word	0x1c8a2d4b
 8006164:	40033a27 	.word	0x40033a27
 8006168:	3fefffff 	.word	0x3fefffff
 800616c:	3fdfffff 	.word	0x3fdfffff
 8006170:	3ff00000 	.word	0x3ff00000
 8006174:	3fe00000 	.word	0x3fe00000
 8006178:	3fef3332 	.word	0x3fef3332
 800617c:	ee10 2a10 	vmov	r2, s0
 8006180:	ee10 0a10 	vmov	r0, s0
 8006184:	465b      	mov	r3, fp
 8006186:	4659      	mov	r1, fp
 8006188:	f7fa f824 	bl	80001d4 <__adddf3>
 800618c:	e9dd 2302 	ldrd	r2, r3, [sp, #8]
 8006190:	e9cd 0104 	strd	r0, r1, [sp, #16]
 8006194:	4640      	mov	r0, r8
 8006196:	4649      	mov	r1, r9
 8006198:	f7fa fafc 	bl	8000794 <__aeabi_ddiv>
 800619c:	4602      	mov	r2, r0
 800619e:	460b      	mov	r3, r1
 80061a0:	e9dd 0104 	ldrd	r0, r1, [sp, #16]
 80061a4:	f7fa f9cc 	bl	8000540 <__aeabi_dmul>
 80061a8:	2600      	movs	r6, #0
 80061aa:	4680      	mov	r8, r0
 80061ac:	4689      	mov	r9, r1
 80061ae:	4632      	mov	r2, r6
 80061b0:	465b      	mov	r3, fp
 80061b2:	4630      	mov	r0, r6
 80061b4:	4659      	mov	r1, fp
 80061b6:	f7fa f9c3 	bl	8000540 <__aeabi_dmul>
 80061ba:	4602      	mov	r2, r0
 80061bc:	460b      	mov	r3, r1
 80061be:	4620      	mov	r0, r4
 80061c0:	4629      	mov	r1, r5
 80061c2:	f7fa f805 	bl	80001d0 <__aeabi_dsub>
 80061c6:	4632      	mov	r2, r6
 80061c8:	4604      	mov	r4, r0
 80061ca:	460d      	mov	r5, r1
 80061cc:	465b      	mov	r3, fp
 80061ce:	4650      	mov	r0, sl
 80061d0:	4659      	mov	r1, fp
 80061d2:	f7f9 ffff 	bl	80001d4 <__adddf3>
 80061d6:	4602      	mov	r2, r0
 80061d8:	460b      	mov	r3, r1
 80061da:	4620      	mov	r0, r4
 80061dc:	4629      	mov	r1, r5
 80061de:	f7fa fad9 	bl	8000794 <__aeabi_ddiv>
 80061e2:	4602      	mov	r2, r0
 80061e4:	460b      	mov	r3, r1
 80061e6:	f7f9 fff5 	bl	80001d4 <__adddf3>
 80061ea:	4602      	mov	r2, r0
 80061ec:	460b      	mov	r3, r1
 80061ee:	a114      	add	r1, pc, #80	; (adr r1, 8006240 <__ieee754_asin+0x410>)
 80061f0:	e9d1 0100 	ldrd	r0, r1, [r1]
 80061f4:	f7f9 ffec 	bl	80001d0 <__aeabi_dsub>
 80061f8:	4602      	mov	r2, r0
 80061fa:	460b      	mov	r3, r1
 80061fc:	4640      	mov	r0, r8
 80061fe:	4649      	mov	r1, r9
 8006200:	f7f9 ffe6 	bl	80001d0 <__aeabi_dsub>
 8006204:	465f      	mov	r7, fp
 8006206:	4604      	mov	r4, r0
 8006208:	460d      	mov	r5, r1
 800620a:	4632      	mov	r2, r6
 800620c:	465b      	mov	r3, fp
 800620e:	4630      	mov	r0, r6
 8006210:	4639      	mov	r1, r7
 8006212:	f7f9 ffdf 	bl	80001d4 <__adddf3>
 8006216:	4602      	mov	r2, r0
 8006218:	460b      	mov	r3, r1
 800621a:	a10b      	add	r1, pc, #44	; (adr r1, 8006248 <__ieee754_asin+0x418>)
 800621c:	e9d1 0100 	ldrd	r0, r1, [r1]
 8006220:	f7f9 ffd6 	bl	80001d0 <__aeabi_dsub>
 8006224:	4602      	mov	r2, r0
 8006226:	460b      	mov	r3, r1
 8006228:	4620      	mov	r0, r4
 800622a:	4629      	mov	r1, r5
 800622c:	f7f9 ffd0 	bl	80001d0 <__aeabi_dsub>
 8006230:	4602      	mov	r2, r0
 8006232:	460b      	mov	r3, r1
 8006234:	a104      	add	r1, pc, #16	; (adr r1, 8006248 <__ieee754_asin+0x418>)
 8006236:	e9d1 0100 	ldrd	r0, r1, [r1]
 800623a:	e6dd      	b.n	8005ff8 <__ieee754_asin+0x1c8>
 800623c:	f3af 8000 	nop.w
 8006240:	33145c07 	.word	0x33145c07
 8006244:	3c91a626 	.word	0x3c91a626
 8006248:	54442d18 	.word	0x54442d18
 800624c:	3fe921fb 	.word	0x3fe921fb

08006250 <__ieee754_rem_pio2>:
 8006250:	e92d 4ff0 	stmdb	sp!, {r4, r5, r6, r7, r8, r9, sl, fp, lr}
 8006254:	ec57 6b10 	vmov	r6, r7, d0
 8006258:	4bc3      	ldr	r3, [pc, #780]	; (8006568 <__ieee754_rem_pio2+0x318>)
 800625a:	b08d      	sub	sp, #52	; 0x34
 800625c:	f027 4800 	bic.w	r8, r7, #2147483648	; 0x80000000
 8006260:	4598      	cmp	r8, r3
 8006262:	4604      	mov	r4, r0
 8006264:	9704      	str	r7, [sp, #16]
 8006266:	dc07      	bgt.n	8006278 <__ieee754_rem_pio2+0x28>
 8006268:	2200      	movs	r2, #0
 800626a:	2300      	movs	r3, #0
 800626c:	ed84 0b00 	vstr	d0, [r4]
 8006270:	e9c0 2302 	strd	r2, r3, [r0, #8]
 8006274:	2500      	movs	r5, #0
 8006276:	e027      	b.n	80062c8 <__ieee754_rem_pio2+0x78>
 8006278:	4bbc      	ldr	r3, [pc, #752]	; (800656c <__ieee754_rem_pio2+0x31c>)
 800627a:	4598      	cmp	r8, r3
 800627c:	dc75      	bgt.n	800636a <__ieee754_rem_pio2+0x11a>
 800627e:	9b04      	ldr	r3, [sp, #16]
 8006280:	4dbb      	ldr	r5, [pc, #748]	; (8006570 <__ieee754_rem_pio2+0x320>)
 8006282:	2b00      	cmp	r3, #0
 8006284:	ee10 0a10 	vmov	r0, s0
 8006288:	a3a9      	add	r3, pc, #676	; (adr r3, 8006530 <__ieee754_rem_pio2+0x2e0>)
 800628a:	e9d3 2300 	ldrd	r2, r3, [r3]
 800628e:	4639      	mov	r1, r7
 8006290:	dd36      	ble.n	8006300 <__ieee754_rem_pio2+0xb0>
 8006292:	f7f9 ff9d 	bl	80001d0 <__aeabi_dsub>
 8006296:	45a8      	cmp	r8, r5
 8006298:	4606      	mov	r6, r0
 800629a:	460f      	mov	r7, r1
 800629c:	d018      	beq.n	80062d0 <__ieee754_rem_pio2+0x80>
 800629e:	a3a6      	add	r3, pc, #664	; (adr r3, 8006538 <__ieee754_rem_pio2+0x2e8>)
 80062a0:	e9d3 2300 	ldrd	r2, r3, [r3]
 80062a4:	f7f9 ff94 	bl	80001d0 <__aeabi_dsub>
 80062a8:	4602      	mov	r2, r0
 80062aa:	460b      	mov	r3, r1
 80062ac:	e9c4 2300 	strd	r2, r3, [r4]
 80062b0:	4630      	mov	r0, r6
 80062b2:	4639      	mov	r1, r7
 80062b4:	f7f9 ff8c 	bl	80001d0 <__aeabi_dsub>
 80062b8:	a39f      	add	r3, pc, #636	; (adr r3, 8006538 <__ieee754_rem_pio2+0x2e8>)
 80062ba:	e9d3 2300 	ldrd	r2, r3, [r3]
 80062be:	f7f9 ff87 	bl	80001d0 <__aeabi_dsub>
 80062c2:	e9c4 0102 	strd	r0, r1, [r4, #8]
 80062c6:	2501      	movs	r5, #1
 80062c8:	4628      	mov	r0, r5
 80062ca:	b00d      	add	sp, #52	; 0x34
 80062cc:	e8bd 8ff0 	ldmia.w	sp!, {r4, r5, r6, r7, r8, r9, sl, fp, pc}
 80062d0:	a39b      	add	r3, pc, #620	; (adr r3, 8006540 <__ieee754_rem_pio2+0x2f0>)
 80062d2:	e9d3 2300 	ldrd	r2, r3, [r3]
 80062d6:	f7f9 ff7b 	bl	80001d0 <__aeabi_dsub>
 80062da:	a39b      	add	r3, pc, #620	; (adr r3, 8006548 <__ieee754_rem_pio2+0x2f8>)
 80062dc:	e9d3 2300 	ldrd	r2, r3, [r3]
 80062e0:	4606      	mov	r6, r0
 80062e2:	460f      	mov	r7, r1
 80062e4:	f7f9 ff74 	bl	80001d0 <__aeabi_dsub>
 80062e8:	4602      	mov	r2, r0
 80062ea:	460b      	mov	r3, r1
 80062ec:	e9c4 2300 	strd	r2, r3, [r4]
 80062f0:	4630      	mov	r0, r6
 80062f2:	4639      	mov	r1, r7
 80062f4:	f7f9 ff6c 	bl	80001d0 <__aeabi_dsub>
 80062f8:	a393      	add	r3, pc, #588	; (adr r3, 8006548 <__ieee754_rem_pio2+0x2f8>)
 80062fa:	e9d3 2300 	ldrd	r2, r3, [r3]
 80062fe:	e7de      	b.n	80062be <__ieee754_rem_pio2+0x6e>
 8006300:	f7f9 ff68 	bl	80001d4 <__adddf3>
 8006304:	45a8      	cmp	r8, r5
 8006306:	4606      	mov	r6, r0
 8006308:	460f      	mov	r7, r1
 800630a:	d016      	beq.n	800633a <__ieee754_rem_pio2+0xea>
 800630c:	a38a      	add	r3, pc, #552	; (adr r3, 8006538 <__ieee754_rem_pio2+0x2e8>)
 800630e:	e9d3 2300 	ldrd	r2, r3, [r3]
 8006312:	f7f9 ff5f 	bl	80001d4 <__adddf3>
 8006316:	4602      	mov	r2, r0
 8006318:	460b      	mov	r3, r1
 800631a:	e9c4 2300 	strd	r2, r3, [r4]
 800631e:	4630      	mov	r0, r6
 8006320:	4639      	mov	r1, r7
 8006322:	f7f9 ff55 	bl	80001d0 <__aeabi_dsub>
 8006326:	a384      	add	r3, pc, #528	; (adr r3, 8006538 <__ieee754_rem_pio2+0x2e8>)
 8006328:	e9d3 2300 	ldrd	r2, r3, [r3]
 800632c:	f7f9 ff52 	bl	80001d4 <__adddf3>
 8006330:	f04f 35ff 	mov.w	r5, #4294967295
 8006334:	e9c4 0102 	strd	r0, r1, [r4, #8]
 8006338:	e7c6      	b.n	80062c8 <__ieee754_rem_pio2+0x78>
 800633a:	a381      	add	r3, pc, #516	; (adr r3, 8006540 <__ieee754_rem_pio2+0x2f0>)
 800633c:	e9d3 2300 	ldrd	r2, r3, [r3]
 8006340:	f7f9 ff48 	bl	80001d4 <__adddf3>
 8006344:	a380      	add	r3, pc, #512	; (adr r3, 8006548 <__ieee754_rem_pio2+0x2f8>)
 8006346:	e9d3 2300 	ldrd	r2, r3, [r3]
 800634a:	4606      	mov	r6, r0
 800634c:	460f      	mov	r7, r1
 800634e:	f7f9 ff41 	bl	80001d4 <__adddf3>
 8006352:	4602      	mov	r2, r0
 8006354:	460b      	mov	r3, r1
 8006356:	e9c4 2300 	strd	r2, r3, [r4]
 800635a:	4630      	mov	r0, r6
 800635c:	4639      	mov	r1, r7
 800635e:	f7f9 ff37 	bl	80001d0 <__aeabi_dsub>
 8006362:	a379      	add	r3, pc, #484	; (adr r3, 8006548 <__ieee754_rem_pio2+0x2f8>)
 8006364:	e9d3 2300 	ldrd	r2, r3, [r3]
 8006368:	e7e0      	b.n	800632c <__ieee754_rem_pio2+0xdc>
 800636a:	4b82      	ldr	r3, [pc, #520]	; (8006574 <__ieee754_rem_pio2+0x324>)
 800636c:	4598      	cmp	r8, r3
 800636e:	f300 80d0 	bgt.w	8006512 <__ieee754_rem_pio2+0x2c2>
 8006372:	f000 fed7 	bl	8007124 <fabs>
 8006376:	ec57 6b10 	vmov	r6, r7, d0
 800637a:	ee10 0a10 	vmov	r0, s0
 800637e:	a374      	add	r3, pc, #464	; (adr r3, 8006550 <__ieee754_rem_pio2+0x300>)
 8006380:	e9d3 2300 	ldrd	r2, r3, [r3]
 8006384:	4639      	mov	r1, r7
 8006386:	f7fa f8db 	bl	8000540 <__aeabi_dmul>
 800638a:	2200      	movs	r2, #0
 800638c:	4b7a      	ldr	r3, [pc, #488]	; (8006578 <__ieee754_rem_pio2+0x328>)
 800638e:	f7f9 ff21 	bl	80001d4 <__adddf3>
 8006392:	f7fa fb85 	bl	8000aa0 <__aeabi_d2iz>
 8006396:	4605      	mov	r5, r0
 8006398:	f7fa f868 	bl	800046c <__aeabi_i2d>
 800639c:	a364      	add	r3, pc, #400	; (adr r3, 8006530 <__ieee754_rem_pio2+0x2e0>)
 800639e:	e9d3 2300 	ldrd	r2, r3, [r3]
 80063a2:	e9cd 0102 	strd	r0, r1, [sp, #8]
 80063a6:	f7fa f8cb 	bl	8000540 <__aeabi_dmul>
 80063aa:	4602      	mov	r2, r0
 80063ac:	460b      	mov	r3, r1
 80063ae:	4630      	mov	r0, r6
 80063b0:	4639      	mov	r1, r7
 80063b2:	f7f9 ff0d 	bl	80001d0 <__aeabi_dsub>
 80063b6:	a360      	add	r3, pc, #384	; (adr r3, 8006538 <__ieee754_rem_pio2+0x2e8>)
 80063b8:	e9d3 2300 	ldrd	r2, r3, [r3]
 80063bc:	4682      	mov	sl, r0
 80063be:	468b      	mov	fp, r1
 80063c0:	e9dd 0102 	ldrd	r0, r1, [sp, #8]
 80063c4:	f7fa f8bc 	bl	8000540 <__aeabi_dmul>
 80063c8:	2d1f      	cmp	r5, #31
 80063ca:	4606      	mov	r6, r0
 80063cc:	460f      	mov	r7, r1
 80063ce:	dc0c      	bgt.n	80063ea <__ieee754_rem_pio2+0x19a>
 80063d0:	1e6a      	subs	r2, r5, #1
 80063d2:	4b6a      	ldr	r3, [pc, #424]	; (800657c <__ieee754_rem_pio2+0x32c>)
 80063d4:	f853 3022 	ldr.w	r3, [r3, r2, lsl #2]
 80063d8:	4543      	cmp	r3, r8
 80063da:	d006      	beq.n	80063ea <__ieee754_rem_pio2+0x19a>
 80063dc:	4632      	mov	r2, r6
 80063de:	463b      	mov	r3, r7
 80063e0:	4650      	mov	r0, sl
 80063e2:	4659      	mov	r1, fp
 80063e4:	f7f9 fef4 	bl	80001d0 <__aeabi_dsub>
 80063e8:	e00e      	b.n	8006408 <__ieee754_rem_pio2+0x1b8>
 80063ea:	4632      	mov	r2, r6
 80063ec:	463b      	mov	r3, r7
 80063ee:	4650      	mov	r0, sl
 80063f0:	4659      	mov	r1, fp
 80063f2:	f7f9 feed 	bl	80001d0 <__aeabi_dsub>
 80063f6:	ea4f 5328 	mov.w	r3, r8, asr #20
 80063fa:	9305      	str	r3, [sp, #20]
 80063fc:	9a05      	ldr	r2, [sp, #20]
 80063fe:	f3c1 530a 	ubfx	r3, r1, #20, #11
 8006402:	1ad3      	subs	r3, r2, r3
 8006404:	2b10      	cmp	r3, #16
 8006406:	dc02      	bgt.n	800640e <__ieee754_rem_pio2+0x1be>
 8006408:	e9c4 0100 	strd	r0, r1, [r4]
 800640c:	e039      	b.n	8006482 <__ieee754_rem_pio2+0x232>
 800640e:	a34c      	add	r3, pc, #304	; (adr r3, 8006540 <__ieee754_rem_pio2+0x2f0>)
 8006410:	e9d3 2300 	ldrd	r2, r3, [r3]
 8006414:	e9dd 0102 	ldrd	r0, r1, [sp, #8]
 8006418:	f7fa f892 	bl	8000540 <__aeabi_dmul>
 800641c:	4606      	mov	r6, r0
 800641e:	460f      	mov	r7, r1
 8006420:	4602      	mov	r2, r0
 8006422:	460b      	mov	r3, r1
 8006424:	4650      	mov	r0, sl
 8006426:	4659      	mov	r1, fp
 8006428:	f7f9 fed2 	bl	80001d0 <__aeabi_dsub>
 800642c:	4602      	mov	r2, r0
 800642e:	460b      	mov	r3, r1
 8006430:	4680      	mov	r8, r0
 8006432:	4689      	mov	r9, r1
 8006434:	4650      	mov	r0, sl
 8006436:	4659      	mov	r1, fp
 8006438:	f7f9 feca 	bl	80001d0 <__aeabi_dsub>
 800643c:	4632      	mov	r2, r6
 800643e:	463b      	mov	r3, r7
 8006440:	f7f9 fec6 	bl	80001d0 <__aeabi_dsub>
 8006444:	a340      	add	r3, pc, #256	; (adr r3, 8006548 <__ieee754_rem_pio2+0x2f8>)
 8006446:	e9d3 2300 	ldrd	r2, r3, [r3]
 800644a:	4606      	mov	r6, r0
 800644c:	460f      	mov	r7, r1
 800644e:	e9dd 0102 	ldrd	r0, r1, [sp, #8]
 8006452:	f7fa f875 	bl	8000540 <__aeabi_dmul>
 8006456:	4632      	mov	r2, r6
 8006458:	463b      	mov	r3, r7
 800645a:	f7f9 feb9 	bl	80001d0 <__aeabi_dsub>
 800645e:	4602      	mov	r2, r0
 8006460:	460b      	mov	r3, r1
 8006462:	4606      	mov	r6, r0
 8006464:	460f      	mov	r7, r1
 8006466:	4640      	mov	r0, r8
 8006468:	4649      	mov	r1, r9
 800646a:	f7f9 feb1 	bl	80001d0 <__aeabi_dsub>
 800646e:	9a05      	ldr	r2, [sp, #20]
 8006470:	f3c1 530a 	ubfx	r3, r1, #20, #11
 8006474:	1ad3      	subs	r3, r2, r3
 8006476:	2b31      	cmp	r3, #49	; 0x31
 8006478:	dc20      	bgt.n	80064bc <__ieee754_rem_pio2+0x26c>
 800647a:	e9c4 0100 	strd	r0, r1, [r4]
 800647e:	46c2      	mov	sl, r8
 8006480:	46cb      	mov	fp, r9
 8006482:	e9d4 8900 	ldrd	r8, r9, [r4]
 8006486:	4650      	mov	r0, sl
 8006488:	4642      	mov	r2, r8
 800648a:	464b      	mov	r3, r9
 800648c:	4659      	mov	r1, fp
 800648e:	f7f9 fe9f 	bl	80001d0 <__aeabi_dsub>
 8006492:	463b      	mov	r3, r7
 8006494:	4632      	mov	r2, r6
 8006496:	f7f9 fe9b 	bl	80001d0 <__aeabi_dsub>
 800649a:	9b04      	ldr	r3, [sp, #16]
 800649c:	2b00      	cmp	r3, #0
 800649e:	e9c4 0102 	strd	r0, r1, [r4, #8]
 80064a2:	f6bf af11 	bge.w	80062c8 <__ieee754_rem_pio2+0x78>
 80064a6:	f109 4300 	add.w	r3, r9, #2147483648	; 0x80000000
 80064aa:	6063      	str	r3, [r4, #4]
 80064ac:	f8c4 8000 	str.w	r8, [r4]
 80064b0:	60a0      	str	r0, [r4, #8]
 80064b2:	f101 4300 	add.w	r3, r1, #2147483648	; 0x80000000
 80064b6:	60e3      	str	r3, [r4, #12]
 80064b8:	426d      	negs	r5, r5
 80064ba:	e705      	b.n	80062c8 <__ieee754_rem_pio2+0x78>
 80064bc:	a326      	add	r3, pc, #152	; (adr r3, 8006558 <__ieee754_rem_pio2+0x308>)
 80064be:	e9d3 2300 	ldrd	r2, r3, [r3]
 80064c2:	e9dd 0102 	ldrd	r0, r1, [sp, #8]
 80064c6:	f7fa f83b 	bl	8000540 <__aeabi_dmul>
 80064ca:	4606      	mov	r6, r0
 80064cc:	460f      	mov	r7, r1
 80064ce:	4602      	mov	r2, r0
 80064d0:	460b      	mov	r3, r1
 80064d2:	4640      	mov	r0, r8
 80064d4:	4649      	mov	r1, r9
 80064d6:	f7f9 fe7b 	bl	80001d0 <__aeabi_dsub>
 80064da:	4602      	mov	r2, r0
 80064dc:	460b      	mov	r3, r1
 80064de:	4682      	mov	sl, r0
 80064e0:	468b      	mov	fp, r1
 80064e2:	4640      	mov	r0, r8
 80064e4:	4649      	mov	r1, r9
 80064e6:	f7f9 fe73 	bl	80001d0 <__aeabi_dsub>
 80064ea:	4632      	mov	r2, r6
 80064ec:	463b      	mov	r3, r7
 80064ee:	f7f9 fe6f 	bl	80001d0 <__aeabi_dsub>
 80064f2:	a31b      	add	r3, pc, #108	; (adr r3, 8006560 <__ieee754_rem_pio2+0x310>)
 80064f4:	e9d3 2300 	ldrd	r2, r3, [r3]
 80064f8:	4606      	mov	r6, r0
 80064fa:	460f      	mov	r7, r1
 80064fc:	e9dd 0102 	ldrd	r0, r1, [sp, #8]
 8006500:	f7fa f81e 	bl	8000540 <__aeabi_dmul>
 8006504:	4632      	mov	r2, r6
 8006506:	463b      	mov	r3, r7
 8006508:	f7f9 fe62 	bl	80001d0 <__aeabi_dsub>
 800650c:	4606      	mov	r6, r0
 800650e:	460f      	mov	r7, r1
 8006510:	e764      	b.n	80063dc <__ieee754_rem_pio2+0x18c>
 8006512:	4b1b      	ldr	r3, [pc, #108]	; (8006580 <__ieee754_rem_pio2+0x330>)
 8006514:	4598      	cmp	r8, r3
 8006516:	dd35      	ble.n	8006584 <__ieee754_rem_pio2+0x334>
 8006518:	ee10 2a10 	vmov	r2, s0
 800651c:	463b      	mov	r3, r7
 800651e:	4630      	mov	r0, r6
 8006520:	4639      	mov	r1, r7
 8006522:	f7f9 fe55 	bl	80001d0 <__aeabi_dsub>
 8006526:	e9c4 0102 	strd	r0, r1, [r4, #8]
 800652a:	e9c4 0100 	strd	r0, r1, [r4]
 800652e:	e6a1      	b.n	8006274 <__ieee754_rem_pio2+0x24>
 8006530:	54400000 	.word	0x54400000
 8006534:	3ff921fb 	.word	0x3ff921fb
 8006538:	1a626331 	.word	0x1a626331
 800653c:	3dd0b461 	.word	0x3dd0b461
 8006540:	1a600000 	.word	0x1a600000
 8006544:	3dd0b461 	.word	0x3dd0b461
 8006548:	2e037073 	.word	0x2e037073
 800654c:	3ba3198a 	.word	0x3ba3198a
 8006550:	6dc9c883 	.word	0x6dc9c883
 8006554:	3fe45f30 	.word	0x3fe45f30
 8006558:	2e000000 	.word	0x2e000000
 800655c:	3ba3198a 	.word	0x3ba3198a
 8006560:	252049c1 	.word	0x252049c1
 8006564:	397b839a 	.word	0x397b839a
 8006568:	3fe921fb 	.word	0x3fe921fb
 800656c:	4002d97b 	.word	0x4002d97b
 8006570:	3ff921fb 	.word	0x3ff921fb
 8006574:	413921fb 	.word	0x413921fb
 8006578:	3fe00000 	.word	0x3fe00000
 800657c:	08007404 	.word	0x08007404
 8006580:	7fefffff 	.word	0x7fefffff
 8006584:	ea4f 5528 	mov.w	r5, r8, asr #20
 8006588:	f2a5 4516 	subw	r5, r5, #1046	; 0x416
 800658c:	eba8 5105 	sub.w	r1, r8, r5, lsl #20
 8006590:	4630      	mov	r0, r6
 8006592:	460f      	mov	r7, r1
 8006594:	f7fa fa84 	bl	8000aa0 <__aeabi_d2iz>
 8006598:	f7f9 ff68 	bl	800046c <__aeabi_i2d>
 800659c:	4602      	mov	r2, r0
 800659e:	460b      	mov	r3, r1
 80065a0:	4630      	mov	r0, r6
 80065a2:	4639      	mov	r1, r7
 80065a4:	e9cd 2306 	strd	r2, r3, [sp, #24]
 80065a8:	f7f9 fe12 	bl	80001d0 <__aeabi_dsub>
 80065ac:	2200      	movs	r2, #0
 80065ae:	4b1f      	ldr	r3, [pc, #124]	; (800662c <__ieee754_rem_pio2+0x3dc>)
 80065b0:	f7f9 ffc6 	bl	8000540 <__aeabi_dmul>
 80065b4:	460f      	mov	r7, r1
 80065b6:	4606      	mov	r6, r0
 80065b8:	f7fa fa72 	bl	8000aa0 <__aeabi_d2iz>
 80065bc:	f7f9 ff56 	bl	800046c <__aeabi_i2d>
 80065c0:	4602      	mov	r2, r0
 80065c2:	460b      	mov	r3, r1
 80065c4:	4630      	mov	r0, r6
 80065c6:	4639      	mov	r1, r7
 80065c8:	e9cd 2308 	strd	r2, r3, [sp, #32]
 80065cc:	f7f9 fe00 	bl	80001d0 <__aeabi_dsub>
 80065d0:	2200      	movs	r2, #0
 80065d2:	4b16      	ldr	r3, [pc, #88]	; (800662c <__ieee754_rem_pio2+0x3dc>)
 80065d4:	f7f9 ffb4 	bl	8000540 <__aeabi_dmul>
 80065d8:	e9cd 010a 	strd	r0, r1, [sp, #40]	; 0x28
 80065dc:	f10d 0930 	add.w	r9, sp, #48	; 0x30
 80065e0:	f04f 0803 	mov.w	r8, #3
 80065e4:	2600      	movs	r6, #0
 80065e6:	2700      	movs	r7, #0
 80065e8:	4632      	mov	r2, r6
 80065ea:	463b      	mov	r3, r7
 80065ec:	e979 0102 	ldrd	r0, r1, [r9, #-8]!
 80065f0:	f108 3aff 	add.w	sl, r8, #4294967295
 80065f4:	f7fa fa0c 	bl	8000a10 <__aeabi_dcmpeq>
 80065f8:	b9b0      	cbnz	r0, 8006628 <__ieee754_rem_pio2+0x3d8>
 80065fa:	4b0d      	ldr	r3, [pc, #52]	; (8006630 <__ieee754_rem_pio2+0x3e0>)
 80065fc:	9301      	str	r3, [sp, #4]
 80065fe:	2302      	movs	r3, #2
 8006600:	9300      	str	r3, [sp, #0]
 8006602:	462a      	mov	r2, r5
 8006604:	4643      	mov	r3, r8
 8006606:	4621      	mov	r1, r4
 8006608:	a806      	add	r0, sp, #24
 800660a:	f000 f991 	bl	8006930 <__kernel_rem_pio2>
 800660e:	9b04      	ldr	r3, [sp, #16]
 8006610:	2b00      	cmp	r3, #0
 8006612:	4605      	mov	r5, r0
 8006614:	f6bf ae58 	bge.w	80062c8 <__ieee754_rem_pio2+0x78>
 8006618:	6863      	ldr	r3, [r4, #4]
 800661a:	f103 4300 	add.w	r3, r3, #2147483648	; 0x80000000
 800661e:	6063      	str	r3, [r4, #4]
 8006620:	68e3      	ldr	r3, [r4, #12]
 8006622:	f103 4300 	add.w	r3, r3, #2147483648	; 0x80000000
 8006626:	e746      	b.n	80064b6 <__ieee754_rem_pio2+0x266>
 8006628:	46d0      	mov	r8, sl
 800662a:	e7dd      	b.n	80065e8 <__ieee754_rem_pio2+0x398>
 800662c:	41700000 	.word	0x41700000
 8006630:	08007484 	.word	0x08007484

08006634 <__ieee754_sqrt>:
 8006634:	e92d 41f0 	stmdb	sp!, {r4, r5, r6, r7, r8, lr}
 8006638:	4955      	ldr	r1, [pc, #340]	; (8006790 <__ieee754_sqrt+0x15c>)
 800663a:	ec55 4b10 	vmov	r4, r5, d0
 800663e:	43a9      	bics	r1, r5
 8006640:	462b      	mov	r3, r5
 8006642:	462a      	mov	r2, r5
 8006644:	d112      	bne.n	800666c <__ieee754_sqrt+0x38>
 8006646:	ee10 2a10 	vmov	r2, s0
 800664a:	ee10 0a10 	vmov	r0, s0
 800664e:	4629      	mov	r1, r5
 8006650:	f7f9 ff76 	bl	8000540 <__aeabi_dmul>
 8006654:	4602      	mov	r2, r0
 8006656:	460b      	mov	r3, r1
 8006658:	4620      	mov	r0, r4
 800665a:	4629      	mov	r1, r5
 800665c:	f7f9 fdba 	bl	80001d4 <__adddf3>
 8006660:	4604      	mov	r4, r0
 8006662:	460d      	mov	r5, r1
 8006664:	ec45 4b10 	vmov	d0, r4, r5
 8006668:	e8bd 81f0 	ldmia.w	sp!, {r4, r5, r6, r7, r8, pc}
 800666c:	2d00      	cmp	r5, #0
 800666e:	ee10 0a10 	vmov	r0, s0
 8006672:	4621      	mov	r1, r4
 8006674:	dc0f      	bgt.n	8006696 <__ieee754_sqrt+0x62>
 8006676:	f025 4600 	bic.w	r6, r5, #2147483648	; 0x80000000
 800667a:	4330      	orrs	r0, r6
 800667c:	d0f2      	beq.n	8006664 <__ieee754_sqrt+0x30>
 800667e:	b155      	cbz	r5, 8006696 <__ieee754_sqrt+0x62>
 8006680:	ee10 2a10 	vmov	r2, s0
 8006684:	4620      	mov	r0, r4
 8006686:	4629      	mov	r1, r5
 8006688:	f7f9 fda2 	bl	80001d0 <__aeabi_dsub>
 800668c:	4602      	mov	r2, r0
 800668e:	460b      	mov	r3, r1
 8006690:	f7fa f880 	bl	8000794 <__aeabi_ddiv>
 8006694:	e7e4      	b.n	8006660 <__ieee754_sqrt+0x2c>
 8006696:	151b      	asrs	r3, r3, #20
 8006698:	d073      	beq.n	8006782 <__ieee754_sqrt+0x14e>
 800669a:	f2a3 33ff 	subw	r3, r3, #1023	; 0x3ff
 800669e:	07dd      	lsls	r5, r3, #31
 80066a0:	f3c2 0213 	ubfx	r2, r2, #0, #20
 80066a4:	bf48      	it	mi
 80066a6:	0fc8      	lsrmi	r0, r1, #31
 80066a8:	f442 1280 	orr.w	r2, r2, #1048576	; 0x100000
 80066ac:	bf44      	itt	mi
 80066ae:	0049      	lslmi	r1, r1, #1
 80066b0:	eb00 0242 	addmi.w	r2, r0, r2, lsl #1
 80066b4:	2500      	movs	r5, #0
 80066b6:	1058      	asrs	r0, r3, #1
 80066b8:	0fcb      	lsrs	r3, r1, #31
 80066ba:	eb03 0242 	add.w	r2, r3, r2, lsl #1
 80066be:	0049      	lsls	r1, r1, #1
 80066c0:	2316      	movs	r3, #22
 80066c2:	462c      	mov	r4, r5
 80066c4:	f44f 1600 	mov.w	r6, #2097152	; 0x200000
 80066c8:	19a7      	adds	r7, r4, r6
 80066ca:	4297      	cmp	r7, r2
 80066cc:	bfde      	ittt	le
 80066ce:	19bc      	addle	r4, r7, r6
 80066d0:	1bd2      	suble	r2, r2, r7
 80066d2:	19ad      	addle	r5, r5, r6
 80066d4:	0fcf      	lsrs	r7, r1, #31
 80066d6:	3b01      	subs	r3, #1
 80066d8:	eb07 0242 	add.w	r2, r7, r2, lsl #1
 80066dc:	ea4f 0141 	mov.w	r1, r1, lsl #1
 80066e0:	ea4f 0656 	mov.w	r6, r6, lsr #1
 80066e4:	d1f0      	bne.n	80066c8 <__ieee754_sqrt+0x94>
 80066e6:	f04f 0c20 	mov.w	ip, #32
 80066ea:	469e      	mov	lr, r3
 80066ec:	f04f 4600 	mov.w	r6, #2147483648	; 0x80000000
 80066f0:	42a2      	cmp	r2, r4
 80066f2:	eb06 070e 	add.w	r7, r6, lr
 80066f6:	dc02      	bgt.n	80066fe <__ieee754_sqrt+0xca>
 80066f8:	d112      	bne.n	8006720 <__ieee754_sqrt+0xec>
 80066fa:	428f      	cmp	r7, r1
 80066fc:	d810      	bhi.n	8006720 <__ieee754_sqrt+0xec>
 80066fe:	2f00      	cmp	r7, #0
 8006700:	eb07 0e06 	add.w	lr, r7, r6
 8006704:	da42      	bge.n	800678c <__ieee754_sqrt+0x158>
 8006706:	f1be 0f00 	cmp.w	lr, #0
 800670a:	db3f      	blt.n	800678c <__ieee754_sqrt+0x158>
 800670c:	f104 0801 	add.w	r8, r4, #1
 8006710:	1b12      	subs	r2, r2, r4
 8006712:	428f      	cmp	r7, r1
 8006714:	bf88      	it	hi
 8006716:	f102 32ff 	addhi.w	r2, r2, #4294967295
 800671a:	1bc9      	subs	r1, r1, r7
 800671c:	4433      	add	r3, r6
 800671e:	4644      	mov	r4, r8
 8006720:	0052      	lsls	r2, r2, #1
 8006722:	f1bc 0c01 	subs.w	ip, ip, #1
 8006726:	eb02 72d1 	add.w	r2, r2, r1, lsr #31
 800672a:	ea4f 0656 	mov.w	r6, r6, lsr #1
 800672e:	ea4f 0141 	mov.w	r1, r1, lsl #1
 8006732:	d1dd      	bne.n	80066f0 <__ieee754_sqrt+0xbc>
 8006734:	430a      	orrs	r2, r1
 8006736:	d006      	beq.n	8006746 <__ieee754_sqrt+0x112>
 8006738:	1c5c      	adds	r4, r3, #1
 800673a:	bf13      	iteet	ne
 800673c:	3301      	addne	r3, #1
 800673e:	3501      	addeq	r5, #1
 8006740:	4663      	moveq	r3, ip
 8006742:	f023 0301 	bicne.w	r3, r3, #1
 8006746:	106a      	asrs	r2, r5, #1
 8006748:	085b      	lsrs	r3, r3, #1
 800674a:	07e9      	lsls	r1, r5, #31
 800674c:	f102 527f 	add.w	r2, r2, #1069547520	; 0x3fc00000
 8006750:	f502 1200 	add.w	r2, r2, #2097152	; 0x200000
 8006754:	bf48      	it	mi
 8006756:	f043 4300 	orrmi.w	r3, r3, #2147483648	; 0x80000000
 800675a:	eb02 5500 	add.w	r5, r2, r0, lsl #20
 800675e:	461c      	mov	r4, r3
 8006760:	e780      	b.n	8006664 <__ieee754_sqrt+0x30>
 8006762:	0aca      	lsrs	r2, r1, #11
 8006764:	3815      	subs	r0, #21
 8006766:	0549      	lsls	r1, r1, #21
 8006768:	2a00      	cmp	r2, #0
 800676a:	d0fa      	beq.n	8006762 <__ieee754_sqrt+0x12e>
 800676c:	02d6      	lsls	r6, r2, #11
 800676e:	d50a      	bpl.n	8006786 <__ieee754_sqrt+0x152>
 8006770:	f1c3 0420 	rsb	r4, r3, #32
 8006774:	fa21 f404 	lsr.w	r4, r1, r4
 8006778:	1e5d      	subs	r5, r3, #1
 800677a:	4099      	lsls	r1, r3
 800677c:	4322      	orrs	r2, r4
 800677e:	1b43      	subs	r3, r0, r5
 8006780:	e78b      	b.n	800669a <__ieee754_sqrt+0x66>
 8006782:	4618      	mov	r0, r3
 8006784:	e7f0      	b.n	8006768 <__ieee754_sqrt+0x134>
 8006786:	0052      	lsls	r2, r2, #1
 8006788:	3301      	adds	r3, #1
 800678a:	e7ef      	b.n	800676c <__ieee754_sqrt+0x138>
 800678c:	46a0      	mov	r8, r4
 800678e:	e7bf      	b.n	8006710 <__ieee754_sqrt+0xdc>
 8006790:	7ff00000 	.word	0x7ff00000

08006794 <__ieee754_sqrtf>:
 8006794:	eeb1 0ac0 	vsqrt.f32	s0, s0
 8006798:	4770      	bx	lr
 800679a:	0000      	movs	r0, r0
 800679c:	0000      	movs	r0, r0
	...

080067a0 <__kernel_cos>:
 80067a0:	e92d 4ff8 	stmdb	sp!, {r3, r4, r5, r6, r7, r8, r9, sl, fp, lr}
 80067a4:	ec59 8b10 	vmov	r8, r9, d0
 80067a8:	f029 4600 	bic.w	r6, r9, #2147483648	; 0x80000000
 80067ac:	f1b6 5f79 	cmp.w	r6, #1044381696	; 0x3e400000
 80067b0:	ed2d 8b02 	vpush	{d8}
 80067b4:	eeb0 8a41 	vmov.f32	s16, s2
 80067b8:	eef0 8a61 	vmov.f32	s17, s3
 80067bc:	da07      	bge.n	80067ce <__kernel_cos+0x2e>
 80067be:	ee10 0a10 	vmov	r0, s0
 80067c2:	4649      	mov	r1, r9
 80067c4:	f7fa f96c 	bl	8000aa0 <__aeabi_d2iz>
 80067c8:	2800      	cmp	r0, #0
 80067ca:	f000 8089 	beq.w	80068e0 <__kernel_cos+0x140>
 80067ce:	4642      	mov	r2, r8
 80067d0:	464b      	mov	r3, r9
 80067d2:	4640      	mov	r0, r8
 80067d4:	4649      	mov	r1, r9
 80067d6:	f7f9 feb3 	bl	8000540 <__aeabi_dmul>
 80067da:	2200      	movs	r2, #0
 80067dc:	4b4e      	ldr	r3, [pc, #312]	; (8006918 <__kernel_cos+0x178>)
 80067de:	4604      	mov	r4, r0
 80067e0:	460d      	mov	r5, r1
 80067e2:	f7f9 fead 	bl	8000540 <__aeabi_dmul>
 80067e6:	a340      	add	r3, pc, #256	; (adr r3, 80068e8 <__kernel_cos+0x148>)
 80067e8:	e9d3 2300 	ldrd	r2, r3, [r3]
 80067ec:	4682      	mov	sl, r0
 80067ee:	468b      	mov	fp, r1
 80067f0:	4620      	mov	r0, r4
 80067f2:	4629      	mov	r1, r5
 80067f4:	f7f9 fea4 	bl	8000540 <__aeabi_dmul>
 80067f8:	a33d      	add	r3, pc, #244	; (adr r3, 80068f0 <__kernel_cos+0x150>)
 80067fa:	e9d3 2300 	ldrd	r2, r3, [r3]
 80067fe:	f7f9 fce9 	bl	80001d4 <__adddf3>
 8006802:	4622      	mov	r2, r4
 8006804:	462b      	mov	r3, r5
 8006806:	f7f9 fe9b 	bl	8000540 <__aeabi_dmul>
 800680a:	a33b      	add	r3, pc, #236	; (adr r3, 80068f8 <__kernel_cos+0x158>)
 800680c:	e9d3 2300 	ldrd	r2, r3, [r3]
 8006810:	f7f9 fcde 	bl	80001d0 <__aeabi_dsub>
 8006814:	4622      	mov	r2, r4
 8006816:	462b      	mov	r3, r5
 8006818:	f7f9 fe92 	bl	8000540 <__aeabi_dmul>
 800681c:	a338      	add	r3, pc, #224	; (adr r3, 8006900 <__kernel_cos+0x160>)
 800681e:	e9d3 2300 	ldrd	r2, r3, [r3]
 8006822:	f7f9 fcd7 	bl	80001d4 <__adddf3>
 8006826:	4622      	mov	r2, r4
 8006828:	462b      	mov	r3, r5
 800682a:	f7f9 fe89 	bl	8000540 <__aeabi_dmul>
 800682e:	a336      	add	r3, pc, #216	; (adr r3, 8006908 <__kernel_cos+0x168>)
 8006830:	e9d3 2300 	ldrd	r2, r3, [r3]
 8006834:	f7f9 fccc 	bl	80001d0 <__aeabi_dsub>
 8006838:	4622      	mov	r2, r4
 800683a:	462b      	mov	r3, r5
 800683c:	f7f9 fe80 	bl	8000540 <__aeabi_dmul>
 8006840:	a333      	add	r3, pc, #204	; (adr r3, 8006910 <__kernel_cos+0x170>)
 8006842:	e9d3 2300 	ldrd	r2, r3, [r3]
 8006846:	f7f9 fcc5 	bl	80001d4 <__adddf3>
 800684a:	4622      	mov	r2, r4
 800684c:	462b      	mov	r3, r5
 800684e:	f7f9 fe77 	bl	8000540 <__aeabi_dmul>
 8006852:	4622      	mov	r2, r4
 8006854:	462b      	mov	r3, r5
 8006856:	f7f9 fe73 	bl	8000540 <__aeabi_dmul>
 800685a:	ec53 2b18 	vmov	r2, r3, d8
 800685e:	4604      	mov	r4, r0
 8006860:	460d      	mov	r5, r1
 8006862:	4640      	mov	r0, r8
 8006864:	4649      	mov	r1, r9
 8006866:	f7f9 fe6b 	bl	8000540 <__aeabi_dmul>
 800686a:	460b      	mov	r3, r1
 800686c:	4602      	mov	r2, r0
 800686e:	4629      	mov	r1, r5
 8006870:	4620      	mov	r0, r4
 8006872:	f7f9 fcad 	bl	80001d0 <__aeabi_dsub>
 8006876:	4b29      	ldr	r3, [pc, #164]	; (800691c <__kernel_cos+0x17c>)
 8006878:	429e      	cmp	r6, r3
 800687a:	4680      	mov	r8, r0
 800687c:	4689      	mov	r9, r1
 800687e:	dc11      	bgt.n	80068a4 <__kernel_cos+0x104>
 8006880:	4602      	mov	r2, r0
 8006882:	460b      	mov	r3, r1
 8006884:	4650      	mov	r0, sl
 8006886:	4659      	mov	r1, fp
 8006888:	f7f9 fca2 	bl	80001d0 <__aeabi_dsub>
 800688c:	460b      	mov	r3, r1
 800688e:	4924      	ldr	r1, [pc, #144]	; (8006920 <__kernel_cos+0x180>)
 8006890:	4602      	mov	r2, r0
 8006892:	2000      	movs	r0, #0
 8006894:	f7f9 fc9c 	bl	80001d0 <__aeabi_dsub>
 8006898:	ecbd 8b02 	vpop	{d8}
 800689c:	ec41 0b10 	vmov	d0, r0, r1
 80068a0:	e8bd 8ff8 	ldmia.w	sp!, {r3, r4, r5, r6, r7, r8, r9, sl, fp, pc}
 80068a4:	4b1f      	ldr	r3, [pc, #124]	; (8006924 <__kernel_cos+0x184>)
 80068a6:	491e      	ldr	r1, [pc, #120]	; (8006920 <__kernel_cos+0x180>)
 80068a8:	429e      	cmp	r6, r3
 80068aa:	bfcc      	ite	gt
 80068ac:	4d1e      	ldrgt	r5, [pc, #120]	; (8006928 <__kernel_cos+0x188>)
 80068ae:	f5a6 1500 	suble.w	r5, r6, #2097152	; 0x200000
 80068b2:	2400      	movs	r4, #0
 80068b4:	4622      	mov	r2, r4
 80068b6:	462b      	mov	r3, r5
 80068b8:	2000      	movs	r0, #0
 80068ba:	f7f9 fc89 	bl	80001d0 <__aeabi_dsub>
 80068be:	4622      	mov	r2, r4
 80068c0:	4606      	mov	r6, r0
 80068c2:	460f      	mov	r7, r1
 80068c4:	462b      	mov	r3, r5
 80068c6:	4650      	mov	r0, sl
 80068c8:	4659      	mov	r1, fp
 80068ca:	f7f9 fc81 	bl	80001d0 <__aeabi_dsub>
 80068ce:	4642      	mov	r2, r8
 80068d0:	464b      	mov	r3, r9
 80068d2:	f7f9 fc7d 	bl	80001d0 <__aeabi_dsub>
 80068d6:	4602      	mov	r2, r0
 80068d8:	460b      	mov	r3, r1
 80068da:	4630      	mov	r0, r6
 80068dc:	4639      	mov	r1, r7
 80068de:	e7d9      	b.n	8006894 <__kernel_cos+0xf4>
 80068e0:	2000      	movs	r0, #0
 80068e2:	490f      	ldr	r1, [pc, #60]	; (8006920 <__kernel_cos+0x180>)
 80068e4:	e7d8      	b.n	8006898 <__kernel_cos+0xf8>
 80068e6:	bf00      	nop
 80068e8:	be8838d4 	.word	0xbe8838d4
 80068ec:	bda8fae9 	.word	0xbda8fae9
 80068f0:	bdb4b1c4 	.word	0xbdb4b1c4
 80068f4:	3e21ee9e 	.word	0x3e21ee9e
 80068f8:	809c52ad 	.word	0x809c52ad
 80068fc:	3e927e4f 	.word	0x3e927e4f
 8006900:	19cb1590 	.word	0x19cb1590
 8006904:	3efa01a0 	.word	0x3efa01a0
 8006908:	16c15177 	.word	0x16c15177
 800690c:	3f56c16c 	.word	0x3f56c16c
 8006910:	5555554c 	.word	0x5555554c
 8006914:	3fa55555 	.word	0x3fa55555
 8006918:	3fe00000 	.word	0x3fe00000
 800691c:	3fd33332 	.word	0x3fd33332
 8006920:	3ff00000 	.word	0x3ff00000
 8006924:	3fe90000 	.word	0x3fe90000
 8006928:	3fd20000 	.word	0x3fd20000
 800692c:	00000000 	.word	0x00000000

08006930 <__kernel_rem_pio2>:
 8006930:	e92d 4ff0 	stmdb	sp!, {r4, r5, r6, r7, r8, r9, sl, fp, lr}
 8006934:	ed2d 8b02 	vpush	{d8}
 8006938:	f5ad 7d1b 	sub.w	sp, sp, #620	; 0x26c
 800693c:	1ed4      	subs	r4, r2, #3
 800693e:	9308      	str	r3, [sp, #32]
 8006940:	9101      	str	r1, [sp, #4]
 8006942:	4bc5      	ldr	r3, [pc, #788]	; (8006c58 <__kernel_rem_pio2+0x328>)
 8006944:	99a6      	ldr	r1, [sp, #664]	; 0x298
 8006946:	9009      	str	r0, [sp, #36]	; 0x24
 8006948:	f853 3021 	ldr.w	r3, [r3, r1, lsl #2]
 800694c:	9304      	str	r3, [sp, #16]
 800694e:	9b08      	ldr	r3, [sp, #32]
 8006950:	3b01      	subs	r3, #1
 8006952:	9307      	str	r3, [sp, #28]
 8006954:	2318      	movs	r3, #24
 8006956:	fb94 f4f3 	sdiv	r4, r4, r3
 800695a:	f06f 0317 	mvn.w	r3, #23
 800695e:	ea24 74e4 	bic.w	r4, r4, r4, asr #31
 8006962:	fb04 3303 	mla	r3, r4, r3, r3
 8006966:	eb03 0a02 	add.w	sl, r3, r2
 800696a:	9b04      	ldr	r3, [sp, #16]
 800696c:	9a07      	ldr	r2, [sp, #28]
 800696e:	ed9f 8bb6 	vldr	d8, [pc, #728]	; 8006c48 <__kernel_rem_pio2+0x318>
 8006972:	eb03 0802 	add.w	r8, r3, r2
 8006976:	9ba7      	ldr	r3, [sp, #668]	; 0x29c
 8006978:	1aa7      	subs	r7, r4, r2
 800697a:	eb03 0987 	add.w	r9, r3, r7, lsl #2
 800697e:	ae22      	add	r6, sp, #136	; 0x88
 8006980:	2500      	movs	r5, #0
 8006982:	4545      	cmp	r5, r8
 8006984:	dd13      	ble.n	80069ae <__kernel_rem_pio2+0x7e>
 8006986:	ed9f 8bb0 	vldr	d8, [pc, #704]	; 8006c48 <__kernel_rem_pio2+0x318>
 800698a:	f50d 7be4 	add.w	fp, sp, #456	; 0x1c8
 800698e:	2600      	movs	r6, #0
 8006990:	9b04      	ldr	r3, [sp, #16]
 8006992:	429e      	cmp	r6, r3
 8006994:	dc32      	bgt.n	80069fc <__kernel_rem_pio2+0xcc>
 8006996:	9b09      	ldr	r3, [sp, #36]	; 0x24
 8006998:	9302      	str	r3, [sp, #8]
 800699a:	9b08      	ldr	r3, [sp, #32]
 800699c:	199d      	adds	r5, r3, r6
 800699e:	ab22      	add	r3, sp, #136	; 0x88
 80069a0:	eb03 03c5 	add.w	r3, r3, r5, lsl #3
 80069a4:	9306      	str	r3, [sp, #24]
 80069a6:	ec59 8b18 	vmov	r8, r9, d8
 80069aa:	2700      	movs	r7, #0
 80069ac:	e01f      	b.n	80069ee <__kernel_rem_pio2+0xbe>
 80069ae:	42ef      	cmn	r7, r5
 80069b0:	d407      	bmi.n	80069c2 <__kernel_rem_pio2+0x92>
 80069b2:	f859 0025 	ldr.w	r0, [r9, r5, lsl #2]
 80069b6:	f7f9 fd59 	bl	800046c <__aeabi_i2d>
 80069ba:	e8e6 0102 	strd	r0, r1, [r6], #8
 80069be:	3501      	adds	r5, #1
 80069c0:	e7df      	b.n	8006982 <__kernel_rem_pio2+0x52>
 80069c2:	ec51 0b18 	vmov	r0, r1, d8
 80069c6:	e7f8      	b.n	80069ba <__kernel_rem_pio2+0x8a>
 80069c8:	9906      	ldr	r1, [sp, #24]
 80069ca:	9d02      	ldr	r5, [sp, #8]
 80069cc:	e971 2302 	ldrd	r2, r3, [r1, #-8]!
 80069d0:	9106      	str	r1, [sp, #24]
 80069d2:	e8f5 0102 	ldrd	r0, r1, [r5], #8
 80069d6:	9502      	str	r5, [sp, #8]
 80069d8:	f7f9 fdb2 	bl	8000540 <__aeabi_dmul>
 80069dc:	4602      	mov	r2, r0
 80069de:	460b      	mov	r3, r1
 80069e0:	4640      	mov	r0, r8
 80069e2:	4649      	mov	r1, r9
 80069e4:	f7f9 fbf6 	bl	80001d4 <__adddf3>
 80069e8:	3701      	adds	r7, #1
 80069ea:	4680      	mov	r8, r0
 80069ec:	4689      	mov	r9, r1
 80069ee:	9b07      	ldr	r3, [sp, #28]
 80069f0:	429f      	cmp	r7, r3
 80069f2:	dde9      	ble.n	80069c8 <__kernel_rem_pio2+0x98>
 80069f4:	e8eb 8902 	strd	r8, r9, [fp], #8
 80069f8:	3601      	adds	r6, #1
 80069fa:	e7c9      	b.n	8006990 <__kernel_rem_pio2+0x60>
 80069fc:	9b04      	ldr	r3, [sp, #16]
 80069fe:	aa0e      	add	r2, sp, #56	; 0x38
 8006a00:	eb02 0383 	add.w	r3, r2, r3, lsl #2
 8006a04:	930c      	str	r3, [sp, #48]	; 0x30
 8006a06:	9ba7      	ldr	r3, [sp, #668]	; 0x29c
 8006a08:	eb03 0384 	add.w	r3, r3, r4, lsl #2
 8006a0c:	9c04      	ldr	r4, [sp, #16]
 8006a0e:	930b      	str	r3, [sp, #44]	; 0x2c
 8006a10:	ab9a      	add	r3, sp, #616	; 0x268
 8006a12:	f104 5b00 	add.w	fp, r4, #536870912	; 0x20000000
 8006a16:	eb03 03c4 	add.w	r3, r3, r4, lsl #3
 8006a1a:	f10b 3bff 	add.w	fp, fp, #4294967295
 8006a1e:	e953 8928 	ldrd	r8, r9, [r3, #-160]	; 0xa0
 8006a22:	ea4f 0bcb 	mov.w	fp, fp, lsl #3
 8006a26:	ab9a      	add	r3, sp, #616	; 0x268
 8006a28:	445b      	add	r3, fp
 8006a2a:	f1a3 0698 	sub.w	r6, r3, #152	; 0x98
 8006a2e:	2500      	movs	r5, #0
 8006a30:	1b63      	subs	r3, r4, r5
 8006a32:	2b00      	cmp	r3, #0
 8006a34:	dc78      	bgt.n	8006b28 <__kernel_rem_pio2+0x1f8>
 8006a36:	4650      	mov	r0, sl
 8006a38:	ec49 8b10 	vmov	d0, r8, r9
 8006a3c:	f000 fc0c 	bl	8007258 <scalbn>
 8006a40:	ec57 6b10 	vmov	r6, r7, d0
 8006a44:	2200      	movs	r2, #0
 8006a46:	f04f 537f 	mov.w	r3, #1069547520	; 0x3fc00000
 8006a4a:	ee10 0a10 	vmov	r0, s0
 8006a4e:	4639      	mov	r1, r7
 8006a50:	f7f9 fd76 	bl	8000540 <__aeabi_dmul>
 8006a54:	ec41 0b10 	vmov	d0, r0, r1
 8006a58:	f000 fb6e 	bl	8007138 <floor>
 8006a5c:	2200      	movs	r2, #0
 8006a5e:	ec51 0b10 	vmov	r0, r1, d0
 8006a62:	4b7e      	ldr	r3, [pc, #504]	; (8006c5c <__kernel_rem_pio2+0x32c>)
 8006a64:	f7f9 fd6c 	bl	8000540 <__aeabi_dmul>
 8006a68:	4602      	mov	r2, r0
 8006a6a:	460b      	mov	r3, r1
 8006a6c:	4630      	mov	r0, r6
 8006a6e:	4639      	mov	r1, r7
 8006a70:	f7f9 fbae 	bl	80001d0 <__aeabi_dsub>
 8006a74:	460f      	mov	r7, r1
 8006a76:	4606      	mov	r6, r0
 8006a78:	f7fa f812 	bl	8000aa0 <__aeabi_d2iz>
 8006a7c:	9006      	str	r0, [sp, #24]
 8006a7e:	f7f9 fcf5 	bl	800046c <__aeabi_i2d>
 8006a82:	4602      	mov	r2, r0
 8006a84:	460b      	mov	r3, r1
 8006a86:	4630      	mov	r0, r6
 8006a88:	4639      	mov	r1, r7
 8006a8a:	f7f9 fba1 	bl	80001d0 <__aeabi_dsub>
 8006a8e:	f1ba 0f00 	cmp.w	sl, #0
 8006a92:	4606      	mov	r6, r0
 8006a94:	460f      	mov	r7, r1
 8006a96:	dd6c      	ble.n	8006b72 <__kernel_rem_pio2+0x242>
 8006a98:	1e62      	subs	r2, r4, #1
 8006a9a:	ab0e      	add	r3, sp, #56	; 0x38
 8006a9c:	f1ca 0118 	rsb	r1, sl, #24
 8006aa0:	f853 0022 	ldr.w	r0, [r3, r2, lsl #2]
 8006aa4:	9d06      	ldr	r5, [sp, #24]
 8006aa6:	fa40 f301 	asr.w	r3, r0, r1
 8006aaa:	441d      	add	r5, r3
 8006aac:	408b      	lsls	r3, r1
 8006aae:	1ac0      	subs	r0, r0, r3
 8006ab0:	ab0e      	add	r3, sp, #56	; 0x38
 8006ab2:	9506      	str	r5, [sp, #24]
 8006ab4:	f843 0022 	str.w	r0, [r3, r2, lsl #2]
 8006ab8:	f1ca 0317 	rsb	r3, sl, #23
 8006abc:	fa40 f303 	asr.w	r3, r0, r3
 8006ac0:	9302      	str	r3, [sp, #8]
 8006ac2:	9b02      	ldr	r3, [sp, #8]
 8006ac4:	2b00      	cmp	r3, #0
 8006ac6:	dd62      	ble.n	8006b8e <__kernel_rem_pio2+0x25e>
 8006ac8:	9b06      	ldr	r3, [sp, #24]
 8006aca:	2200      	movs	r2, #0
 8006acc:	3301      	adds	r3, #1
 8006ace:	9306      	str	r3, [sp, #24]
 8006ad0:	4615      	mov	r5, r2
 8006ad2:	f06f 417f 	mvn.w	r1, #4278190080	; 0xff000000
 8006ad6:	4294      	cmp	r4, r2
 8006ad8:	f300 8095 	bgt.w	8006c06 <__kernel_rem_pio2+0x2d6>
 8006adc:	f1ba 0f00 	cmp.w	sl, #0
 8006ae0:	dd07      	ble.n	8006af2 <__kernel_rem_pio2+0x1c2>
 8006ae2:	f1ba 0f01 	cmp.w	sl, #1
 8006ae6:	f000 80a2 	beq.w	8006c2e <__kernel_rem_pio2+0x2fe>
 8006aea:	f1ba 0f02 	cmp.w	sl, #2
 8006aee:	f000 80c1 	beq.w	8006c74 <__kernel_rem_pio2+0x344>
 8006af2:	9b02      	ldr	r3, [sp, #8]
 8006af4:	2b02      	cmp	r3, #2
 8006af6:	d14a      	bne.n	8006b8e <__kernel_rem_pio2+0x25e>
 8006af8:	4632      	mov	r2, r6
 8006afa:	463b      	mov	r3, r7
 8006afc:	2000      	movs	r0, #0
 8006afe:	4958      	ldr	r1, [pc, #352]	; (8006c60 <__kernel_rem_pio2+0x330>)
 8006b00:	f7f9 fb66 	bl	80001d0 <__aeabi_dsub>
 8006b04:	4606      	mov	r6, r0
 8006b06:	460f      	mov	r7, r1
 8006b08:	2d00      	cmp	r5, #0
 8006b0a:	d040      	beq.n	8006b8e <__kernel_rem_pio2+0x25e>
 8006b0c:	4650      	mov	r0, sl
 8006b0e:	ed9f 0b50 	vldr	d0, [pc, #320]	; 8006c50 <__kernel_rem_pio2+0x320>
 8006b12:	f000 fba1 	bl	8007258 <scalbn>
 8006b16:	4630      	mov	r0, r6
 8006b18:	4639      	mov	r1, r7
 8006b1a:	ec53 2b10 	vmov	r2, r3, d0
 8006b1e:	f7f9 fb57 	bl	80001d0 <__aeabi_dsub>
 8006b22:	4606      	mov	r6, r0
 8006b24:	460f      	mov	r7, r1
 8006b26:	e032      	b.n	8006b8e <__kernel_rem_pio2+0x25e>
 8006b28:	2200      	movs	r2, #0
 8006b2a:	4b4e      	ldr	r3, [pc, #312]	; (8006c64 <__kernel_rem_pio2+0x334>)
 8006b2c:	4640      	mov	r0, r8
 8006b2e:	4649      	mov	r1, r9
 8006b30:	f7f9 fd06 	bl	8000540 <__aeabi_dmul>
 8006b34:	f7f9 ffb4 	bl	8000aa0 <__aeabi_d2iz>
 8006b38:	f7f9 fc98 	bl	800046c <__aeabi_i2d>
 8006b3c:	2200      	movs	r2, #0
 8006b3e:	4b4a      	ldr	r3, [pc, #296]	; (8006c68 <__kernel_rem_pio2+0x338>)
 8006b40:	e9cd 0102 	strd	r0, r1, [sp, #8]
 8006b44:	f7f9 fcfc 	bl	8000540 <__aeabi_dmul>
 8006b48:	4602      	mov	r2, r0
 8006b4a:	460b      	mov	r3, r1
 8006b4c:	4640      	mov	r0, r8
 8006b4e:	4649      	mov	r1, r9
 8006b50:	f7f9 fb3e 	bl	80001d0 <__aeabi_dsub>
 8006b54:	f7f9 ffa4 	bl	8000aa0 <__aeabi_d2iz>
 8006b58:	ab0e      	add	r3, sp, #56	; 0x38
 8006b5a:	f843 0025 	str.w	r0, [r3, r5, lsl #2]
 8006b5e:	e976 2302 	ldrd	r2, r3, [r6, #-8]!
 8006b62:	e9dd 0102 	ldrd	r0, r1, [sp, #8]
 8006b66:	f7f9 fb35 	bl	80001d4 <__adddf3>
 8006b6a:	3501      	adds	r5, #1
 8006b6c:	4680      	mov	r8, r0
 8006b6e:	4689      	mov	r9, r1
 8006b70:	e75e      	b.n	8006a30 <__kernel_rem_pio2+0x100>
 8006b72:	d105      	bne.n	8006b80 <__kernel_rem_pio2+0x250>
 8006b74:	1e63      	subs	r3, r4, #1
 8006b76:	aa0e      	add	r2, sp, #56	; 0x38
 8006b78:	f852 0023 	ldr.w	r0, [r2, r3, lsl #2]
 8006b7c:	15c3      	asrs	r3, r0, #23
 8006b7e:	e79f      	b.n	8006ac0 <__kernel_rem_pio2+0x190>
 8006b80:	2200      	movs	r2, #0
 8006b82:	4b3a      	ldr	r3, [pc, #232]	; (8006c6c <__kernel_rem_pio2+0x33c>)
 8006b84:	f7f9 ff62 	bl	8000a4c <__aeabi_dcmpge>
 8006b88:	2800      	cmp	r0, #0
 8006b8a:	d139      	bne.n	8006c00 <__kernel_rem_pio2+0x2d0>
 8006b8c:	9002      	str	r0, [sp, #8]
 8006b8e:	2200      	movs	r2, #0
 8006b90:	2300      	movs	r3, #0
 8006b92:	4630      	mov	r0, r6
 8006b94:	4639      	mov	r1, r7
 8006b96:	f7f9 ff3b 	bl	8000a10 <__aeabi_dcmpeq>
 8006b9a:	2800      	cmp	r0, #0
 8006b9c:	f000 80c7 	beq.w	8006d2e <__kernel_rem_pio2+0x3fe>
 8006ba0:	1e65      	subs	r5, r4, #1
 8006ba2:	462b      	mov	r3, r5
 8006ba4:	2200      	movs	r2, #0
 8006ba6:	9904      	ldr	r1, [sp, #16]
 8006ba8:	428b      	cmp	r3, r1
 8006baa:	da6a      	bge.n	8006c82 <__kernel_rem_pio2+0x352>
 8006bac:	2a00      	cmp	r2, #0
 8006bae:	f000 8088 	beq.w	8006cc2 <__kernel_rem_pio2+0x392>
 8006bb2:	ab0e      	add	r3, sp, #56	; 0x38
 8006bb4:	f1aa 0a18 	sub.w	sl, sl, #24
 8006bb8:	f853 3025 	ldr.w	r3, [r3, r5, lsl #2]
 8006bbc:	2b00      	cmp	r3, #0
 8006bbe:	f000 80b4 	beq.w	8006d2a <__kernel_rem_pio2+0x3fa>
 8006bc2:	4650      	mov	r0, sl
 8006bc4:	ed9f 0b22 	vldr	d0, [pc, #136]	; 8006c50 <__kernel_rem_pio2+0x320>
 8006bc8:	f000 fb46 	bl	8007258 <scalbn>
 8006bcc:	00ec      	lsls	r4, r5, #3
 8006bce:	ab72      	add	r3, sp, #456	; 0x1c8
 8006bd0:	191e      	adds	r6, r3, r4
 8006bd2:	ec59 8b10 	vmov	r8, r9, d0
 8006bd6:	f106 0a08 	add.w	sl, r6, #8
 8006bda:	462f      	mov	r7, r5
 8006bdc:	2f00      	cmp	r7, #0
 8006bde:	f280 80df 	bge.w	8006da0 <__kernel_rem_pio2+0x470>
 8006be2:	ed9f 8b19 	vldr	d8, [pc, #100]	; 8006c48 <__kernel_rem_pio2+0x318>
 8006be6:	f04f 0a00 	mov.w	sl, #0
 8006bea:	eba5 030a 	sub.w	r3, r5, sl
 8006bee:	2b00      	cmp	r3, #0
 8006bf0:	f2c0 810a 	blt.w	8006e08 <__kernel_rem_pio2+0x4d8>
 8006bf4:	f8df b078 	ldr.w	fp, [pc, #120]	; 8006c70 <__kernel_rem_pio2+0x340>
 8006bf8:	ec59 8b18 	vmov	r8, r9, d8
 8006bfc:	2700      	movs	r7, #0
 8006bfe:	e0f5      	b.n	8006dec <__kernel_rem_pio2+0x4bc>
 8006c00:	2302      	movs	r3, #2
 8006c02:	9302      	str	r3, [sp, #8]
 8006c04:	e760      	b.n	8006ac8 <__kernel_rem_pio2+0x198>
 8006c06:	ab0e      	add	r3, sp, #56	; 0x38
 8006c08:	f853 3022 	ldr.w	r3, [r3, r2, lsl #2]
 8006c0c:	b94d      	cbnz	r5, 8006c22 <__kernel_rem_pio2+0x2f2>
 8006c0e:	b12b      	cbz	r3, 8006c1c <__kernel_rem_pio2+0x2ec>
 8006c10:	a80e      	add	r0, sp, #56	; 0x38
 8006c12:	f1c3 7380 	rsb	r3, r3, #16777216	; 0x1000000
 8006c16:	f840 3022 	str.w	r3, [r0, r2, lsl #2]
 8006c1a:	2301      	movs	r3, #1
 8006c1c:	3201      	adds	r2, #1
 8006c1e:	461d      	mov	r5, r3
 8006c20:	e759      	b.n	8006ad6 <__kernel_rem_pio2+0x1a6>
 8006c22:	a80e      	add	r0, sp, #56	; 0x38
 8006c24:	1acb      	subs	r3, r1, r3
 8006c26:	f840 3022 	str.w	r3, [r0, r2, lsl #2]
 8006c2a:	462b      	mov	r3, r5
 8006c2c:	e7f6      	b.n	8006c1c <__kernel_rem_pio2+0x2ec>
 8006c2e:	1e62      	subs	r2, r4, #1
 8006c30:	ab0e      	add	r3, sp, #56	; 0x38
 8006c32:	f853 3022 	ldr.w	r3, [r3, r2, lsl #2]
 8006c36:	f3c3 0316 	ubfx	r3, r3, #0, #23
 8006c3a:	a90e      	add	r1, sp, #56	; 0x38
 8006c3c:	f841 3022 	str.w	r3, [r1, r2, lsl #2]
 8006c40:	e757      	b.n	8006af2 <__kernel_rem_pio2+0x1c2>
 8006c42:	bf00      	nop
 8006c44:	f3af 8000 	nop.w
	...
 8006c54:	3ff00000 	.word	0x3ff00000
 8006c58:	080075d0 	.word	0x080075d0
 8006c5c:	40200000 	.word	0x40200000
 8006c60:	3ff00000 	.word	0x3ff00000
 8006c64:	3e700000 	.word	0x3e700000
 8006c68:	41700000 	.word	0x41700000
 8006c6c:	3fe00000 	.word	0x3fe00000
 8006c70:	08007590 	.word	0x08007590
 8006c74:	1e62      	subs	r2, r4, #1
 8006c76:	ab0e      	add	r3, sp, #56	; 0x38
 8006c78:	f853 3022 	ldr.w	r3, [r3, r2, lsl #2]
 8006c7c:	f3c3 0315 	ubfx	r3, r3, #0, #22
 8006c80:	e7db      	b.n	8006c3a <__kernel_rem_pio2+0x30a>
 8006c82:	a90e      	add	r1, sp, #56	; 0x38
 8006c84:	f851 1023 	ldr.w	r1, [r1, r3, lsl #2]
 8006c88:	3b01      	subs	r3, #1
 8006c8a:	430a      	orrs	r2, r1
 8006c8c:	e78b      	b.n	8006ba6 <__kernel_rem_pio2+0x276>
 8006c8e:	3301      	adds	r3, #1
 8006c90:	f852 1d04 	ldr.w	r1, [r2, #-4]!
 8006c94:	2900      	cmp	r1, #0
 8006c96:	d0fa      	beq.n	8006c8e <__kernel_rem_pio2+0x35e>
 8006c98:	9a08      	ldr	r2, [sp, #32]
 8006c9a:	4422      	add	r2, r4
 8006c9c:	00d2      	lsls	r2, r2, #3
 8006c9e:	a922      	add	r1, sp, #136	; 0x88
 8006ca0:	18e3      	adds	r3, r4, r3
 8006ca2:	9206      	str	r2, [sp, #24]
 8006ca4:	440a      	add	r2, r1
 8006ca6:	9302      	str	r3, [sp, #8]
 8006ca8:	f10b 0108 	add.w	r1, fp, #8
 8006cac:	f102 0308 	add.w	r3, r2, #8
 8006cb0:	1c66      	adds	r6, r4, #1
 8006cb2:	910a      	str	r1, [sp, #40]	; 0x28
 8006cb4:	2500      	movs	r5, #0
 8006cb6:	930d      	str	r3, [sp, #52]	; 0x34
 8006cb8:	9b02      	ldr	r3, [sp, #8]
 8006cba:	42b3      	cmp	r3, r6
 8006cbc:	da04      	bge.n	8006cc8 <__kernel_rem_pio2+0x398>
 8006cbe:	461c      	mov	r4, r3
 8006cc0:	e6a6      	b.n	8006a10 <__kernel_rem_pio2+0xe0>
 8006cc2:	9a0c      	ldr	r2, [sp, #48]	; 0x30
 8006cc4:	2301      	movs	r3, #1
 8006cc6:	e7e3      	b.n	8006c90 <__kernel_rem_pio2+0x360>
 8006cc8:	9b06      	ldr	r3, [sp, #24]
 8006cca:	18ef      	adds	r7, r5, r3
 8006ccc:	ab22      	add	r3, sp, #136	; 0x88
 8006cce:	441f      	add	r7, r3
 8006cd0:	9b0b      	ldr	r3, [sp, #44]	; 0x2c
 8006cd2:	f853 0026 	ldr.w	r0, [r3, r6, lsl #2]
 8006cd6:	f7f9 fbc9 	bl	800046c <__aeabi_i2d>
 8006cda:	9b09      	ldr	r3, [sp, #36]	; 0x24
 8006cdc:	461c      	mov	r4, r3
 8006cde:	9b0d      	ldr	r3, [sp, #52]	; 0x34
 8006ce0:	e9c7 0100 	strd	r0, r1, [r7]
 8006ce4:	eb03 0b05 	add.w	fp, r3, r5
 8006ce8:	2700      	movs	r7, #0
 8006cea:	f04f 0800 	mov.w	r8, #0
 8006cee:	f04f 0900 	mov.w	r9, #0
 8006cf2:	9b07      	ldr	r3, [sp, #28]
 8006cf4:	429f      	cmp	r7, r3
 8006cf6:	dd08      	ble.n	8006d0a <__kernel_rem_pio2+0x3da>
 8006cf8:	9b0a      	ldr	r3, [sp, #40]	; 0x28
 8006cfa:	aa72      	add	r2, sp, #456	; 0x1c8
 8006cfc:	18eb      	adds	r3, r5, r3
 8006cfe:	4413      	add	r3, r2
 8006d00:	e9c3 8902 	strd	r8, r9, [r3, #8]
 8006d04:	3601      	adds	r6, #1
 8006d06:	3508      	adds	r5, #8
 8006d08:	e7d6      	b.n	8006cb8 <__kernel_rem_pio2+0x388>
 8006d0a:	e97b 2302 	ldrd	r2, r3, [fp, #-8]!
 8006d0e:	e8f4 0102 	ldrd	r0, r1, [r4], #8
 8006d12:	f7f9 fc15 	bl	8000540 <__aeabi_dmul>
 8006d16:	4602      	mov	r2, r0
 8006d18:	460b      	mov	r3, r1
 8006d1a:	4640      	mov	r0, r8
 8006d1c:	4649      	mov	r1, r9
 8006d1e:	f7f9 fa59 	bl	80001d4 <__adddf3>
 8006d22:	3701      	adds	r7, #1
 8006d24:	4680      	mov	r8, r0
 8006d26:	4689      	mov	r9, r1
 8006d28:	e7e3      	b.n	8006cf2 <__kernel_rem_pio2+0x3c2>
 8006d2a:	3d01      	subs	r5, #1
 8006d2c:	e741      	b.n	8006bb2 <__kernel_rem_pio2+0x282>
 8006d2e:	f1ca 0000 	rsb	r0, sl, #0
 8006d32:	ec47 6b10 	vmov	d0, r6, r7
 8006d36:	f000 fa8f 	bl	8007258 <scalbn>
 8006d3a:	ec57 6b10 	vmov	r6, r7, d0
 8006d3e:	2200      	movs	r2, #0
 8006d40:	4b99      	ldr	r3, [pc, #612]	; (8006fa8 <__kernel_rem_pio2+0x678>)
 8006d42:	ee10 0a10 	vmov	r0, s0
 8006d46:	4639      	mov	r1, r7
 8006d48:	f7f9 fe80 	bl	8000a4c <__aeabi_dcmpge>
 8006d4c:	b1f8      	cbz	r0, 8006d8e <__kernel_rem_pio2+0x45e>
 8006d4e:	2200      	movs	r2, #0
 8006d50:	4b96      	ldr	r3, [pc, #600]	; (8006fac <__kernel_rem_pio2+0x67c>)
 8006d52:	4630      	mov	r0, r6
 8006d54:	4639      	mov	r1, r7
 8006d56:	f7f9 fbf3 	bl	8000540 <__aeabi_dmul>
 8006d5a:	f7f9 fea1 	bl	8000aa0 <__aeabi_d2iz>
 8006d5e:	4680      	mov	r8, r0
 8006d60:	f7f9 fb84 	bl	800046c <__aeabi_i2d>
 8006d64:	2200      	movs	r2, #0
 8006d66:	4b90      	ldr	r3, [pc, #576]	; (8006fa8 <__kernel_rem_pio2+0x678>)
 8006d68:	f7f9 fbea 	bl	8000540 <__aeabi_dmul>
 8006d6c:	460b      	mov	r3, r1
 8006d6e:	4602      	mov	r2, r0
 8006d70:	4639      	mov	r1, r7
 8006d72:	4630      	mov	r0, r6
 8006d74:	f7f9 fa2c 	bl	80001d0 <__aeabi_dsub>
 8006d78:	f7f9 fe92 	bl	8000aa0 <__aeabi_d2iz>
 8006d7c:	1c65      	adds	r5, r4, #1
 8006d7e:	ab0e      	add	r3, sp, #56	; 0x38
 8006d80:	f10a 0a18 	add.w	sl, sl, #24
 8006d84:	f843 0024 	str.w	r0, [r3, r4, lsl #2]
 8006d88:	f843 8025 	str.w	r8, [r3, r5, lsl #2]
 8006d8c:	e719      	b.n	8006bc2 <__kernel_rem_pio2+0x292>
 8006d8e:	4630      	mov	r0, r6
 8006d90:	4639      	mov	r1, r7
 8006d92:	f7f9 fe85 	bl	8000aa0 <__aeabi_d2iz>
 8006d96:	ab0e      	add	r3, sp, #56	; 0x38
 8006d98:	4625      	mov	r5, r4
 8006d9a:	f843 0024 	str.w	r0, [r3, r4, lsl #2]
 8006d9e:	e710      	b.n	8006bc2 <__kernel_rem_pio2+0x292>
 8006da0:	ab0e      	add	r3, sp, #56	; 0x38
 8006da2:	f853 0027 	ldr.w	r0, [r3, r7, lsl #2]
 8006da6:	f7f9 fb61 	bl	800046c <__aeabi_i2d>
 8006daa:	4642      	mov	r2, r8
 8006dac:	464b      	mov	r3, r9
 8006dae:	f7f9 fbc7 	bl	8000540 <__aeabi_dmul>
 8006db2:	2200      	movs	r2, #0
 8006db4:	e96a 0102 	strd	r0, r1, [sl, #-8]!
 8006db8:	4b7c      	ldr	r3, [pc, #496]	; (8006fac <__kernel_rem_pio2+0x67c>)
 8006dba:	4640      	mov	r0, r8
 8006dbc:	4649      	mov	r1, r9
 8006dbe:	f7f9 fbbf 	bl	8000540 <__aeabi_dmul>
 8006dc2:	3f01      	subs	r7, #1
 8006dc4:	4680      	mov	r8, r0
 8006dc6:	4689      	mov	r9, r1
 8006dc8:	e708      	b.n	8006bdc <__kernel_rem_pio2+0x2ac>
 8006dca:	eb06 03c7 	add.w	r3, r6, r7, lsl #3
 8006dce:	e9d3 2300 	ldrd	r2, r3, [r3]
 8006dd2:	e8fb 0102 	ldrd	r0, r1, [fp], #8
 8006dd6:	f7f9 fbb3 	bl	8000540 <__aeabi_dmul>
 8006dda:	4602      	mov	r2, r0
 8006ddc:	460b      	mov	r3, r1
 8006dde:	4640      	mov	r0, r8
 8006de0:	4649      	mov	r1, r9
 8006de2:	f7f9 f9f7 	bl	80001d4 <__adddf3>
 8006de6:	3701      	adds	r7, #1
 8006de8:	4680      	mov	r8, r0
 8006dea:	4689      	mov	r9, r1
 8006dec:	9b04      	ldr	r3, [sp, #16]
 8006dee:	429f      	cmp	r7, r3
 8006df0:	dc01      	bgt.n	8006df6 <__kernel_rem_pio2+0x4c6>
 8006df2:	45ba      	cmp	sl, r7
 8006df4:	dae9      	bge.n	8006dca <__kernel_rem_pio2+0x49a>
 8006df6:	ab4a      	add	r3, sp, #296	; 0x128
 8006df8:	eb03 03ca 	add.w	r3, r3, sl, lsl #3
 8006dfc:	e9c3 8900 	strd	r8, r9, [r3]
 8006e00:	f10a 0a01 	add.w	sl, sl, #1
 8006e04:	3e08      	subs	r6, #8
 8006e06:	e6f0      	b.n	8006bea <__kernel_rem_pio2+0x2ba>
 8006e08:	9ba6      	ldr	r3, [sp, #664]	; 0x298
 8006e0a:	2b03      	cmp	r3, #3
 8006e0c:	d85b      	bhi.n	8006ec6 <__kernel_rem_pio2+0x596>
 8006e0e:	e8df f003 	tbb	[pc, r3]
 8006e12:	264a      	.short	0x264a
 8006e14:	0226      	.short	0x0226
 8006e16:	ab9a      	add	r3, sp, #616	; 0x268
 8006e18:	441c      	add	r4, r3
 8006e1a:	f5a4 749c 	sub.w	r4, r4, #312	; 0x138
 8006e1e:	46a2      	mov	sl, r4
 8006e20:	46ab      	mov	fp, r5
 8006e22:	f1bb 0f00 	cmp.w	fp, #0
 8006e26:	dc6c      	bgt.n	8006f02 <__kernel_rem_pio2+0x5d2>
 8006e28:	46a2      	mov	sl, r4
 8006e2a:	46ab      	mov	fp, r5
 8006e2c:	f1bb 0f01 	cmp.w	fp, #1
 8006e30:	f300 8086 	bgt.w	8006f40 <__kernel_rem_pio2+0x610>
 8006e34:	2000      	movs	r0, #0
 8006e36:	2100      	movs	r1, #0
 8006e38:	2d01      	cmp	r5, #1
 8006e3a:	f300 80a0 	bgt.w	8006f7e <__kernel_rem_pio2+0x64e>
 8006e3e:	9b02      	ldr	r3, [sp, #8]
 8006e40:	e9dd 784a 	ldrd	r7, r8, [sp, #296]	; 0x128
 8006e44:	e9dd 564c 	ldrd	r5, r6, [sp, #304]	; 0x130
 8006e48:	2b00      	cmp	r3, #0
 8006e4a:	f040 809e 	bne.w	8006f8a <__kernel_rem_pio2+0x65a>
 8006e4e:	9b01      	ldr	r3, [sp, #4]
 8006e50:	e9c3 7800 	strd	r7, r8, [r3]
 8006e54:	e9c3 5602 	strd	r5, r6, [r3, #8]
 8006e58:	e9c3 0104 	strd	r0, r1, [r3, #16]
 8006e5c:	e033      	b.n	8006ec6 <__kernel_rem_pio2+0x596>
 8006e5e:	3408      	adds	r4, #8
 8006e60:	ab4a      	add	r3, sp, #296	; 0x128
 8006e62:	441c      	add	r4, r3
 8006e64:	462e      	mov	r6, r5
 8006e66:	2000      	movs	r0, #0
 8006e68:	2100      	movs	r1, #0
 8006e6a:	2e00      	cmp	r6, #0
 8006e6c:	da3a      	bge.n	8006ee4 <__kernel_rem_pio2+0x5b4>
 8006e6e:	9b02      	ldr	r3, [sp, #8]
 8006e70:	2b00      	cmp	r3, #0
 8006e72:	d03d      	beq.n	8006ef0 <__kernel_rem_pio2+0x5c0>
 8006e74:	4602      	mov	r2, r0
 8006e76:	f101 4300 	add.w	r3, r1, #2147483648	; 0x80000000
 8006e7a:	9c01      	ldr	r4, [sp, #4]
 8006e7c:	e9c4 2300 	strd	r2, r3, [r4]
 8006e80:	4602      	mov	r2, r0
 8006e82:	460b      	mov	r3, r1
 8006e84:	e9dd 014a 	ldrd	r0, r1, [sp, #296]	; 0x128
 8006e88:	f7f9 f9a2 	bl	80001d0 <__aeabi_dsub>
 8006e8c:	ae4c      	add	r6, sp, #304	; 0x130
 8006e8e:	2401      	movs	r4, #1
 8006e90:	42a5      	cmp	r5, r4
 8006e92:	da30      	bge.n	8006ef6 <__kernel_rem_pio2+0x5c6>
 8006e94:	9b02      	ldr	r3, [sp, #8]
 8006e96:	b113      	cbz	r3, 8006e9e <__kernel_rem_pio2+0x56e>
 8006e98:	f101 4300 	add.w	r3, r1, #2147483648	; 0x80000000
 8006e9c:	4619      	mov	r1, r3
 8006e9e:	9b01      	ldr	r3, [sp, #4]
 8006ea0:	e9c3 0102 	strd	r0, r1, [r3, #8]
 8006ea4:	e00f      	b.n	8006ec6 <__kernel_rem_pio2+0x596>
 8006ea6:	ab9a      	add	r3, sp, #616	; 0x268
 8006ea8:	441c      	add	r4, r3
 8006eaa:	f5a4 749c 	sub.w	r4, r4, #312	; 0x138
 8006eae:	2000      	movs	r0, #0
 8006eb0:	2100      	movs	r1, #0
 8006eb2:	2d00      	cmp	r5, #0
 8006eb4:	da10      	bge.n	8006ed8 <__kernel_rem_pio2+0x5a8>
 8006eb6:	9b02      	ldr	r3, [sp, #8]
 8006eb8:	b113      	cbz	r3, 8006ec0 <__kernel_rem_pio2+0x590>
 8006eba:	f101 4300 	add.w	r3, r1, #2147483648	; 0x80000000
 8006ebe:	4619      	mov	r1, r3
 8006ec0:	9b01      	ldr	r3, [sp, #4]
 8006ec2:	e9c3 0100 	strd	r0, r1, [r3]
 8006ec6:	9b06      	ldr	r3, [sp, #24]
 8006ec8:	f003 0007 	and.w	r0, r3, #7
 8006ecc:	f50d 7d1b 	add.w	sp, sp, #620	; 0x26c
 8006ed0:	ecbd 8b02 	vpop	{d8}
 8006ed4:	e8bd 8ff0 	ldmia.w	sp!, {r4, r5, r6, r7, r8, r9, sl, fp, pc}
 8006ed8:	e974 2302 	ldrd	r2, r3, [r4, #-8]!
 8006edc:	f7f9 f97a 	bl	80001d4 <__adddf3>
 8006ee0:	3d01      	subs	r5, #1
 8006ee2:	e7e6      	b.n	8006eb2 <__kernel_rem_pio2+0x582>
 8006ee4:	e974 2302 	ldrd	r2, r3, [r4, #-8]!
 8006ee8:	f7f9 f974 	bl	80001d4 <__adddf3>
 8006eec:	3e01      	subs	r6, #1
 8006eee:	e7bc      	b.n	8006e6a <__kernel_rem_pio2+0x53a>
 8006ef0:	4602      	mov	r2, r0
 8006ef2:	460b      	mov	r3, r1
 8006ef4:	e7c1      	b.n	8006e7a <__kernel_rem_pio2+0x54a>
 8006ef6:	e8f6 2302 	ldrd	r2, r3, [r6], #8
 8006efa:	f7f9 f96b 	bl	80001d4 <__adddf3>
 8006efe:	3401      	adds	r4, #1
 8006f00:	e7c6      	b.n	8006e90 <__kernel_rem_pio2+0x560>
 8006f02:	e95a 8904 	ldrd	r8, r9, [sl, #-16]
 8006f06:	ed3a 7b02 	vldmdb	sl!, {d7}
 8006f0a:	4640      	mov	r0, r8
 8006f0c:	ec53 2b17 	vmov	r2, r3, d7
 8006f10:	4649      	mov	r1, r9
 8006f12:	ed8d 7b04 	vstr	d7, [sp, #16]
 8006f16:	f7f9 f95d 	bl	80001d4 <__adddf3>
 8006f1a:	4602      	mov	r2, r0
 8006f1c:	460b      	mov	r3, r1
 8006f1e:	4606      	mov	r6, r0
 8006f20:	460f      	mov	r7, r1
 8006f22:	4640      	mov	r0, r8
 8006f24:	4649      	mov	r1, r9
 8006f26:	f7f9 f953 	bl	80001d0 <__aeabi_dsub>
 8006f2a:	e9dd 2304 	ldrd	r2, r3, [sp, #16]
 8006f2e:	f7f9 f951 	bl	80001d4 <__adddf3>
 8006f32:	f10b 3bff 	add.w	fp, fp, #4294967295
 8006f36:	e9ca 0100 	strd	r0, r1, [sl]
 8006f3a:	e94a 6702 	strd	r6, r7, [sl, #-8]
 8006f3e:	e770      	b.n	8006e22 <__kernel_rem_pio2+0x4f2>
 8006f40:	e95a 6704 	ldrd	r6, r7, [sl, #-16]
 8006f44:	ed3a 7b02 	vldmdb	sl!, {d7}
 8006f48:	4630      	mov	r0, r6
 8006f4a:	ec53 2b17 	vmov	r2, r3, d7
 8006f4e:	4639      	mov	r1, r7
 8006f50:	ed8d 7b04 	vstr	d7, [sp, #16]
 8006f54:	f7f9 f93e 	bl	80001d4 <__adddf3>
 8006f58:	4602      	mov	r2, r0
 8006f5a:	460b      	mov	r3, r1
 8006f5c:	4680      	mov	r8, r0
 8006f5e:	4689      	mov	r9, r1
 8006f60:	4630      	mov	r0, r6
 8006f62:	4639      	mov	r1, r7
 8006f64:	f7f9 f934 	bl	80001d0 <__aeabi_dsub>
 8006f68:	e9dd 2304 	ldrd	r2, r3, [sp, #16]
 8006f6c:	f7f9 f932 	bl	80001d4 <__adddf3>
 8006f70:	f10b 3bff 	add.w	fp, fp, #4294967295
 8006f74:	e9ca 0100 	strd	r0, r1, [sl]
 8006f78:	e94a 8902 	strd	r8, r9, [sl, #-8]
 8006f7c:	e756      	b.n	8006e2c <__kernel_rem_pio2+0x4fc>
 8006f7e:	e974 2302 	ldrd	r2, r3, [r4, #-8]!
 8006f82:	f7f9 f927 	bl	80001d4 <__adddf3>
 8006f86:	3d01      	subs	r5, #1
 8006f88:	e756      	b.n	8006e38 <__kernel_rem_pio2+0x508>
 8006f8a:	9b01      	ldr	r3, [sp, #4]
 8006f8c:	9a01      	ldr	r2, [sp, #4]
 8006f8e:	601f      	str	r7, [r3, #0]
 8006f90:	f108 4400 	add.w	r4, r8, #2147483648	; 0x80000000
 8006f94:	605c      	str	r4, [r3, #4]
 8006f96:	609d      	str	r5, [r3, #8]
 8006f98:	f106 4300 	add.w	r3, r6, #2147483648	; 0x80000000
 8006f9c:	60d3      	str	r3, [r2, #12]
 8006f9e:	f101 4300 	add.w	r3, r1, #2147483648	; 0x80000000
 8006fa2:	6110      	str	r0, [r2, #16]
 8006fa4:	6153      	str	r3, [r2, #20]
 8006fa6:	e78e      	b.n	8006ec6 <__kernel_rem_pio2+0x596>
 8006fa8:	41700000 	.word	0x41700000
 8006fac:	3e700000 	.word	0x3e700000

08006fb0 <__kernel_sin>:
 8006fb0:	e92d 4ff0 	stmdb	sp!, {r4, r5, r6, r7, r8, r9, sl, fp, lr}
 8006fb4:	ec55 4b10 	vmov	r4, r5, d0
 8006fb8:	b085      	sub	sp, #20
 8006fba:	f025 4300 	bic.w	r3, r5, #2147483648	; 0x80000000
 8006fbe:	f1b3 5f79 	cmp.w	r3, #1044381696	; 0x3e400000
 8006fc2:	ed8d 1b00 	vstr	d1, [sp]
 8006fc6:	9002      	str	r0, [sp, #8]
 8006fc8:	da06      	bge.n	8006fd8 <__kernel_sin+0x28>
 8006fca:	ee10 0a10 	vmov	r0, s0
 8006fce:	4629      	mov	r1, r5
 8006fd0:	f7f9 fd66 	bl	8000aa0 <__aeabi_d2iz>
 8006fd4:	2800      	cmp	r0, #0
 8006fd6:	d051      	beq.n	800707c <__kernel_sin+0xcc>
 8006fd8:	4622      	mov	r2, r4
 8006fda:	462b      	mov	r3, r5
 8006fdc:	4620      	mov	r0, r4
 8006fde:	4629      	mov	r1, r5
 8006fe0:	f7f9 faae 	bl	8000540 <__aeabi_dmul>
 8006fe4:	4682      	mov	sl, r0
 8006fe6:	468b      	mov	fp, r1
 8006fe8:	4602      	mov	r2, r0
 8006fea:	460b      	mov	r3, r1
 8006fec:	4620      	mov	r0, r4
 8006fee:	4629      	mov	r1, r5
 8006ff0:	f7f9 faa6 	bl	8000540 <__aeabi_dmul>
 8006ff4:	a341      	add	r3, pc, #260	; (adr r3, 80070fc <__kernel_sin+0x14c>)
 8006ff6:	e9d3 2300 	ldrd	r2, r3, [r3]
 8006ffa:	4680      	mov	r8, r0
 8006ffc:	4689      	mov	r9, r1
 8006ffe:	4650      	mov	r0, sl
 8007000:	4659      	mov	r1, fp
 8007002:	f7f9 fa9d 	bl	8000540 <__aeabi_dmul>
 8007006:	a33f      	add	r3, pc, #252	; (adr r3, 8007104 <__kernel_sin+0x154>)
 8007008:	e9d3 2300 	ldrd	r2, r3, [r3]
 800700c:	f7f9 f8e0 	bl	80001d0 <__aeabi_dsub>
 8007010:	4652      	mov	r2, sl
 8007012:	465b      	mov	r3, fp
 8007014:	f7f9 fa94 	bl	8000540 <__aeabi_dmul>
 8007018:	a33c      	add	r3, pc, #240	; (adr r3, 800710c <__kernel_sin+0x15c>)
 800701a:	e9d3 2300 	ldrd	r2, r3, [r3]
 800701e:	f7f9 f8d9 	bl	80001d4 <__adddf3>
 8007022:	4652      	mov	r2, sl
 8007024:	465b      	mov	r3, fp
 8007026:	f7f9 fa8b 	bl	8000540 <__aeabi_dmul>
 800702a:	a33a      	add	r3, pc, #232	; (adr r3, 8007114 <__kernel_sin+0x164>)
 800702c:	e9d3 2300 	ldrd	r2, r3, [r3]
 8007030:	f7f9 f8ce 	bl	80001d0 <__aeabi_dsub>
 8007034:	4652      	mov	r2, sl
 8007036:	465b      	mov	r3, fp
 8007038:	f7f9 fa82 	bl	8000540 <__aeabi_dmul>
 800703c:	a337      	add	r3, pc, #220	; (adr r3, 800711c <__kernel_sin+0x16c>)
 800703e:	e9d3 2300 	ldrd	r2, r3, [r3]
 8007042:	f7f9 f8c7 	bl	80001d4 <__adddf3>
 8007046:	9b02      	ldr	r3, [sp, #8]
 8007048:	4606      	mov	r6, r0
 800704a:	460f      	mov	r7, r1
 800704c:	b9db      	cbnz	r3, 8007086 <__kernel_sin+0xd6>
 800704e:	4602      	mov	r2, r0
 8007050:	460b      	mov	r3, r1
 8007052:	4650      	mov	r0, sl
 8007054:	4659      	mov	r1, fp
 8007056:	f7f9 fa73 	bl	8000540 <__aeabi_dmul>
 800705a:	a325      	add	r3, pc, #148	; (adr r3, 80070f0 <__kernel_sin+0x140>)
 800705c:	e9d3 2300 	ldrd	r2, r3, [r3]
 8007060:	f7f9 f8b6 	bl	80001d0 <__aeabi_dsub>
 8007064:	4642      	mov	r2, r8
 8007066:	464b      	mov	r3, r9
 8007068:	f7f9 fa6a 	bl	8000540 <__aeabi_dmul>
 800706c:	4602      	mov	r2, r0
 800706e:	460b      	mov	r3, r1
 8007070:	4620      	mov	r0, r4
 8007072:	4629      	mov	r1, r5
 8007074:	f7f9 f8ae 	bl	80001d4 <__adddf3>
 8007078:	4604      	mov	r4, r0
 800707a:	460d      	mov	r5, r1
 800707c:	ec45 4b10 	vmov	d0, r4, r5
 8007080:	b005      	add	sp, #20
 8007082:	e8bd 8ff0 	ldmia.w	sp!, {r4, r5, r6, r7, r8, r9, sl, fp, pc}
 8007086:	2200      	movs	r2, #0
 8007088:	4b1b      	ldr	r3, [pc, #108]	; (80070f8 <__kernel_sin+0x148>)
 800708a:	e9dd 0100 	ldrd	r0, r1, [sp]
 800708e:	f7f9 fa57 	bl	8000540 <__aeabi_dmul>
 8007092:	4632      	mov	r2, r6
 8007094:	e9cd 0102 	strd	r0, r1, [sp, #8]
 8007098:	463b      	mov	r3, r7
 800709a:	4640      	mov	r0, r8
 800709c:	4649      	mov	r1, r9
 800709e:	f7f9 fa4f 	bl	8000540 <__aeabi_dmul>
 80070a2:	4602      	mov	r2, r0
 80070a4:	460b      	mov	r3, r1
 80070a6:	e9dd 0102 	ldrd	r0, r1, [sp, #8]
 80070aa:	f7f9 f891 	bl	80001d0 <__aeabi_dsub>
 80070ae:	4652      	mov	r2, sl
 80070b0:	465b      	mov	r3, fp
 80070b2:	f7f9 fa45 	bl	8000540 <__aeabi_dmul>
 80070b6:	e9dd 2300 	ldrd	r2, r3, [sp]
 80070ba:	f7f9 f889 	bl	80001d0 <__aeabi_dsub>
 80070be:	a30c      	add	r3, pc, #48	; (adr r3, 80070f0 <__kernel_sin+0x140>)
 80070c0:	e9d3 2300 	ldrd	r2, r3, [r3]
 80070c4:	4606      	mov	r6, r0
 80070c6:	460f      	mov	r7, r1
 80070c8:	4640      	mov	r0, r8
 80070ca:	4649      	mov	r1, r9
 80070cc:	f7f9 fa38 	bl	8000540 <__aeabi_dmul>
 80070d0:	4602      	mov	r2, r0
 80070d2:	460b      	mov	r3, r1
 80070d4:	4630      	mov	r0, r6
 80070d6:	4639      	mov	r1, r7
 80070d8:	f7f9 f87c 	bl	80001d4 <__adddf3>
 80070dc:	4602      	mov	r2, r0
 80070de:	460b      	mov	r3, r1
 80070e0:	4620      	mov	r0, r4
 80070e2:	4629      	mov	r1, r5
 80070e4:	f7f9 f874 	bl	80001d0 <__aeabi_dsub>
 80070e8:	e7c6      	b.n	8007078 <__kernel_sin+0xc8>
 80070ea:	bf00      	nop
 80070ec:	f3af 8000 	nop.w
 80070f0:	55555549 	.word	0x55555549
 80070f4:	3fc55555 	.word	0x3fc55555
 80070f8:	3fe00000 	.word	0x3fe00000
 80070fc:	5acfd57c 	.word	0x5acfd57c
 8007100:	3de5d93a 	.word	0x3de5d93a
 8007104:	8a2b9ceb 	.word	0x8a2b9ceb
 8007108:	3e5ae5e6 	.word	0x3e5ae5e6
 800710c:	57b1fe7d 	.word	0x57b1fe7d
 8007110:	3ec71de3 	.word	0x3ec71de3
 8007114:	19c161d5 	.word	0x19c161d5
 8007118:	3f2a01a0 	.word	0x3f2a01a0
 800711c:	1110f8a6 	.word	0x1110f8a6
 8007120:	3f811111 	.word	0x3f811111

08007124 <fabs>:
 8007124:	ec51 0b10 	vmov	r0, r1, d0
 8007128:	ee10 2a10 	vmov	r2, s0
 800712c:	f021 4300 	bic.w	r3, r1, #2147483648	; 0x80000000
 8007130:	ec43 2b10 	vmov	d0, r2, r3
 8007134:	4770      	bx	lr
	...

08007138 <floor>:
 8007138:	ec51 0b10 	vmov	r0, r1, d0
 800713c:	e92d 41f0 	stmdb	sp!, {r4, r5, r6, r7, r8, lr}
 8007140:	f3c1 570a 	ubfx	r7, r1, #20, #11
 8007144:	f2a7 36ff 	subw	r6, r7, #1023	; 0x3ff
 8007148:	2e13      	cmp	r6, #19
 800714a:	460c      	mov	r4, r1
 800714c:	ee10 5a10 	vmov	r5, s0
 8007150:	4680      	mov	r8, r0
 8007152:	dc34      	bgt.n	80071be <floor+0x86>
 8007154:	2e00      	cmp	r6, #0
 8007156:	da16      	bge.n	8007186 <floor+0x4e>
 8007158:	a335      	add	r3, pc, #212	; (adr r3, 8007230 <floor+0xf8>)
 800715a:	e9d3 2300 	ldrd	r2, r3, [r3]
 800715e:	f7f9 f839 	bl	80001d4 <__adddf3>
 8007162:	2200      	movs	r2, #0
 8007164:	2300      	movs	r3, #0
 8007166:	f7f9 fc7b 	bl	8000a60 <__aeabi_dcmpgt>
 800716a:	b148      	cbz	r0, 8007180 <floor+0x48>
 800716c:	2c00      	cmp	r4, #0
 800716e:	da59      	bge.n	8007224 <floor+0xec>
 8007170:	f024 4300 	bic.w	r3, r4, #2147483648	; 0x80000000
 8007174:	4a30      	ldr	r2, [pc, #192]	; (8007238 <floor+0x100>)
 8007176:	432b      	orrs	r3, r5
 8007178:	2500      	movs	r5, #0
 800717a:	42ab      	cmp	r3, r5
 800717c:	bf18      	it	ne
 800717e:	4614      	movne	r4, r2
 8007180:	4621      	mov	r1, r4
 8007182:	4628      	mov	r0, r5
 8007184:	e025      	b.n	80071d2 <floor+0x9a>
 8007186:	4f2d      	ldr	r7, [pc, #180]	; (800723c <floor+0x104>)
 8007188:	4137      	asrs	r7, r6
 800718a:	ea01 0307 	and.w	r3, r1, r7
 800718e:	4303      	orrs	r3, r0
 8007190:	d01f      	beq.n	80071d2 <floor+0x9a>
 8007192:	a327      	add	r3, pc, #156	; (adr r3, 8007230 <floor+0xf8>)
 8007194:	e9d3 2300 	ldrd	r2, r3, [r3]
 8007198:	f7f9 f81c 	bl	80001d4 <__adddf3>
 800719c:	2200      	movs	r2, #0
 800719e:	2300      	movs	r3, #0
 80071a0:	f7f9 fc5e 	bl	8000a60 <__aeabi_dcmpgt>
 80071a4:	2800      	cmp	r0, #0
 80071a6:	d0eb      	beq.n	8007180 <floor+0x48>
 80071a8:	2c00      	cmp	r4, #0
 80071aa:	bfbe      	ittt	lt
 80071ac:	f44f 1380 	movlt.w	r3, #1048576	; 0x100000
 80071b0:	fa43 f606 	asrlt.w	r6, r3, r6
 80071b4:	19a4      	addlt	r4, r4, r6
 80071b6:	ea24 0407 	bic.w	r4, r4, r7
 80071ba:	2500      	movs	r5, #0
 80071bc:	e7e0      	b.n	8007180 <floor+0x48>
 80071be:	2e33      	cmp	r6, #51	; 0x33
 80071c0:	dd0b      	ble.n	80071da <floor+0xa2>
 80071c2:	f5b6 6f80 	cmp.w	r6, #1024	; 0x400
 80071c6:	d104      	bne.n	80071d2 <floor+0x9a>
 80071c8:	ee10 2a10 	vmov	r2, s0
 80071cc:	460b      	mov	r3, r1
 80071ce:	f7f9 f801 	bl	80001d4 <__adddf3>
 80071d2:	ec41 0b10 	vmov	d0, r0, r1
 80071d6:	e8bd 81f0 	ldmia.w	sp!, {r4, r5, r6, r7, r8, pc}
 80071da:	f2a7 4713 	subw	r7, r7, #1043	; 0x413
 80071de:	f04f 33ff 	mov.w	r3, #4294967295
 80071e2:	fa23 f707 	lsr.w	r7, r3, r7
 80071e6:	4207      	tst	r7, r0
 80071e8:	d0f3      	beq.n	80071d2 <floor+0x9a>
 80071ea:	a311      	add	r3, pc, #68	; (adr r3, 8007230 <floor+0xf8>)
 80071ec:	e9d3 2300 	ldrd	r2, r3, [r3]
 80071f0:	f7f8 fff0 	bl	80001d4 <__adddf3>
 80071f4:	2200      	movs	r2, #0
 80071f6:	2300      	movs	r3, #0
 80071f8:	f7f9 fc32 	bl	8000a60 <__aeabi_dcmpgt>
 80071fc:	2800      	cmp	r0, #0
 80071fe:	d0bf      	beq.n	8007180 <floor+0x48>
 8007200:	2c00      	cmp	r4, #0
 8007202:	da02      	bge.n	800720a <floor+0xd2>
 8007204:	2e14      	cmp	r6, #20
 8007206:	d103      	bne.n	8007210 <floor+0xd8>
 8007208:	3401      	adds	r4, #1
 800720a:	ea25 0507 	bic.w	r5, r5, r7
 800720e:	e7b7      	b.n	8007180 <floor+0x48>
 8007210:	2301      	movs	r3, #1
 8007212:	f1c6 0634 	rsb	r6, r6, #52	; 0x34
 8007216:	fa03 f606 	lsl.w	r6, r3, r6
 800721a:	4435      	add	r5, r6
 800721c:	4545      	cmp	r5, r8
 800721e:	bf38      	it	cc
 8007220:	18e4      	addcc	r4, r4, r3
 8007222:	e7f2      	b.n	800720a <floor+0xd2>
 8007224:	2500      	movs	r5, #0
 8007226:	462c      	mov	r4, r5
 8007228:	e7aa      	b.n	8007180 <floor+0x48>
 800722a:	bf00      	nop
 800722c:	f3af 8000 	nop.w
 8007230:	8800759c 	.word	0x8800759c
 8007234:	7e37e43c 	.word	0x7e37e43c
 8007238:	bff00000 	.word	0xbff00000
 800723c:	000fffff 	.word	0x000fffff

08007240 <matherr>:
 8007240:	2000      	movs	r0, #0
 8007242:	4770      	bx	lr
 8007244:	0000      	movs	r0, r0
	...

08007248 <nan>:
 8007248:	ed9f 0b01 	vldr	d0, [pc, #4]	; 8007250 <nan+0x8>
 800724c:	4770      	bx	lr
 800724e:	bf00      	nop
 8007250:	00000000 	.word	0x00000000
 8007254:	7ff80000 	.word	0x7ff80000

08007258 <scalbn>:
 8007258:	b570      	push	{r4, r5, r6, lr}
 800725a:	ec55 4b10 	vmov	r4, r5, d0
 800725e:	f3c5 520a 	ubfx	r2, r5, #20, #11
 8007262:	4606      	mov	r6, r0
 8007264:	462b      	mov	r3, r5
 8007266:	b9aa      	cbnz	r2, 8007294 <scalbn+0x3c>
 8007268:	f025 4300 	bic.w	r3, r5, #2147483648	; 0x80000000
 800726c:	4323      	orrs	r3, r4
 800726e:	d03b      	beq.n	80072e8 <scalbn+0x90>
 8007270:	4b31      	ldr	r3, [pc, #196]	; (8007338 <scalbn+0xe0>)
 8007272:	4629      	mov	r1, r5
 8007274:	2200      	movs	r2, #0
 8007276:	ee10 0a10 	vmov	r0, s0
 800727a:	f7f9 f961 	bl	8000540 <__aeabi_dmul>
 800727e:	4b2f      	ldr	r3, [pc, #188]	; (800733c <scalbn+0xe4>)
 8007280:	429e      	cmp	r6, r3
 8007282:	4604      	mov	r4, r0
 8007284:	460d      	mov	r5, r1
 8007286:	da12      	bge.n	80072ae <scalbn+0x56>
 8007288:	a327      	add	r3, pc, #156	; (adr r3, 8007328 <scalbn+0xd0>)
 800728a:	e9d3 2300 	ldrd	r2, r3, [r3]
 800728e:	f7f9 f957 	bl	8000540 <__aeabi_dmul>
 8007292:	e009      	b.n	80072a8 <scalbn+0x50>
 8007294:	f240 71ff 	movw	r1, #2047	; 0x7ff
 8007298:	428a      	cmp	r2, r1
 800729a:	d10c      	bne.n	80072b6 <scalbn+0x5e>
 800729c:	ee10 2a10 	vmov	r2, s0
 80072a0:	4620      	mov	r0, r4
 80072a2:	4629      	mov	r1, r5
 80072a4:	f7f8 ff96 	bl	80001d4 <__adddf3>
 80072a8:	4604      	mov	r4, r0
 80072aa:	460d      	mov	r5, r1
 80072ac:	e01c      	b.n	80072e8 <scalbn+0x90>
 80072ae:	f3c1 520a 	ubfx	r2, r1, #20, #11
 80072b2:	460b      	mov	r3, r1
 80072b4:	3a36      	subs	r2, #54	; 0x36
 80072b6:	4432      	add	r2, r6
 80072b8:	f240 71fe 	movw	r1, #2046	; 0x7fe
 80072bc:	428a      	cmp	r2, r1
 80072be:	dd0b      	ble.n	80072d8 <scalbn+0x80>
 80072c0:	ec45 4b11 	vmov	d1, r4, r5
 80072c4:	ed9f 0b1a 	vldr	d0, [pc, #104]	; 8007330 <scalbn+0xd8>
 80072c8:	f000 f83c 	bl	8007344 <copysign>
 80072cc:	a318      	add	r3, pc, #96	; (adr r3, 8007330 <scalbn+0xd8>)
 80072ce:	e9d3 2300 	ldrd	r2, r3, [r3]
 80072d2:	ec51 0b10 	vmov	r0, r1, d0
 80072d6:	e7da      	b.n	800728e <scalbn+0x36>
 80072d8:	2a00      	cmp	r2, #0
 80072da:	dd08      	ble.n	80072ee <scalbn+0x96>
 80072dc:	f023 43ff 	bic.w	r3, r3, #2139095040	; 0x7f800000
 80072e0:	f423 03e0 	bic.w	r3, r3, #7340032	; 0x700000
 80072e4:	ea43 5502 	orr.w	r5, r3, r2, lsl #20
 80072e8:	ec45 4b10 	vmov	d0, r4, r5
 80072ec:	bd70      	pop	{r4, r5, r6, pc}
 80072ee:	f112 0f35 	cmn.w	r2, #53	; 0x35
 80072f2:	da0d      	bge.n	8007310 <scalbn+0xb8>
 80072f4:	f24c 3350 	movw	r3, #50000	; 0xc350
 80072f8:	429e      	cmp	r6, r3
 80072fa:	ec45 4b11 	vmov	d1, r4, r5
 80072fe:	dce1      	bgt.n	80072c4 <scalbn+0x6c>
 8007300:	ed9f 0b09 	vldr	d0, [pc, #36]	; 8007328 <scalbn+0xd0>
 8007304:	f000 f81e 	bl	8007344 <copysign>
 8007308:	a307      	add	r3, pc, #28	; (adr r3, 8007328 <scalbn+0xd0>)
 800730a:	e9d3 2300 	ldrd	r2, r3, [r3]
 800730e:	e7e0      	b.n	80072d2 <scalbn+0x7a>
 8007310:	f023 43ff 	bic.w	r3, r3, #2139095040	; 0x7f800000
 8007314:	3236      	adds	r2, #54	; 0x36
 8007316:	f423 03e0 	bic.w	r3, r3, #7340032	; 0x700000
 800731a:	ea43 5502 	orr.w	r5, r3, r2, lsl #20
 800731e:	4620      	mov	r0, r4
 8007320:	4629      	mov	r1, r5
 8007322:	2200      	movs	r2, #0
 8007324:	4b06      	ldr	r3, [pc, #24]	; (8007340 <scalbn+0xe8>)
 8007326:	e7b2      	b.n	800728e <scalbn+0x36>
 8007328:	c2f8f359 	.word	0xc2f8f359
 800732c:	01a56e1f 	.word	0x01a56e1f
 8007330:	8800759c 	.word	0x8800759c
 8007334:	7e37e43c 	.word	0x7e37e43c
 8007338:	43500000 	.word	0x43500000
 800733c:	ffff3cb0 	.word	0xffff3cb0
 8007340:	3c900000 	.word	0x3c900000

08007344 <copysign>:
 8007344:	ec51 0b10 	vmov	r0, r1, d0
 8007348:	ee11 0a90 	vmov	r0, s3
 800734c:	ee10 2a10 	vmov	r2, s0
 8007350:	f021 4100 	bic.w	r1, r1, #2147483648	; 0x80000000
 8007354:	f000 4000 	and.w	r0, r0, #2147483648	; 0x80000000
 8007358:	ea41 0300 	orr.w	r3, r1, r0
 800735c:	ec43 2b10 	vmov	d0, r2, r3
 8007360:	4770      	bx	lr
	...

08007364 <_init>:
 8007364:	b5f8      	push	{r3, r4, r5, r6, r7, lr}
 8007366:	bf00      	nop
 8007368:	bcf8      	pop	{r3, r4, r5, r6, r7}
 800736a:	bc08      	pop	{r3}
 800736c:	469e      	mov	lr, r3
 800736e:	4770      	bx	lr

08007370 <_fini>:
 8007370:	b5f8      	push	{r3, r4, r5, r6, r7, lr}
 8007372:	bf00      	nop
 8007374:	bcf8      	pop	{r3, r4, r5, r6, r7}
 8007376:	bc08      	pop	{r3}
 8007378:	469e      	mov	lr, r3
 800737a:	4770      	bx	lr
